
rhd_acquisition.elf:     file format elf32-littlearm

Sections:
Idx Name          Size      VMA       LMA       File off  Algn
  0 .isr_vector   00000250  08000000  08000000  00001000  2**0
                  CONTENTS, ALLOC, LOAD, READONLY, DATA
  1 .text         00009168  08000250  08000250  00001250  2**3
                  CONTENTS, ALLOC, LOAD, READONLY, CODE
  2 .rodata       00000138  080093b8  080093b8  0000a3b8  2**3
                  CONTENTS, ALLOC, LOAD, READONLY, DATA
  3 .ARM          00000008  080094f0  080094f0  0000a4f0  2**2
                  CONTENTS, ALLOC, LOAD, READONLY, DATA
  4 .init_array   00000004  080094f8  080094f8  0000a4f8  2**2
                  CONTENTS, ALLOC, LOAD, READONLY, DATA
  5 .fini_array   00000004  080094fc  080094fc  0000a4fc  2**2
                  CONTENTS, ALLOC, LOAD, READONLY, DATA
  6 .data         00000078  20000000  08009500  0000b000  2**3
                  CONTENTS, ALLOC, LOAD, DATA
  7 .bss          000007e5  20000078  08009578  0000b078  2**3
                  ALLOC
  8 ._user_heap_stack 00000603  2000085d  08009578  0000b85d  2**0
                  ALLOC
  9 .ARM.attributes 00000036  00000000  00000000  0000b078  2**0
                  CONTENTS, READONLY
 10 .comment      00000043  00000000  00000000  0000b0ae  2**0
                  CONTENTS, READONLY
 11 .debug_frame  00000a50  00000000  00000000  0000b0f4  2**2
                  CONTENTS, READONLY, DEBUGGING, OCTETS

Disassembly of section .text:

08000250 <__do_global_dtors_aux>:
 8000250:	b510      	push	{r4, lr}
 8000252:	4c05      	ldr	r4, [pc, #20]	@ (8000268 <__do_global_dtors_aux+0x18>)
 8000254:	7823      	ldrb	r3, [r4, #0]
 8000256:	b933      	cbnz	r3, 8000266 <__do_global_dtors_aux+0x16>
 8000258:	4b04      	ldr	r3, [pc, #16]	@ (800026c <__do_global_dtors_aux+0x1c>)
 800025a:	b113      	cbz	r3, 8000262 <__do_global_dtors_aux+0x12>
 800025c:	4804      	ldr	r0, [pc, #16]	@ (8000270 <__do_global_dtors_aux+0x20>)
 800025e:	f3af 8000 	nop.w
 8000262:	2301      	movs	r3, #1
 8000264:	7023      	strb	r3, [r4, #0]
 8000266:	bd10      	pop	{r4, pc}
 8000268:	20000078 	.word	0x20000078
 800026c:	00000000 	.word	0x00000000
 8000270:	080093a0 	.word	0x080093a0

08000274 <frame_dummy>:
 8000274:	b508      	push	{r3, lr}
 8000276:	4b03      	ldr	r3, [pc, #12]	@ (8000284 <frame_dummy+0x10>)
 8000278:	b11b      	cbz	r3, 8000282 <frame_dummy+0xe>
 800027a:	4903      	ldr	r1, [pc, #12]	@ (8000288 <frame_dummy+0x14>)
 800027c:	4803      	ldr	r0, [pc, #12]	@ (800028c <frame_dummy+0x18>)
 800027e:	f3af 8000 	nop.w
 8000282:	bd08      	pop	{r3, pc}
 8000284:	00000000 	.word	0x00000000
 8000288:	2000007c 	.word	0x2000007c
 800028c:	080093a0 	.word	0x080093a0

08000290 <__aeabi_drsub>:
 8000290:	f081 4100 	eor.w	r1, r1, #2147483648	@ 0x80000000
 8000294:	e002      	b.n	800029c <__adddf3>
 8000296:	bf00      	nop

08000298 <__aeabi_dsub>:
 8000298:	f083 4300 	eor.w	r3, r3, #2147483648	@ 0x80000000

0800029c <__adddf3>:
 800029c:	b530      	push	{r4, r5, lr}
 800029e:	ea4f 0441 	mov.w	r4, r1, lsl #1
 80002a2:	ea4f 0543 	mov.w	r5, r3, lsl #1
 80002a6:	ea94 0f05 	teq	r4, r5
 80002aa:	bf08      	it	eq
 80002ac:	ea90 0f02 	teqeq	r0, r2
 80002b0:	bf1f      	itttt	ne
 80002b2:	ea54 0c00 	orrsne.w	ip, r4, r0
 80002b6:	ea55 0c02 	orrsne.w	ip, r5, r2
 80002ba:	ea7f 5c64 	mvnsne.w	ip, r4, asr #21
 80002be:	ea7f 5c65 	mvnsne.w	ip, r5, asr #21
 80002c2:	f000 80e2 	beq.w	800048a <__adddf3+0x1ee>
 80002c6:	ea4f 5454 	mov.w	r4, r4, lsr #21
 80002ca:	ebd4 5555 	rsbs	r5, r4, r5, lsr #21
 80002ce:	bfb8      	it	lt
 80002d0:	426d      	neglt	r5, r5
 80002d2:	dd0c      	ble.n	80002ee <__adddf3+0x52>
 80002d4:	442c      	add	r4, r5
 80002d6:	ea80 0202 	eor.w	r2, r0, r2
 80002da:	ea81 0303 	eor.w	r3, r1, r3
 80002de:	ea82 0000 	eor.w	r0, r2, r0
 80002e2:	ea83 0101 	eor.w	r1, r3, r1
 80002e6:	ea80 0202 	eor.w	r2, r0, r2
 80002ea:	ea81 0303 	eor.w	r3, r1, r3
 80002ee:	2d36      	cmp	r5, #54	@ 0x36
 80002f0:	bf88      	it	hi
 80002f2:	bd30      	pophi	{r4, r5, pc}
 80002f4:	f011 4f00 	tst.w	r1, #2147483648	@ 0x80000000
 80002f8:	ea4f 3101 	mov.w	r1, r1, lsl #12
 80002fc:	f44f 1c80 	mov.w	ip, #1048576	@ 0x100000
 8000300:	ea4c 3111 	orr.w	r1, ip, r1, lsr #12
 8000304:	d002      	beq.n	800030c <__adddf3+0x70>
 8000306:	4240      	negs	r0, r0
 8000308:	eb61 0141 	sbc.w	r1, r1, r1, lsl #1
 800030c:	f013 4f00 	tst.w	r3, #2147483648	@ 0x80000000
 8000310:	ea4f 3303 	mov.w	r3, r3, lsl #12
 8000314:	ea4c 3313 	orr.w	r3, ip, r3, lsr #12
 8000318:	d002      	beq.n	8000320 <__adddf3+0x84>
 800031a:	4252      	negs	r2, r2
 800031c:	eb63 0343 	sbc.w	r3, r3, r3, lsl #1
 8000320:	ea94 0f05 	teq	r4, r5
 8000324:	f000 80a7 	beq.w	8000476 <__adddf3+0x1da>
 8000328:	f1a4 0401 	sub.w	r4, r4, #1
 800032c:	f1d5 0e20 	rsbs	lr, r5, #32
 8000330:	db0d      	blt.n	800034e <__adddf3+0xb2>
 8000332:	fa02 fc0e 	lsl.w	ip, r2, lr
 8000336:	fa22 f205 	lsr.w	r2, r2, r5
 800033a:	1880      	adds	r0, r0, r2
 800033c:	f141 0100 	adc.w	r1, r1, #0
 8000340:	fa03 f20e 	lsl.w	r2, r3, lr
 8000344:	1880      	adds	r0, r0, r2
 8000346:	fa43 f305 	asr.w	r3, r3, r5
 800034a:	4159      	adcs	r1, r3
 800034c:	e00e      	b.n	800036c <__adddf3+0xd0>
 800034e:	f1a5 0520 	sub.w	r5, r5, #32
 8000352:	f10e 0e20 	add.w	lr, lr, #32
 8000356:	2a01      	cmp	r2, #1
 8000358:	fa03 fc0e 	lsl.w	ip, r3, lr
 800035c:	bf28      	it	cs
 800035e:	f04c 0c02 	orrcs.w	ip, ip, #2
 8000362:	fa43 f305 	asr.w	r3, r3, r5
 8000366:	18c0      	adds	r0, r0, r3
 8000368:	eb51 71e3 	adcs.w	r1, r1, r3, asr #31
 800036c:	f001 4500 	and.w	r5, r1, #2147483648	@ 0x80000000
 8000370:	d507      	bpl.n	8000382 <__adddf3+0xe6>
 8000372:	f04f 0e00 	mov.w	lr, #0
 8000376:	f1dc 0c00 	rsbs	ip, ip, #0
 800037a:	eb7e 0000 	sbcs.w	r0, lr, r0
 800037e:	eb6e 0101 	sbc.w	r1, lr, r1
 8000382:	f5b1 1f80 	cmp.w	r1, #1048576	@ 0x100000
 8000386:	d31b      	bcc.n	80003c0 <__adddf3+0x124>
 8000388:	f5b1 1f00 	cmp.w	r1, #2097152	@ 0x200000
 800038c:	d30c      	bcc.n	80003a8 <__adddf3+0x10c>
 800038e:	0849      	lsrs	r1, r1, #1
 8000390:	ea5f 0030 	movs.w	r0, r0, rrx
 8000394:	ea4f 0c3c 	mov.w	ip, ip, rrx
 8000398:	f104 0401 	add.w	r4, r4, #1
 800039c:	ea4f 5244 	mov.w	r2, r4, lsl #21
 80003a0:	f512 0f80 	cmn.w	r2, #4194304	@ 0x400000
 80003a4:	f080 809a 	bcs.w	80004dc <__adddf3+0x240>
 80003a8:	f1bc 4f00 	cmp.w	ip, #2147483648	@ 0x80000000
 80003ac:	bf08      	it	eq
 80003ae:	ea5f 0c50 	movseq.w	ip, r0, lsr #1
 80003b2:	f150 0000 	adcs.w	r0, r0, #0
 80003b6:	eb41 5104 	adc.w	r1, r1, r4, lsl #20
 80003ba:	ea41 0105 	orr.w	r1, r1, r5
 80003be:	bd30      	pop	{r4, r5, pc}
 80003c0:	ea5f 0c4c 	movs.w	ip, ip, lsl #1
 80003c4:	4140      	adcs	r0, r0
 80003c6:	eb41 0101 	adc.w	r1, r1, r1
 80003ca:	3c01      	subs	r4, #1
 80003cc:	bf28      	it	cs
 80003ce:	f5b1 1f80 	cmpcs.w	r1, #1048576	@ 0x100000
 80003d2:	d2e9      	bcs.n	80003a8 <__adddf3+0x10c>
 80003d4:	f091 0f00 	teq	r1, #0
 80003d8:	bf04      	itt	eq
 80003da:	4601      	moveq	r1, r0
 80003dc:	2000      	moveq	r0, #0
 80003de:	fab1 f381 	clz	r3, r1
 80003e2:	bf08      	it	eq
 80003e4:	3320      	addeq	r3, #32
 80003e6:	f1a3 030b 	sub.w	r3, r3, #11
 80003ea:	f1b3 0220 	subs.w	r2, r3, #32
 80003ee:	da0c      	bge.n	800040a <__adddf3+0x16e>
 80003f0:	320c      	adds	r2, #12
 80003f2:	dd08      	ble.n	8000406 <__adddf3+0x16a>
 80003f4:	f102 0c14 	add.w	ip, r2, #20
 80003f8:	f1c2 020c 	rsb	r2, r2, #12
 80003fc:	fa01 f00c 	lsl.w	r0, r1, ip
 8000400:	fa21 f102 	lsr.w	r1, r1, r2
 8000404:	e00c      	b.n	8000420 <__adddf3+0x184>
 8000406:	f102 0214 	add.w	r2, r2, #20
 800040a:	bfd8      	it	le
 800040c:	f1c2 0c20 	rsble	ip, r2, #32
 8000410:	fa01 f102 	lsl.w	r1, r1, r2
 8000414:	fa20 fc0c 	lsr.w	ip, r0, ip
 8000418:	bfdc      	itt	le
 800041a:	ea41 010c 	orrle.w	r1, r1, ip
 800041e:	4090      	lslle	r0, r2
 8000420:	1ae4      	subs	r4, r4, r3
 8000422:	bfa2      	ittt	ge
 8000424:	eb01 5104 	addge.w	r1, r1, r4, lsl #20
 8000428:	4329      	orrge	r1, r5
 800042a:	bd30      	popge	{r4, r5, pc}
 800042c:	ea6f 0404 	mvn.w	r4, r4
 8000430:	3c1f      	subs	r4, #31
 8000432:	da1c      	bge.n	800046e <__adddf3+0x1d2>
 8000434:	340c      	adds	r4, #12
 8000436:	dc0e      	bgt.n	8000456 <__adddf3+0x1ba>
 8000438:	f104 0414 	add.w	r4, r4, #20
 800043c:	f1c4 0220 	rsb	r2, r4, #32
 8000440:	fa20 f004 	lsr.w	r0, r0, r4
 8000444:	fa01 f302 	lsl.w	r3, r1, r2
 8000448:	ea40 0003 	orr.w	r0, r0, r3
 800044c:	fa21 f304 	lsr.w	r3, r1, r4
 8000450:	ea45 0103 	orr.w	r1, r5, r3
 8000454:	bd30      	pop	{r4, r5, pc}
 8000456:	f1c4 040c 	rsb	r4, r4, #12
 800045a:	f1c4 0220 	rsb	r2, r4, #32
 800045e:	fa20 f002 	lsr.w	r0, r0, r2
 8000462:	fa01 f304 	lsl.w	r3, r1, r4
 8000466:	ea40 0003 	orr.w	r0, r0, r3
 800046a:	4629      	mov	r1, r5
 800046c:	bd30      	pop	{r4, r5, pc}
 800046e:	fa21 f004 	lsr.w	r0, r1, r4
 8000472:	4629      	mov	r1, r5
 8000474:	bd30      	pop	{r4, r5, pc}
 8000476:	f094 0f00 	teq	r4, #0
 800047a:	f483 1380 	eor.w	r3, r3, #1048576	@ 0x100000
 800047e:	bf06      	itte	eq
 8000480:	f481 1180 	eoreq.w	r1, r1, #1048576	@ 0x100000
 8000484:	3401      	addeq	r4, #1
 8000486:	3d01      	subne	r5, #1
 8000488:	e74e      	b.n	8000328 <__adddf3+0x8c>
 800048a:	ea7f 5c64 	mvns.w	ip, r4, asr #21
 800048e:	bf18      	it	ne
 8000490:	ea7f 5c65 	mvnsne.w	ip, r5, asr #21
 8000494:	d029      	beq.n	80004ea <__adddf3+0x24e>
 8000496:	ea94 0f05 	teq	r4, r5
 800049a:	bf08      	it	eq
 800049c:	ea90 0f02 	teqeq	r0, r2
 80004a0:	d005      	beq.n	80004ae <__adddf3+0x212>
 80004a2:	ea54 0c00 	orrs.w	ip, r4, r0
 80004a6:	bf04      	itt	eq
 80004a8:	4619      	moveq	r1, r3
 80004aa:	4610      	moveq	r0, r2
 80004ac:	bd30      	pop	{r4, r5, pc}
 80004ae:	ea91 0f03 	teq	r1, r3
 80004b2:	bf1e      	ittt	ne
 80004b4:	2100      	movne	r1, #0
 80004b6:	2000      	movne	r0, #0
 80004b8:	bd30      	popne	{r4, r5, pc}
 80004ba:	ea5f 5c54 	movs.w	ip, r4, lsr #21
 80004be:	d105      	bne.n	80004cc <__adddf3+0x230>
 80004c0:	0040      	lsls	r0, r0, #1
 80004c2:	4149      	adcs	r1, r1
 80004c4:	bf28      	it	cs
 80004c6:	f041 4100 	orrcs.w	r1, r1, #2147483648	@ 0x80000000
 80004ca:	bd30      	pop	{r4, r5, pc}
 80004cc:	f514 0480 	adds.w	r4, r4, #4194304	@ 0x400000
 80004d0:	bf3c      	itt	cc
 80004d2:	f501 1180 	addcc.w	r1, r1, #1048576	@ 0x100000
 80004d6:	bd30      	popcc	{r4, r5, pc}
 80004d8:	f001 4500 	and.w	r5, r1, #2147483648	@ 0x80000000
 80004dc:	f045 41fe 	orr.w	r1, r5, #2130706432	@ 0x7f000000
 80004e0:	f441 0170 	orr.w	r1, r1, #15728640	@ 0xf00000
 80004e4:	f04f 0000 	mov.w	r0, #0
 80004e8:	bd30      	pop	{r4, r5, pc}
 80004ea:	ea7f 5c64 	mvns.w	ip, r4, asr #21
 80004ee:	bf1a      	itte	ne
 80004f0:	4619      	movne	r1, r3
 80004f2:	4610      	movne	r0, r2
 80004f4:	ea7f 5c65 	mvnseq.w	ip, r5, asr #21
 80004f8:	bf1c      	itt	ne
 80004fa:	460b      	movne	r3, r1
 80004fc:	4602      	movne	r2, r0
 80004fe:	ea50 3401 	orrs.w	r4, r0, r1, lsl #12
 8000502:	bf06      	itte	eq
 8000504:	ea52 3503 	orrseq.w	r5, r2, r3, lsl #12
 8000508:	ea91 0f03 	teqeq	r1, r3
 800050c:	f441 2100 	orrne.w	r1, r1, #524288	@ 0x80000
 8000510:	bd30      	pop	{r4, r5, pc}
 8000512:	bf00      	nop

08000514 <__aeabi_ui2d>:
 8000514:	f090 0f00 	teq	r0, #0
 8000518:	bf04      	itt	eq
 800051a:	2100      	moveq	r1, #0
 800051c:	4770      	bxeq	lr
 800051e:	b530      	push	{r4, r5, lr}
 8000520:	f44f 6480 	mov.w	r4, #1024	@ 0x400
 8000524:	f104 0432 	add.w	r4, r4, #50	@ 0x32
 8000528:	f04f 0500 	mov.w	r5, #0
 800052c:	f04f 0100 	mov.w	r1, #0
 8000530:	e750      	b.n	80003d4 <__adddf3+0x138>
 8000532:	bf00      	nop

08000534 <__aeabi_i2d>:
 8000534:	f090 0f00 	teq	r0, #0
 8000538:	bf04      	itt	eq
 800053a:	2100      	moveq	r1, #0
 800053c:	4770      	bxeq	lr
 800053e:	b530      	push	{r4, r5, lr}
 8000540:	f44f 6480 	mov.w	r4, #1024	@ 0x400
 8000544:	f104 0432 	add.w	r4, r4, #50	@ 0x32
 8000548:	f010 4500 	ands.w	r5, r0, #2147483648	@ 0x80000000
 800054c:	bf48      	it	mi
 800054e:	4240      	negmi	r0, r0
 8000550:	f04f 0100 	mov.w	r1, #0
 8000554:	e73e      	b.n	80003d4 <__adddf3+0x138>
 8000556:	bf00      	nop

08000558 <__aeabi_f2d>:
 8000558:	0042      	lsls	r2, r0, #1
 800055a:	ea4f 01e2 	mov.w	r1, r2, asr #3
 800055e:	ea4f 0131 	mov.w	r1, r1, rrx
 8000562:	ea4f 7002 	mov.w	r0, r2, lsl #28
 8000566:	bf1f      	itttt	ne
 8000568:	f012 437f 	andsne.w	r3, r2, #4278190080	@ 0xff000000
 800056c:	f093 4f7f 	teqne	r3, #4278190080	@ 0xff000000
 8000570:	f081 5160 	eorne.w	r1, r1, #939524096	@ 0x38000000
 8000574:	4770      	bxne	lr
 8000576:	f032 427f 	bics.w	r2, r2, #4278190080	@ 0xff000000
 800057a:	bf08      	it	eq
 800057c:	4770      	bxeq	lr
 800057e:	f093 4f7f 	teq	r3, #4278190080	@ 0xff000000
 8000582:	bf04      	itt	eq
 8000584:	f441 2100 	orreq.w	r1, r1, #524288	@ 0x80000
 8000588:	4770      	bxeq	lr
 800058a:	b530      	push	{r4, r5, lr}
 800058c:	f44f 7460 	mov.w	r4, #896	@ 0x380
 8000590:	f001 4500 	and.w	r5, r1, #2147483648	@ 0x80000000
 8000594:	f021 4100 	bic.w	r1, r1, #2147483648	@ 0x80000000
 8000598:	e71c      	b.n	80003d4 <__adddf3+0x138>
 800059a:	bf00      	nop

0800059c <__aeabi_ul2d>:
 800059c:	ea50 0201 	orrs.w	r2, r0, r1
 80005a0:	bf08      	it	eq
 80005a2:	4770      	bxeq	lr
 80005a4:	b530      	push	{r4, r5, lr}
 80005a6:	f04f 0500 	mov.w	r5, #0
 80005aa:	e00a      	b.n	80005c2 <__aeabi_l2d+0x16>

080005ac <__aeabi_l2d>:
 80005ac:	ea50 0201 	orrs.w	r2, r0, r1
 80005b0:	bf08      	it	eq
 80005b2:	4770      	bxeq	lr
 80005b4:	b530      	push	{r4, r5, lr}
 80005b6:	f011 4500 	ands.w	r5, r1, #2147483648	@ 0x80000000
 80005ba:	d502      	bpl.n	80005c2 <__aeabi_l2d+0x16>
 80005bc:	4240      	negs	r0, r0
 80005be:	eb61 0141 	sbc.w	r1, r1, r1, lsl #1
 80005c2:	f44f 6480 	mov.w	r4, #1024	@ 0x400
 80005c6:	f104 0432 	add.w	r4, r4, #50	@ 0x32
 80005ca:	ea5f 5c91 	movs.w	ip, r1, lsr #22
 80005ce:	f43f aed8 	beq.w	8000382 <__adddf3+0xe6>
 80005d2:	f04f 0203 	mov.w	r2, #3
 80005d6:	ea5f 0cdc 	movs.w	ip, ip, lsr #3
 80005da:	bf18      	it	ne
 80005dc:	3203      	addne	r2, #3
 80005de:	ea5f 0cdc 	movs.w	ip, ip, lsr #3
 80005e2:	bf18      	it	ne
 80005e4:	3203      	addne	r2, #3
 80005e6:	eb02 02dc 	add.w	r2, r2, ip, lsr #3
 80005ea:	f1c2 0320 	rsb	r3, r2, #32
 80005ee:	fa00 fc03 	lsl.w	ip, r0, r3
 80005f2:	fa20 f002 	lsr.w	r0, r0, r2
 80005f6:	fa01 fe03 	lsl.w	lr, r1, r3
 80005fa:	ea40 000e 	orr.w	r0, r0, lr
 80005fe:	fa21 f102 	lsr.w	r1, r1, r2
 8000602:	4414      	add	r4, r2
 8000604:	e6bd      	b.n	8000382 <__adddf3+0xe6>
 8000606:	bf00      	nop

08000608 <__aeabi_dmul>:
 8000608:	b570      	push	{r4, r5, r6, lr}
 800060a:	f04f 0cff 	mov.w	ip, #255	@ 0xff
 800060e:	f44c 6ce0 	orr.w	ip, ip, #1792	@ 0x700
 8000612:	ea1c 5411 	ands.w	r4, ip, r1, lsr #20
 8000616:	bf1d      	ittte	ne
 8000618:	ea1c 5513 	andsne.w	r5, ip, r3, lsr #20
 800061c:	ea94 0f0c 	teqne	r4, ip
 8000620:	ea95 0f0c 	teqne	r5, ip
 8000624:	f000 f8de 	bleq	80007e4 <__aeabi_dmul+0x1dc>
 8000628:	442c      	add	r4, r5
 800062a:	ea81 0603 	eor.w	r6, r1, r3
 800062e:	ea21 514c 	bic.w	r1, r1, ip, lsl #21
 8000632:	ea23 534c 	bic.w	r3, r3, ip, lsl #21
 8000636:	ea50 3501 	orrs.w	r5, r0, r1, lsl #12
 800063a:	bf18      	it	ne
 800063c:	ea52 3503 	orrsne.w	r5, r2, r3, lsl #12
 8000640:	f441 1180 	orr.w	r1, r1, #1048576	@ 0x100000
 8000644:	f443 1380 	orr.w	r3, r3, #1048576	@ 0x100000
 8000648:	d038      	beq.n	80006bc <__aeabi_dmul+0xb4>
 800064a:	fba0 ce02 	umull	ip, lr, r0, r2
 800064e:	f04f 0500 	mov.w	r5, #0
 8000652:	fbe1 e502 	umlal	lr, r5, r1, r2
 8000656:	f006 4200 	and.w	r2, r6, #2147483648	@ 0x80000000
 800065a:	fbe0 e503 	umlal	lr, r5, r0, r3
 800065e:	f04f 0600 	mov.w	r6, #0
 8000662:	fbe1 5603 	umlal	r5, r6, r1, r3
 8000666:	f09c 0f00 	teq	ip, #0
 800066a:	bf18      	it	ne
 800066c:	f04e 0e01 	orrne.w	lr, lr, #1
 8000670:	f1a4 04ff 	sub.w	r4, r4, #255	@ 0xff
 8000674:	f5b6 7f00 	cmp.w	r6, #512	@ 0x200
 8000678:	f564 7440 	sbc.w	r4, r4, #768	@ 0x300
 800067c:	d204      	bcs.n	8000688 <__aeabi_dmul+0x80>
 800067e:	ea5f 0e4e 	movs.w	lr, lr, lsl #1
 8000682:	416d      	adcs	r5, r5
 8000684:	eb46 0606 	adc.w	r6, r6, r6
 8000688:	ea42 21c6 	orr.w	r1, r2, r6, lsl #11
 800068c:	ea41 5155 	orr.w	r1, r1, r5, lsr #21
 8000690:	ea4f 20c5 	mov.w	r0, r5, lsl #11
 8000694:	ea40 505e 	orr.w	r0, r0, lr, lsr #21
 8000698:	ea4f 2ece 	mov.w	lr, lr, lsl #11
 800069c:	f1b4 0cfd 	subs.w	ip, r4, #253	@ 0xfd
 80006a0:	bf88      	it	hi
 80006a2:	f5bc 6fe0 	cmphi.w	ip, #1792	@ 0x700
 80006a6:	d81e      	bhi.n	80006e6 <__aeabi_dmul+0xde>
 80006a8:	f1be 4f00 	cmp.w	lr, #2147483648	@ 0x80000000
 80006ac:	bf08      	it	eq
 80006ae:	ea5f 0e50 	movseq.w	lr, r0, lsr #1
 80006b2:	f150 0000 	adcs.w	r0, r0, #0
 80006b6:	eb41 5104 	adc.w	r1, r1, r4, lsl #20
 80006ba:	bd70      	pop	{r4, r5, r6, pc}
 80006bc:	f006 4600 	and.w	r6, r6, #2147483648	@ 0x80000000
 80006c0:	ea46 0101 	orr.w	r1, r6, r1
 80006c4:	ea40 0002 	orr.w	r0, r0, r2
 80006c8:	ea81 0103 	eor.w	r1, r1, r3
 80006cc:	ebb4 045c 	subs.w	r4, r4, ip, lsr #1
 80006d0:	bfc2      	ittt	gt
 80006d2:	ebd4 050c 	rsbsgt	r5, r4, ip
 80006d6:	ea41 5104 	orrgt.w	r1, r1, r4, lsl #20
 80006da:	bd70      	popgt	{r4, r5, r6, pc}
 80006dc:	f441 1180 	orr.w	r1, r1, #1048576	@ 0x100000
 80006e0:	f04f 0e00 	mov.w	lr, #0
 80006e4:	3c01      	subs	r4, #1
 80006e6:	f300 80ab 	bgt.w	8000840 <__aeabi_dmul+0x238>
 80006ea:	f114 0f36 	cmn.w	r4, #54	@ 0x36
 80006ee:	bfde      	ittt	le
 80006f0:	2000      	movle	r0, #0
 80006f2:	f001 4100 	andle.w	r1, r1, #2147483648	@ 0x80000000
 80006f6:	bd70      	pople	{r4, r5, r6, pc}
 80006f8:	f1c4 0400 	rsb	r4, r4, #0
 80006fc:	3c20      	subs	r4, #32
 80006fe:	da35      	bge.n	800076c <__aeabi_dmul+0x164>
 8000700:	340c      	adds	r4, #12
 8000702:	dc1b      	bgt.n	800073c <__aeabi_dmul+0x134>
 8000704:	f104 0414 	add.w	r4, r4, #20
 8000708:	f1c4 0520 	rsb	r5, r4, #32
 800070c:	fa00 f305 	lsl.w	r3, r0, r5
 8000710:	fa20 f004 	lsr.w	r0, r0, r4
 8000714:	fa01 f205 	lsl.w	r2, r1, r5
 8000718:	ea40 0002 	orr.w	r0, r0, r2
 800071c:	f001 4200 	and.w	r2, r1, #2147483648	@ 0x80000000
 8000720:	f021 4100 	bic.w	r1, r1, #2147483648	@ 0x80000000
 8000724:	eb10 70d3 	adds.w	r0, r0, r3, lsr #31
 8000728:	fa21 f604 	lsr.w	r6, r1, r4
 800072c:	eb42 0106 	adc.w	r1, r2, r6
 8000730:	ea5e 0e43 	orrs.w	lr, lr, r3, lsl #1
 8000734:	bf08      	it	eq
 8000736:	ea20 70d3 	biceq.w	r0, r0, r3, lsr #31
 800073a:	bd70      	pop	{r4, r5, r6, pc}
 800073c:	f1c4 040c 	rsb	r4, r4, #12
 8000740:	f1c4 0520 	rsb	r5, r4, #32
 8000744:	fa00 f304 	lsl.w	r3, r0, r4
 8000748:	fa20 f005 	lsr.w	r0, r0, r5
 800074c:	fa01 f204 	lsl.w	r2, r1, r4
 8000750:	ea40 0002 	orr.w	r0, r0, r2
 8000754:	f001 4100 	and.w	r1, r1, #2147483648	@ 0x80000000
 8000758:	eb10 70d3 	adds.w	r0, r0, r3, lsr #31
 800075c:	f141 0100 	adc.w	r1, r1, #0
 8000760:	ea5e 0e43 	orrs.w	lr, lr, r3, lsl #1
 8000764:	bf08      	it	eq
 8000766:	ea20 70d3 	biceq.w	r0, r0, r3, lsr #31
 800076a:	bd70      	pop	{r4, r5, r6, pc}
 800076c:	f1c4 0520 	rsb	r5, r4, #32
 8000770:	fa00 f205 	lsl.w	r2, r0, r5
 8000774:	ea4e 0e02 	orr.w	lr, lr, r2
 8000778:	fa20 f304 	lsr.w	r3, r0, r4
 800077c:	fa01 f205 	lsl.w	r2, r1, r5
 8000780:	ea43 0302 	orr.w	r3, r3, r2
 8000784:	fa21 f004 	lsr.w	r0, r1, r4
 8000788:	f001 4100 	and.w	r1, r1, #2147483648	@ 0x80000000
 800078c:	fa21 f204 	lsr.w	r2, r1, r4
 8000790:	ea20 0002 	bic.w	r0, r0, r2
 8000794:	eb00 70d3 	add.w	r0, r0, r3, lsr #31
 8000798:	ea5e 0e43 	orrs.w	lr, lr, r3, lsl #1
 800079c:	bf08      	it	eq
 800079e:	ea20 70d3 	biceq.w	r0, r0, r3, lsr #31
 80007a2:	bd70      	pop	{r4, r5, r6, pc}
 80007a4:	f094 0f00 	teq	r4, #0
 80007a8:	d10f      	bne.n	80007ca <__aeabi_dmul+0x1c2>
 80007aa:	f001 4600 	and.w	r6, r1, #2147483648	@ 0x80000000
 80007ae:	0040      	lsls	r0, r0, #1
 80007b0:	eb41 0101 	adc.w	r1, r1, r1
 80007b4:	f411 1f80 	tst.w	r1, #1048576	@ 0x100000
 80007b8:	bf08      	it	eq
 80007ba:	3c01      	subeq	r4, #1
 80007bc:	d0f7      	beq.n	80007ae <__aeabi_dmul+0x1a6>
 80007be:	ea41 0106 	orr.w	r1, r1, r6
 80007c2:	f095 0f00 	teq	r5, #0
 80007c6:	bf18      	it	ne
 80007c8:	4770      	bxne	lr
 80007ca:	f003 4600 	and.w	r6, r3, #2147483648	@ 0x80000000
 80007ce:	0052      	lsls	r2, r2, #1
 80007d0:	eb43 0303 	adc.w	r3, r3, r3
 80007d4:	f413 1f80 	tst.w	r3, #1048576	@ 0x100000
 80007d8:	bf08      	it	eq
 80007da:	3d01      	subeq	r5, #1
 80007dc:	d0f7      	beq.n	80007ce <__aeabi_dmul+0x1c6>
 80007de:	ea43 0306 	orr.w	r3, r3, r6
 80007e2:	4770      	bx	lr
 80007e4:	ea94 0f0c 	teq	r4, ip
 80007e8:	ea0c 5513 	and.w	r5, ip, r3, lsr #20
 80007ec:	bf18      	it	ne
 80007ee:	ea95 0f0c 	teqne	r5, ip
 80007f2:	d00c      	beq.n	800080e <__aeabi_dmul+0x206>
 80007f4:	ea50 0641 	orrs.w	r6, r0, r1, lsl #1
 80007f8:	bf18      	it	ne
 80007fa:	ea52 0643 	orrsne.w	r6, r2, r3, lsl #1
 80007fe:	d1d1      	bne.n	80007a4 <__aeabi_dmul+0x19c>
 8000800:	ea81 0103 	eor.w	r1, r1, r3
 8000804:	f001 4100 	and.w	r1, r1, #2147483648	@ 0x80000000
 8000808:	f04f 0000 	mov.w	r0, #0
 800080c:	bd70      	pop	{r4, r5, r6, pc}
 800080e:	ea50 0641 	orrs.w	r6, r0, r1, lsl #1
 8000812:	bf06      	itte	eq
 8000814:	4610      	moveq	r0, r2
 8000816:	4619      	moveq	r1, r3
 8000818:	ea52 0643 	orrsne.w	r6, r2, r3, lsl #1
 800081c:	d019      	beq.n	8000852 <__aeabi_dmul+0x24a>
 800081e:	ea94 0f0c 	teq	r4, ip
 8000822:	d102      	bne.n	800082a <__aeabi_dmul+0x222>
 8000824:	ea50 3601 	orrs.w	r6, r0, r1, lsl #12
 8000828:	d113      	bne.n	8000852 <__aeabi_dmul+0x24a>
 800082a:	ea95 0f0c 	teq	r5, ip
 800082e:	d105      	bne.n	800083c <__aeabi_dmul+0x234>
 8000830:	ea52 3603 	orrs.w	r6, r2, r3, lsl #12
 8000834:	bf1c      	itt	ne
 8000836:	4610      	movne	r0, r2
 8000838:	4619      	movne	r1, r3
 800083a:	d10a      	bne.n	8000852 <__aeabi_dmul+0x24a>
 800083c:	ea81 0103 	eor.w	r1, r1, r3
 8000840:	f001 4100 	and.w	r1, r1, #2147483648	@ 0x80000000
 8000844:	f041 41fe 	orr.w	r1, r1, #2130706432	@ 0x7f000000
 8000848:	f441 0170 	orr.w	r1, r1, #15728640	@ 0xf00000
 800084c:	f04f 0000 	mov.w	r0, #0
 8000850:	bd70      	pop	{r4, r5, r6, pc}
 8000852:	f041 41fe 	orr.w	r1, r1, #2130706432	@ 0x7f000000
 8000856:	f441 0178 	orr.w	r1, r1, #16252928	@ 0xf80000
 800085a:	bd70      	pop	{r4, r5, r6, pc}

0800085c <__aeabi_ddiv>:
 800085c:	b570      	push	{r4, r5, r6, lr}
 800085e:	f04f 0cff 	mov.w	ip, #255	@ 0xff
 8000862:	f44c 6ce0 	orr.w	ip, ip, #1792	@ 0x700
 8000866:	ea1c 5411 	ands.w	r4, ip, r1, lsr #20
 800086a:	bf1d      	ittte	ne
 800086c:	ea1c 5513 	andsne.w	r5, ip, r3, lsr #20
 8000870:	ea94 0f0c 	teqne	r4, ip
 8000874:	ea95 0f0c 	teqne	r5, ip
 8000878:	f000 f8a7 	bleq	80009ca <__aeabi_ddiv+0x16e>
 800087c:	eba4 0405 	sub.w	r4, r4, r5
 8000880:	ea81 0e03 	eor.w	lr, r1, r3
 8000884:	ea52 3503 	orrs.w	r5, r2, r3, lsl #12
 8000888:	ea4f 3101 	mov.w	r1, r1, lsl #12
 800088c:	f000 8088 	beq.w	80009a0 <__aeabi_ddiv+0x144>
 8000890:	ea4f 3303 	mov.w	r3, r3, lsl #12
 8000894:	f04f 5580 	mov.w	r5, #268435456	@ 0x10000000
 8000898:	ea45 1313 	orr.w	r3, r5, r3, lsr #4
 800089c:	ea43 6312 	orr.w	r3, r3, r2, lsr #24
 80008a0:	ea4f 2202 	mov.w	r2, r2, lsl #8
 80008a4:	ea45 1511 	orr.w	r5, r5, r1, lsr #4
 80008a8:	ea45 6510 	orr.w	r5, r5, r0, lsr #24
 80008ac:	ea4f 2600 	mov.w	r6, r0, lsl #8
 80008b0:	f00e 4100 	and.w	r1, lr, #2147483648	@ 0x80000000
 80008b4:	429d      	cmp	r5, r3
 80008b6:	bf08      	it	eq
 80008b8:	4296      	cmpeq	r6, r2
 80008ba:	f144 04fd 	adc.w	r4, r4, #253	@ 0xfd
 80008be:	f504 7440 	add.w	r4, r4, #768	@ 0x300
 80008c2:	d202      	bcs.n	80008ca <__aeabi_ddiv+0x6e>
 80008c4:	085b      	lsrs	r3, r3, #1
 80008c6:	ea4f 0232 	mov.w	r2, r2, rrx
 80008ca:	1ab6      	subs	r6, r6, r2
 80008cc:	eb65 0503 	sbc.w	r5, r5, r3
 80008d0:	085b      	lsrs	r3, r3, #1
 80008d2:	ea4f 0232 	mov.w	r2, r2, rrx
 80008d6:	f44f 1080 	mov.w	r0, #1048576	@ 0x100000
 80008da:	f44f 2c00 	mov.w	ip, #524288	@ 0x80000
 80008de:	ebb6 0e02 	subs.w	lr, r6, r2
 80008e2:	eb75 0e03 	sbcs.w	lr, r5, r3
 80008e6:	bf22      	ittt	cs
 80008e8:	1ab6      	subcs	r6, r6, r2
 80008ea:	4675      	movcs	r5, lr
 80008ec:	ea40 000c 	orrcs.w	r0, r0, ip
 80008f0:	085b      	lsrs	r3, r3, #1
 80008f2:	ea4f 0232 	mov.w	r2, r2, rrx
 80008f6:	ebb6 0e02 	subs.w	lr, r6, r2
 80008fa:	eb75 0e03 	sbcs.w	lr, r5, r3
 80008fe:	bf22      	ittt	cs
 8000900:	1ab6      	subcs	r6, r6, r2
 8000902:	4675      	movcs	r5, lr
 8000904:	ea40 005c 	orrcs.w	r0, r0, ip, lsr #1
 8000908:	085b      	lsrs	r3, r3, #1
 800090a:	ea4f 0232 	mov.w	r2, r2, rrx
 800090e:	ebb6 0e02 	subs.w	lr, r6, r2
 8000912:	eb75 0e03 	sbcs.w	lr, r5, r3
 8000916:	bf22      	ittt	cs
 8000918:	1ab6      	subcs	r6, r6, r2
 800091a:	4675      	movcs	r5, lr
 800091c:	ea40 009c 	orrcs.w	r0, r0, ip, lsr #2
 8000920:	085b      	lsrs	r3, r3, #1
 8000922:	ea4f 0232 	mov.w	r2, r2, rrx
 8000926:	ebb6 0e02 	subs.w	lr, r6, r2
 800092a:	eb75 0e03 	sbcs.w	lr, r5, r3
 800092e:	bf22      	ittt	cs
 8000930:	1ab6      	subcs	r6, r6, r2
 8000932:	4675      	movcs	r5, lr
 8000934:	ea40 00dc 	orrcs.w	r0, r0, ip, lsr #3
 8000938:	ea55 0e06 	orrs.w	lr, r5, r6
 800093c:	d018      	beq.n	8000970 <__aeabi_ddiv+0x114>
 800093e:	ea4f 1505 	mov.w	r5, r5, lsl #4
 8000942:	ea45 7516 	orr.w	r5, r5, r6, lsr #28
 8000946:	ea4f 1606 	mov.w	r6, r6, lsl #4
 800094a:	ea4f 03c3 	mov.w	r3, r3, lsl #3
 800094e:	ea43 7352 	orr.w	r3, r3, r2, lsr #29
 8000952:	ea4f 02c2 	mov.w	r2, r2, lsl #3
 8000956:	ea5f 1c1c 	movs.w	ip, ip, lsr #4
 800095a:	d1c0      	bne.n	80008de <__aeabi_ddiv+0x82>
 800095c:	f411 1f80 	tst.w	r1, #1048576	@ 0x100000
 8000960:	d10b      	bne.n	800097a <__aeabi_ddiv+0x11e>
 8000962:	ea41 0100 	orr.w	r1, r1, r0
 8000966:	f04f 0000 	mov.w	r0, #0
 800096a:	f04f 4c00 	mov.w	ip, #2147483648	@ 0x80000000
 800096e:	e7b6      	b.n	80008de <__aeabi_ddiv+0x82>
 8000970:	f411 1f80 	tst.w	r1, #1048576	@ 0x100000
 8000974:	bf04      	itt	eq
 8000976:	4301      	orreq	r1, r0
 8000978:	2000      	moveq	r0, #0
 800097a:	f1b4 0cfd 	subs.w	ip, r4, #253	@ 0xfd
 800097e:	bf88      	it	hi
 8000980:	f5bc 6fe0 	cmphi.w	ip, #1792	@ 0x700
 8000984:	f63f aeaf 	bhi.w	80006e6 <__aeabi_dmul+0xde>
 8000988:	ebb5 0c03 	subs.w	ip, r5, r3
 800098c:	bf04      	itt	eq
 800098e:	ebb6 0c02 	subseq.w	ip, r6, r2
 8000992:	ea5f 0c50 	movseq.w	ip, r0, lsr #1
 8000996:	f150 0000 	adcs.w	r0, r0, #0
 800099a:	eb41 5104 	adc.w	r1, r1, r4, lsl #20
 800099e:	bd70      	pop	{r4, r5, r6, pc}
 80009a0:	f00e 4e00 	and.w	lr, lr, #2147483648	@ 0x80000000
 80009a4:	ea4e 3111 	orr.w	r1, lr, r1, lsr #12
 80009a8:	eb14 045c 	adds.w	r4, r4, ip, lsr #1
 80009ac:	bfc2      	ittt	gt
 80009ae:	ebd4 050c 	rsbsgt	r5, r4, ip
 80009b2:	ea41 5104 	orrgt.w	r1, r1, r4, lsl #20
 80009b6:	bd70      	popgt	{r4, r5, r6, pc}
 80009b8:	f441 1180 	orr.w	r1, r1, #1048576	@ 0x100000
 80009bc:	f04f 0e00 	mov.w	lr, #0
 80009c0:	3c01      	subs	r4, #1
 80009c2:	e690      	b.n	80006e6 <__aeabi_dmul+0xde>
 80009c4:	ea45 0e06 	orr.w	lr, r5, r6
 80009c8:	e68d      	b.n	80006e6 <__aeabi_dmul+0xde>
 80009ca:	ea0c 5513 	and.w	r5, ip, r3, lsr #20
 80009ce:	ea94 0f0c 	teq	r4, ip
 80009d2:	bf08      	it	eq
 80009d4:	ea95 0f0c 	teqeq	r5, ip
 80009d8:	f43f af3b 	beq.w	8000852 <__aeabi_dmul+0x24a>
 80009dc:	ea94 0f0c 	teq	r4, ip
 80009e0:	d10a      	bne.n	80009f8 <__aeabi_ddiv+0x19c>
 80009e2:	ea50 3401 	orrs.w	r4, r0, r1, lsl #12
 80009e6:	f47f af34 	bne.w	8000852 <__aeabi_dmul+0x24a>
 80009ea:	ea95 0f0c 	teq	r5, ip
 80009ee:	f47f af25 	bne.w	800083c <__aeabi_dmul+0x234>
 80009f2:	4610      	mov	r0, r2
 80009f4:	4619      	mov	r1, r3
 80009f6:	e72c      	b.n	8000852 <__aeabi_dmul+0x24a>
 80009f8:	ea95 0f0c 	teq	r5, ip
 80009fc:	d106      	bne.n	8000a0c <__aeabi_ddiv+0x1b0>
 80009fe:	ea52 3503 	orrs.w	r5, r2, r3, lsl #12
 8000a02:	f43f aefd 	beq.w	8000800 <__aeabi_dmul+0x1f8>
 8000a06:	4610      	mov	r0, r2
 8000a08:	4619      	mov	r1, r3
 8000a0a:	e722      	b.n	8000852 <__aeabi_dmul+0x24a>
 8000a0c:	ea50 0641 	orrs.w	r6, r0, r1, lsl #1
 8000a10:	bf18      	it	ne
 8000a12:	ea52 0643 	orrsne.w	r6, r2, r3, lsl #1
 8000a16:	f47f aec5 	bne.w	80007a4 <__aeabi_dmul+0x19c>
 8000a1a:	ea50 0441 	orrs.w	r4, r0, r1, lsl #1
 8000a1e:	f47f af0d 	bne.w	800083c <__aeabi_dmul+0x234>
 8000a22:	ea52 0543 	orrs.w	r5, r2, r3, lsl #1
 8000a26:	f47f aeeb 	bne.w	8000800 <__aeabi_dmul+0x1f8>
 8000a2a:	e712      	b.n	8000852 <__aeabi_dmul+0x24a>

08000a2c <__gedf2>:
 8000a2c:	f04f 3cff 	mov.w	ip, #4294967295
 8000a30:	e006      	b.n	8000a40 <__cmpdf2+0x4>
 8000a32:	bf00      	nop

08000a34 <__ledf2>:
 8000a34:	f04f 0c01 	mov.w	ip, #1
 8000a38:	e002      	b.n	8000a40 <__cmpdf2+0x4>
 8000a3a:	bf00      	nop

08000a3c <__cmpdf2>:
 8000a3c:	f04f 0c01 	mov.w	ip, #1
 8000a40:	f84d cd04 	str.w	ip, [sp, #-4]!
 8000a44:	ea4f 0c41 	mov.w	ip, r1, lsl #1
 8000a48:	ea7f 5c6c 	mvns.w	ip, ip, asr #21
 8000a4c:	ea4f 0c43 	mov.w	ip, r3, lsl #1
 8000a50:	bf18      	it	ne
 8000a52:	ea7f 5c6c 	mvnsne.w	ip, ip, asr #21
 8000a56:	d01b      	beq.n	8000a90 <__cmpdf2+0x54>
 8000a58:	b001      	add	sp, #4
 8000a5a:	ea50 0c41 	orrs.w	ip, r0, r1, lsl #1
 8000a5e:	bf0c      	ite	eq
 8000a60:	ea52 0c43 	orrseq.w	ip, r2, r3, lsl #1
 8000a64:	ea91 0f03 	teqne	r1, r3
 8000a68:	bf02      	ittt	eq
 8000a6a:	ea90 0f02 	teqeq	r0, r2
 8000a6e:	2000      	moveq	r0, #0
 8000a70:	4770      	bxeq	lr
 8000a72:	f110 0f00 	cmn.w	r0, #0
 8000a76:	ea91 0f03 	teq	r1, r3
 8000a7a:	bf58      	it	pl
 8000a7c:	4299      	cmppl	r1, r3
 8000a7e:	bf08      	it	eq
 8000a80:	4290      	cmpeq	r0, r2
 8000a82:	bf2c      	ite	cs
 8000a84:	17d8      	asrcs	r0, r3, #31
 8000a86:	ea6f 70e3 	mvncc.w	r0, r3, asr #31
 8000a8a:	f040 0001 	orr.w	r0, r0, #1
 8000a8e:	4770      	bx	lr
 8000a90:	ea4f 0c41 	mov.w	ip, r1, lsl #1
 8000a94:	ea7f 5c6c 	mvns.w	ip, ip, asr #21
 8000a98:	d102      	bne.n	8000aa0 <__cmpdf2+0x64>
 8000a9a:	ea50 3c01 	orrs.w	ip, r0, r1, lsl #12
 8000a9e:	d107      	bne.n	8000ab0 <__cmpdf2+0x74>
 8000aa0:	ea4f 0c43 	mov.w	ip, r3, lsl #1
 8000aa4:	ea7f 5c6c 	mvns.w	ip, ip, asr #21
 8000aa8:	d1d6      	bne.n	8000a58 <__cmpdf2+0x1c>
 8000aaa:	ea52 3c03 	orrs.w	ip, r2, r3, lsl #12
 8000aae:	d0d3      	beq.n	8000a58 <__cmpdf2+0x1c>
 8000ab0:	f85d 0b04 	ldr.w	r0, [sp], #4
 8000ab4:	4770      	bx	lr
 8000ab6:	bf00      	nop

08000ab8 <__aeabi_cdrcmple>:
 8000ab8:	4684      	mov	ip, r0
 8000aba:	4610      	mov	r0, r2
 8000abc:	4662      	mov	r2, ip
 8000abe:	468c      	mov	ip, r1
 8000ac0:	4619      	mov	r1, r3
 8000ac2:	4663      	mov	r3, ip
 8000ac4:	e000      	b.n	8000ac8 <__aeabi_cdcmpeq>
 8000ac6:	bf00      	nop

08000ac8 <__aeabi_cdcmpeq>:
 8000ac8:	b501      	push	{r0, lr}
 8000aca:	f7ff ffb7 	bl	8000a3c <__cmpdf2>
 8000ace:	2800      	cmp	r0, #0
 8000ad0:	bf48      	it	mi
 8000ad2:	f110 0f00 	cmnmi.w	r0, #0
 8000ad6:	bd01      	pop	{r0, pc}

08000ad8 <__aeabi_dcmpeq>:
 8000ad8:	f84d ed08 	str.w	lr, [sp, #-8]!
 8000adc:	f7ff fff4 	bl	8000ac8 <__aeabi_cdcmpeq>
 8000ae0:	bf0c      	ite	eq
 8000ae2:	2001      	moveq	r0, #1
 8000ae4:	2000      	movne	r0, #0
 8000ae6:	f85d fb08 	ldr.w	pc, [sp], #8
 8000aea:	bf00      	nop

08000aec <__aeabi_dcmplt>:
 8000aec:	f84d ed08 	str.w	lr, [sp, #-8]!
 8000af0:	f7ff ffea 	bl	8000ac8 <__aeabi_cdcmpeq>
 8000af4:	bf34      	ite	cc
 8000af6:	2001      	movcc	r0, #1
 8000af8:	2000      	movcs	r0, #0
 8000afa:	f85d fb08 	ldr.w	pc, [sp], #8
 8000afe:	bf00      	nop

08000b00 <__aeabi_dcmple>:
 8000b00:	f84d ed08 	str.w	lr, [sp, #-8]!
 8000b04:	f7ff ffe0 	bl	8000ac8 <__aeabi_cdcmpeq>
 8000b08:	bf94      	ite	ls
 8000b0a:	2001      	movls	r0, #1
 8000b0c:	2000      	movhi	r0, #0
 8000b0e:	f85d fb08 	ldr.w	pc, [sp], #8
 8000b12:	bf00      	nop

08000b14 <__aeabi_dcmpge>:
 8000b14:	f84d ed08 	str.w	lr, [sp, #-8]!
 8000b18:	f7ff ffce 	bl	8000ab8 <__aeabi_cdrcmple>
 8000b1c:	bf94      	ite	ls
 8000b1e:	2001      	movls	r0, #1
 8000b20:	2000      	movhi	r0, #0
 8000b22:	f85d fb08 	ldr.w	pc, [sp], #8
 8000b26:	bf00      	nop

08000b28 <__aeabi_dcmpgt>:
 8000b28:	f84d ed08 	str.w	lr, [sp, #-8]!
 8000b2c:	f7ff ffc4 	bl	8000ab8 <__aeabi_cdrcmple>
 8000b30:	bf34      	ite	cc
 8000b32:	2001      	movcc	r0, #1
 8000b34:	2000      	movcs	r0, #0
 8000b36:	f85d fb08 	ldr.w	pc, [sp], #8
 8000b3a:	bf00      	nop

08000b3c <__aeabi_dcmpun>:
 8000b3c:	ea4f 0c41 	mov.w	ip, r1, lsl #1
 8000b40:	ea7f 5c6c 	mvns.w	ip, ip, asr #21
 8000b44:	d102      	bne.n	8000b4c <__aeabi_dcmpun+0x10>
 8000b46:	ea50 3c01 	orrs.w	ip, r0, r1, lsl #12
 8000b4a:	d10a      	bne.n	8000b62 <__aeabi_dcmpun+0x26>
 8000b4c:	ea4f 0c43 	mov.w	ip, r3, lsl #1
 8000b50:	ea7f 5c6c 	mvns.w	ip, ip, asr #21
 8000b54:	d102      	bne.n	8000b5c <__aeabi_dcmpun+0x20>
 8000b56:	ea52 3c03 	orrs.w	ip, r2, r3, lsl #12
 8000b5a:	d102      	bne.n	8000b62 <__aeabi_dcmpun+0x26>
 8000b5c:	f04f 0000 	mov.w	r0, #0
 8000b60:	4770      	bx	lr
 8000b62:	f04f 0001 	mov.w	r0, #1
 8000b66:	4770      	bx	lr

08000b68 <__aeabi_d2uiz>:
 8000b68:	004a      	lsls	r2, r1, #1
 8000b6a:	d211      	bcs.n	8000b90 <__aeabi_d2uiz+0x28>
 8000b6c:	f512 1200 	adds.w	r2, r2, #2097152	@ 0x200000
 8000b70:	d211      	bcs.n	8000b96 <__aeabi_d2uiz+0x2e>
 8000b72:	d50d      	bpl.n	8000b90 <__aeabi_d2uiz+0x28>
 8000b74:	f46f 7378 	mvn.w	r3, #992	@ 0x3e0
 8000b78:	ebb3 5262 	subs.w	r2, r3, r2, asr #21
 8000b7c:	d40e      	bmi.n	8000b9c <__aeabi_d2uiz+0x34>
 8000b7e:	ea4f 23c1 	mov.w	r3, r1, lsl #11
 8000b82:	f043 4300 	orr.w	r3, r3, #2147483648	@ 0x80000000
 8000b86:	ea43 5350 	orr.w	r3, r3, r0, lsr #21
 8000b8a:	fa23 f002 	lsr.w	r0, r3, r2
 8000b8e:	4770      	bx	lr
 8000b90:	f04f 0000 	mov.w	r0, #0
 8000b94:	4770      	bx	lr
 8000b96:	ea50 3001 	orrs.w	r0, r0, r1, lsl #12
 8000b9a:	d102      	bne.n	8000ba2 <__aeabi_d2uiz+0x3a>
 8000b9c:	f04f 30ff 	mov.w	r0, #4294967295
 8000ba0:	4770      	bx	lr
 8000ba2:	f04f 0000 	mov.w	r0, #0
 8000ba6:	4770      	bx	lr

08000ba8 <__aeabi_uldivmod>:
 8000ba8:	b953      	cbnz	r3, 8000bc0 <__aeabi_uldivmod+0x18>
 8000baa:	b94a      	cbnz	r2, 8000bc0 <__aeabi_uldivmod+0x18>
 8000bac:	2900      	cmp	r1, #0
 8000bae:	bf08      	it	eq
 8000bb0:	2800      	cmpeq	r0, #0
 8000bb2:	bf1c      	itt	ne
 8000bb4:	f04f 31ff 	movne.w	r1, #4294967295
 8000bb8:	f04f 30ff 	movne.w	r0, #4294967295
 8000bbc:	f000 b97e 	b.w	8000ebc <__aeabi_idiv0>
 8000bc0:	f1ad 0c08 	sub.w	ip, sp, #8
 8000bc4:	e96d ce04 	strd	ip, lr, [sp, #-16]!
 8000bc8:	f000 f806 	bl	8000bd8 <__udivmoddi4>
 8000bcc:	f8dd e004 	ldr.w	lr, [sp, #4]
 8000bd0:	e9dd 2302 	ldrd	r2, r3, [sp, #8]
 8000bd4:	b004      	add	sp, #16
 8000bd6:	4770      	bx	lr

08000bd8 <__udivmoddi4>:
 8000bd8:	e92d 4ff0 	stmdb	sp!, {r4, r5, r6, r7, r8, r9, sl, fp, lr}
 8000bdc:	9d09      	ldr	r5, [sp, #36]	@ 0x24
 8000bde:	460c      	mov	r4, r1
 8000be0:	2b00      	cmp	r3, #0
 8000be2:	d14d      	bne.n	8000c80 <__udivmoddi4+0xa8>
 8000be4:	428a      	cmp	r2, r1
 8000be6:	460f      	mov	r7, r1
 8000be8:	4684      	mov	ip, r0
 8000bea:	4696      	mov	lr, r2
 8000bec:	fab2 f382 	clz	r3, r2
 8000bf0:	d960      	bls.n	8000cb4 <__udivmoddi4+0xdc>
 8000bf2:	b14b      	cbz	r3, 8000c08 <__udivmoddi4+0x30>
 8000bf4:	fa02 fe03 	lsl.w	lr, r2, r3
 8000bf8:	f1c3 0220 	rsb	r2, r3, #32
 8000bfc:	409f      	lsls	r7, r3
 8000bfe:	fa00 fc03 	lsl.w	ip, r0, r3
 8000c02:	fa20 f202 	lsr.w	r2, r0, r2
 8000c06:	4317      	orrs	r7, r2
 8000c08:	ea4f 461e 	mov.w	r6, lr, lsr #16
 8000c0c:	fa1f f48e 	uxth.w	r4, lr
 8000c10:	ea4f 421c 	mov.w	r2, ip, lsr #16
 8000c14:	fbb7 f1f6 	udiv	r1, r7, r6
 8000c18:	fb06 7711 	mls	r7, r6, r1, r7
 8000c1c:	fb01 f004 	mul.w	r0, r1, r4
 8000c20:	ea42 4207 	orr.w	r2, r2, r7, lsl #16
 8000c24:	4290      	cmp	r0, r2
 8000c26:	d908      	bls.n	8000c3a <__udivmoddi4+0x62>
 8000c28:	eb1e 0202 	adds.w	r2, lr, r2
 8000c2c:	f101 37ff 	add.w	r7, r1, #4294967295
 8000c30:	d202      	bcs.n	8000c38 <__udivmoddi4+0x60>
 8000c32:	4290      	cmp	r0, r2
 8000c34:	f200 812d 	bhi.w	8000e92 <__udivmoddi4+0x2ba>
 8000c38:	4639      	mov	r1, r7
 8000c3a:	1a12      	subs	r2, r2, r0
 8000c3c:	fa1f fc8c 	uxth.w	ip, ip
 8000c40:	fbb2 f0f6 	udiv	r0, r2, r6
 8000c44:	fb06 2210 	mls	r2, r6, r0, r2
 8000c48:	fb00 f404 	mul.w	r4, r0, r4
 8000c4c:	ea4c 4c02 	orr.w	ip, ip, r2, lsl #16
 8000c50:	4564      	cmp	r4, ip
 8000c52:	d908      	bls.n	8000c66 <__udivmoddi4+0x8e>
 8000c54:	eb1e 0c0c 	adds.w	ip, lr, ip
 8000c58:	f100 32ff 	add.w	r2, r0, #4294967295
 8000c5c:	d202      	bcs.n	8000c64 <__udivmoddi4+0x8c>
 8000c5e:	4564      	cmp	r4, ip
 8000c60:	f200 811a 	bhi.w	8000e98 <__udivmoddi4+0x2c0>
 8000c64:	4610      	mov	r0, r2
 8000c66:	ea40 4001 	orr.w	r0, r0, r1, lsl #16
 8000c6a:	ebac 0c04 	sub.w	ip, ip, r4
 8000c6e:	2100      	movs	r1, #0
 8000c70:	b125      	cbz	r5, 8000c7c <__udivmoddi4+0xa4>
 8000c72:	fa2c f303 	lsr.w	r3, ip, r3
 8000c76:	2200      	movs	r2, #0
 8000c78:	e9c5 3200 	strd	r3, r2, [r5]
 8000c7c:	e8bd 8ff0 	ldmia.w	sp!, {r4, r5, r6, r7, r8, r9, sl, fp, pc}
 8000c80:	428b      	cmp	r3, r1
 8000c82:	d905      	bls.n	8000c90 <__udivmoddi4+0xb8>
 8000c84:	b10d      	cbz	r5, 8000c8a <__udivmoddi4+0xb2>
 8000c86:	e9c5 0100 	strd	r0, r1, [r5]
 8000c8a:	2100      	movs	r1, #0
 8000c8c:	4608      	mov	r0, r1
 8000c8e:	e7f5      	b.n	8000c7c <__udivmoddi4+0xa4>
 8000c90:	fab3 f183 	clz	r1, r3
 8000c94:	2900      	cmp	r1, #0
 8000c96:	d14d      	bne.n	8000d34 <__udivmoddi4+0x15c>
 8000c98:	42a3      	cmp	r3, r4
 8000c9a:	f0c0 80f2 	bcc.w	8000e82 <__udivmoddi4+0x2aa>
 8000c9e:	4290      	cmp	r0, r2
 8000ca0:	f080 80ef 	bcs.w	8000e82 <__udivmoddi4+0x2aa>
 8000ca4:	4606      	mov	r6, r0
 8000ca6:	4623      	mov	r3, r4
 8000ca8:	4608      	mov	r0, r1
 8000caa:	2d00      	cmp	r5, #0
 8000cac:	d0e6      	beq.n	8000c7c <__udivmoddi4+0xa4>
 8000cae:	e9c5 6300 	strd	r6, r3, [r5]
 8000cb2:	e7e3      	b.n	8000c7c <__udivmoddi4+0xa4>
 8000cb4:	2b00      	cmp	r3, #0
 8000cb6:	f040 80a2 	bne.w	8000dfe <__udivmoddi4+0x226>
 8000cba:	1a8a      	subs	r2, r1, r2
 8000cbc:	ea4f 471e 	mov.w	r7, lr, lsr #16
 8000cc0:	fa1f f68e 	uxth.w	r6, lr
 8000cc4:	2101      	movs	r1, #1
 8000cc6:	fbb2 f4f7 	udiv	r4, r2, r7
 8000cca:	fb07 2014 	mls	r0, r7, r4, r2
 8000cce:	ea4f 421c 	mov.w	r2, ip, lsr #16
 8000cd2:	ea42 4200 	orr.w	r2, r2, r0, lsl #16
 8000cd6:	fb06 f004 	mul.w	r0, r6, r4
 8000cda:	4290      	cmp	r0, r2
 8000cdc:	d90f      	bls.n	8000cfe <__udivmoddi4+0x126>
 8000cde:	eb1e 0202 	adds.w	r2, lr, r2
 8000ce2:	f104 38ff 	add.w	r8, r4, #4294967295
 8000ce6:	bf2c      	ite	cs
 8000ce8:	f04f 0901 	movcs.w	r9, #1
 8000cec:	f04f 0900 	movcc.w	r9, #0
 8000cf0:	4290      	cmp	r0, r2
 8000cf2:	d903      	bls.n	8000cfc <__udivmoddi4+0x124>
 8000cf4:	f1b9 0f00 	cmp.w	r9, #0
 8000cf8:	f000 80c8 	beq.w	8000e8c <__udivmoddi4+0x2b4>
 8000cfc:	4644      	mov	r4, r8
 8000cfe:	1a12      	subs	r2, r2, r0
 8000d00:	fa1f fc8c 	uxth.w	ip, ip
 8000d04:	fbb2 f0f7 	udiv	r0, r2, r7
 8000d08:	fb07 2210 	mls	r2, r7, r0, r2
 8000d0c:	fb00 f606 	mul.w	r6, r0, r6
 8000d10:	ea4c 4c02 	orr.w	ip, ip, r2, lsl #16
 8000d14:	4566      	cmp	r6, ip
 8000d16:	d908      	bls.n	8000d2a <__udivmoddi4+0x152>
 8000d18:	eb1e 0c0c 	adds.w	ip, lr, ip
 8000d1c:	f100 32ff 	add.w	r2, r0, #4294967295
 8000d20:	d202      	bcs.n	8000d28 <__udivmoddi4+0x150>
 8000d22:	4566      	cmp	r6, ip
 8000d24:	f200 80bb 	bhi.w	8000e9e <__udivmoddi4+0x2c6>
 8000d28:	4610      	mov	r0, r2
 8000d2a:	ebac 0c06 	sub.w	ip, ip, r6
 8000d2e:	ea40 4004 	orr.w	r0, r0, r4, lsl #16
 8000d32:	e79d      	b.n	8000c70 <__udivmoddi4+0x98>
 8000d34:	f1c1 0620 	rsb	r6, r1, #32
 8000d38:	408b      	lsls	r3, r1
 8000d3a:	fa04 fe01 	lsl.w	lr, r4, r1
 8000d3e:	fa22 f706 	lsr.w	r7, r2, r6
 8000d42:	fa20 fc06 	lsr.w	ip, r0, r6
 8000d46:	40f4      	lsrs	r4, r6
 8000d48:	408a      	lsls	r2, r1
 8000d4a:	431f      	orrs	r7, r3
 8000d4c:	ea4e 030c 	orr.w	r3, lr, ip
 8000d50:	fa00 fe01 	lsl.w	lr, r0, r1
 8000d54:	ea4f 4817 	mov.w	r8, r7, lsr #16
 8000d58:	ea4f 4913 	mov.w	r9, r3, lsr #16
 8000d5c:	fa1f fc87 	uxth.w	ip, r7
 8000d60:	fbb4 f0f8 	udiv	r0, r4, r8
 8000d64:	fb08 4410 	mls	r4, r8, r0, r4
 8000d68:	ea49 4404 	orr.w	r4, r9, r4, lsl #16
 8000d6c:	fb00 f90c 	mul.w	r9, r0, ip
 8000d70:	45a1      	cmp	r9, r4
 8000d72:	d90e      	bls.n	8000d92 <__udivmoddi4+0x1ba>
 8000d74:	193c      	adds	r4, r7, r4
 8000d76:	f100 3aff 	add.w	sl, r0, #4294967295
 8000d7a:	bf2c      	ite	cs
 8000d7c:	f04f 0b01 	movcs.w	fp, #1
 8000d80:	f04f 0b00 	movcc.w	fp, #0
 8000d84:	45a1      	cmp	r9, r4
 8000d86:	d903      	bls.n	8000d90 <__udivmoddi4+0x1b8>
 8000d88:	f1bb 0f00 	cmp.w	fp, #0
 8000d8c:	f000 8093 	beq.w	8000eb6 <__udivmoddi4+0x2de>
 8000d90:	4650      	mov	r0, sl
 8000d92:	eba4 0409 	sub.w	r4, r4, r9
 8000d96:	fa1f f983 	uxth.w	r9, r3
 8000d9a:	fbb4 f3f8 	udiv	r3, r4, r8
 8000d9e:	fb08 4413 	mls	r4, r8, r3, r4
 8000da2:	fb03 fc0c 	mul.w	ip, r3, ip
 8000da6:	ea49 4404 	orr.w	r4, r9, r4, lsl #16
 8000daa:	45a4      	cmp	ip, r4
 8000dac:	d906      	bls.n	8000dbc <__udivmoddi4+0x1e4>
 8000dae:	193c      	adds	r4, r7, r4
 8000db0:	f103 38ff 	add.w	r8, r3, #4294967295
 8000db4:	d201      	bcs.n	8000dba <__udivmoddi4+0x1e2>
 8000db6:	45a4      	cmp	ip, r4
 8000db8:	d87a      	bhi.n	8000eb0 <__udivmoddi4+0x2d8>
 8000dba:	4643      	mov	r3, r8
 8000dbc:	ea43 4000 	orr.w	r0, r3, r0, lsl #16
 8000dc0:	eba4 040c 	sub.w	r4, r4, ip
 8000dc4:	fba0 9802 	umull	r9, r8, r0, r2
 8000dc8:	4544      	cmp	r4, r8
 8000dca:	46cc      	mov	ip, r9
 8000dcc:	4643      	mov	r3, r8
 8000dce:	d302      	bcc.n	8000dd6 <__udivmoddi4+0x1fe>
 8000dd0:	d106      	bne.n	8000de0 <__udivmoddi4+0x208>
 8000dd2:	45ce      	cmp	lr, r9
 8000dd4:	d204      	bcs.n	8000de0 <__udivmoddi4+0x208>
 8000dd6:	3801      	subs	r0, #1
 8000dd8:	ebb9 0c02 	subs.w	ip, r9, r2
 8000ddc:	eb68 0307 	sbc.w	r3, r8, r7
 8000de0:	b15d      	cbz	r5, 8000dfa <__udivmoddi4+0x222>
 8000de2:	ebbe 020c 	subs.w	r2, lr, ip
 8000de6:	eb64 0403 	sbc.w	r4, r4, r3
 8000dea:	fa04 f606 	lsl.w	r6, r4, r6
 8000dee:	fa22 f301 	lsr.w	r3, r2, r1
 8000df2:	40cc      	lsrs	r4, r1
 8000df4:	431e      	orrs	r6, r3
 8000df6:	e9c5 6400 	strd	r6, r4, [r5]
 8000dfa:	2100      	movs	r1, #0
 8000dfc:	e73e      	b.n	8000c7c <__udivmoddi4+0xa4>
 8000dfe:	fa02 fe03 	lsl.w	lr, r2, r3
 8000e02:	f1c3 0120 	rsb	r1, r3, #32
 8000e06:	fa04 f203 	lsl.w	r2, r4, r3
 8000e0a:	fa00 fc03 	lsl.w	ip, r0, r3
 8000e0e:	40cc      	lsrs	r4, r1
 8000e10:	ea4f 471e 	mov.w	r7, lr, lsr #16
 8000e14:	fa20 f101 	lsr.w	r1, r0, r1
 8000e18:	fa1f f68e 	uxth.w	r6, lr
 8000e1c:	fbb4 f0f7 	udiv	r0, r4, r7
 8000e20:	430a      	orrs	r2, r1
 8000e22:	fb07 4410 	mls	r4, r7, r0, r4
 8000e26:	0c11      	lsrs	r1, r2, #16
 8000e28:	ea41 4104 	orr.w	r1, r1, r4, lsl #16
 8000e2c:	fb00 f406 	mul.w	r4, r0, r6
 8000e30:	428c      	cmp	r4, r1
 8000e32:	d90e      	bls.n	8000e52 <__udivmoddi4+0x27a>
 8000e34:	eb1e 0101 	adds.w	r1, lr, r1
 8000e38:	f100 38ff 	add.w	r8, r0, #4294967295
 8000e3c:	bf2c      	ite	cs
 8000e3e:	f04f 0901 	movcs.w	r9, #1
 8000e42:	f04f 0900 	movcc.w	r9, #0
 8000e46:	428c      	cmp	r4, r1
 8000e48:	d902      	bls.n	8000e50 <__udivmoddi4+0x278>
 8000e4a:	f1b9 0f00 	cmp.w	r9, #0
 8000e4e:	d02c      	beq.n	8000eaa <__udivmoddi4+0x2d2>
 8000e50:	4640      	mov	r0, r8
 8000e52:	1b09      	subs	r1, r1, r4
 8000e54:	b292      	uxth	r2, r2
 8000e56:	fbb1 f4f7 	udiv	r4, r1, r7
 8000e5a:	fb07 1114 	mls	r1, r7, r4, r1
 8000e5e:	ea42 4201 	orr.w	r2, r2, r1, lsl #16
 8000e62:	fb04 f106 	mul.w	r1, r4, r6
 8000e66:	4291      	cmp	r1, r2
 8000e68:	d907      	bls.n	8000e7a <__udivmoddi4+0x2a2>
 8000e6a:	eb1e 0202 	adds.w	r2, lr, r2
 8000e6e:	f104 38ff 	add.w	r8, r4, #4294967295
 8000e72:	d201      	bcs.n	8000e78 <__udivmoddi4+0x2a0>
 8000e74:	4291      	cmp	r1, r2
 8000e76:	d815      	bhi.n	8000ea4 <__udivmoddi4+0x2cc>
 8000e78:	4644      	mov	r4, r8
 8000e7a:	1a52      	subs	r2, r2, r1
 8000e7c:	ea44 4100 	orr.w	r1, r4, r0, lsl #16
 8000e80:	e721      	b.n	8000cc6 <__udivmoddi4+0xee>
 8000e82:	1a86      	subs	r6, r0, r2
 8000e84:	eb64 0303 	sbc.w	r3, r4, r3
 8000e88:	2001      	movs	r0, #1
 8000e8a:	e70e      	b.n	8000caa <__udivmoddi4+0xd2>
 8000e8c:	3c02      	subs	r4, #2
 8000e8e:	4472      	add	r2, lr
 8000e90:	e735      	b.n	8000cfe <__udivmoddi4+0x126>
 8000e92:	3902      	subs	r1, #2
 8000e94:	4472      	add	r2, lr
 8000e96:	e6d0      	b.n	8000c3a <__udivmoddi4+0x62>
 8000e98:	44f4      	add	ip, lr
 8000e9a:	3802      	subs	r0, #2
 8000e9c:	e6e3      	b.n	8000c66 <__udivmoddi4+0x8e>
 8000e9e:	44f4      	add	ip, lr
 8000ea0:	3802      	subs	r0, #2
 8000ea2:	e742      	b.n	8000d2a <__udivmoddi4+0x152>
 8000ea4:	3c02      	subs	r4, #2
 8000ea6:	4472      	add	r2, lr
 8000ea8:	e7e7      	b.n	8000e7a <__udivmoddi4+0x2a2>
 8000eaa:	3802      	subs	r0, #2
 8000eac:	4471      	add	r1, lr
 8000eae:	e7d0      	b.n	8000e52 <__udivmoddi4+0x27a>
 8000eb0:	3b02      	subs	r3, #2
 8000eb2:	443c      	add	r4, r7
 8000eb4:	e782      	b.n	8000dbc <__udivmoddi4+0x1e4>
 8000eb6:	3802      	subs	r0, #2
 8000eb8:	443c      	add	r4, r7
 8000eba:	e76a      	b.n	8000d92 <__udivmoddi4+0x1ba>

08000ebc <__aeabi_idiv0>:
 8000ebc:	4770      	bx	lr
 8000ebe:	bf00      	nop

08000ec0 <SystemClock_Config>:
 8000ec0:	b510      	push	{r4, lr}
 8000ec2:	b09e      	sub	sp, #120	@ 0x78
 8000ec4:	2260      	movs	r2, #96	@ 0x60
 8000ec6:	2100      	movs	r1, #0
 8000ec8:	a806      	add	r0, sp, #24
 8000eca:	f006 ff85 	bl	8007dd8 <memset>
 8000ece:	2218      	movs	r2, #24
 8000ed0:	2100      	movs	r1, #0
 8000ed2:	4668      	mov	r0, sp
 8000ed4:	f006 ff80 	bl	8007dd8 <memset>
 8000ed8:	f44f 3040 	mov.w	r0, #196608	@ 0x30000
 8000edc:	f002 fc6e 	bl	80037bc <HAL_PWREx_ControlVoltageScaling>
 8000ee0:	b108      	cbz	r0, 8000ee6 <SystemClock_Config+0x26>
 8000ee2:	b672      	cpsid	i
 8000ee4:	e7fe      	b.n	8000ee4 <SystemClock_Config+0x24>
 8000ee6:	2201      	movs	r2, #1
 8000ee8:	f44f 3380 	mov.w	r3, #65536	@ 0x10000
 8000eec:	2403      	movs	r4, #3
 8000eee:	e9cd 2306 	strd	r2, r3, [sp, #24]
 8000ef2:	2302      	movs	r3, #2
 8000ef4:	e9cd 3414 	strd	r3, r4, [sp, #80]	@ 0x50
 8000ef8:	e9cd 331a 	strd	r3, r3, [sp, #104]	@ 0x68
 8000efc:	230c      	movs	r3, #12
 8000efe:	e9cd 2016 	strd	r2, r0, [sp, #88]	@ 0x58
 8000f02:	2114      	movs	r1, #20
 8000f04:	2208      	movs	r2, #8
 8000f06:	e9cd 301c 	strd	r3, r0, [sp, #112]	@ 0x70
 8000f0a:	a806      	add	r0, sp, #24
 8000f0c:	e9cd 1218 	strd	r1, r2, [sp, #96]	@ 0x60
 8000f10:	f002 ff22 	bl	8003d58 <HAL_RCC_OscConfig>
 8000f14:	b108      	cbz	r0, 8000f1a <SystemClock_Config+0x5a>
 8000f16:	b672      	cpsid	i
 8000f18:	e7fe      	b.n	8000f18 <SystemClock_Config+0x58>
 8000f1a:	231f      	movs	r3, #31
 8000f1c:	e9cd 0002 	strd	r0, r0, [sp, #8]
 8000f20:	e9cd 0004 	strd	r0, r0, [sp, #16]
 8000f24:	2104      	movs	r1, #4
 8000f26:	4668      	mov	r0, sp
 8000f28:	e9cd 3400 	strd	r3, r4, [sp]
 8000f2c:	f002 fdb2 	bl	8003a94 <HAL_RCC_ClockConfig>
 8000f30:	b108      	cbz	r0, 8000f36 <SystemClock_Config+0x76>
 8000f32:	b672      	cpsid	i
 8000f34:	e7fe      	b.n	8000f34 <SystemClock_Config+0x74>
 8000f36:	b01e      	add	sp, #120	@ 0x78
 8000f38:	bd10      	pop	{r4, pc}
	...

08000f3c <main>:
 8000f3c:	b580      	push	{r7, lr}
 8000f3e:	b0d6      	sub	sp, #344	@ 0x158
 8000f40:	f001 fe74 	bl	8002c2c <HAL_Init>
 8000f44:	f7ff ffbc 	bl	8000ec0 <SystemClock_Config>
 8000f48:	f002 fcac 	bl	80038a4 <HAL_PWREx_EnableVddIO2>
 8000f4c:	f002 fcb2 	bl	80038b4 <HAL_PWREx_DisableUCPDDeadBattery>
 8000f50:	2002      	movs	r0, #2
 8000f52:	f002 fc7b 	bl	800384c <HAL_PWREx_ConfigSupply>
 8000f56:	4604      	mov	r4, r0
 8000f58:	b108      	cbz	r0, 8000f5e <main+0x22>
 8000f5a:	b672      	cpsid	i
 8000f5c:	e7fe      	b.n	8000f5c <main+0x20>
 8000f5e:	4db4      	ldr	r5, [pc, #720]	@ (8001230 <main+0x2f4>)
 8000f60:	f44f 70fa 	mov.w	r0, #500	@ 0x1f4
 8000f64:	f001 fe9e 	bl	8002ca4 <HAL_Delay>
 8000f68:	2214      	movs	r2, #20
 8000f6a:	4621      	mov	r1, r4
 8000f6c:	a80c      	add	r0, sp, #48	@ 0x30
 8000f6e:	f006 ff33 	bl	8007dd8 <memset>
 8000f72:	f8d5 308c 	ldr.w	r3, [r5, #140]	@ 0x8c
 8000f76:	4622      	mov	r2, r4
 8000f78:	f043 0304 	orr.w	r3, r3, #4
 8000f7c:	f8c5 308c 	str.w	r3, [r5, #140]	@ 0x8c
 8000f80:	f8d5 308c 	ldr.w	r3, [r5, #140]	@ 0x8c
 8000f84:	f44f 7100 	mov.w	r1, #512	@ 0x200
 8000f88:	f003 0304 	and.w	r3, r3, #4
 8000f8c:	9302      	str	r3, [sp, #8]
 8000f8e:	9b02      	ldr	r3, [sp, #8]
 8000f90:	f8d5 308c 	ldr.w	r3, [r5, #140]	@ 0x8c
 8000f94:	48a7      	ldr	r0, [pc, #668]	@ (8001234 <main+0x2f8>)
 8000f96:	f043 0380 	orr.w	r3, r3, #128	@ 0x80
 8000f9a:	f8c5 308c 	str.w	r3, [r5, #140]	@ 0x8c
 8000f9e:	f8d5 308c 	ldr.w	r3, [r5, #140]	@ 0x8c
 8000fa2:	f04f 0903 	mov.w	r9, #3
 8000fa6:	f003 0380 	and.w	r3, r3, #128	@ 0x80
 8000faa:	9303      	str	r3, [sp, #12]
 8000fac:	9b03      	ldr	r3, [sp, #12]
 8000fae:	f8d5 308c 	ldr.w	r3, [r5, #140]	@ 0x8c
 8000fb2:	f44f 4a00 	mov.w	sl, #32768	@ 0x8000
 8000fb6:	f043 0301 	orr.w	r3, r3, #1
 8000fba:	f8c5 308c 	str.w	r3, [r5, #140]	@ 0x8c
 8000fbe:	f8d5 308c 	ldr.w	r3, [r5, #140]	@ 0x8c
 8000fc2:	f04f 0801 	mov.w	r8, #1
 8000fc6:	f003 0301 	and.w	r3, r3, #1
 8000fca:	9304      	str	r3, [sp, #16]
 8000fcc:	9b04      	ldr	r3, [sp, #16]
 8000fce:	f8d5 308c 	ldr.w	r3, [r5, #140]	@ 0x8c
 8000fd2:	2780      	movs	r7, #128	@ 0x80
 8000fd4:	f043 0302 	orr.w	r3, r3, #2
 8000fd8:	f8c5 308c 	str.w	r3, [r5, #140]	@ 0x8c
 8000fdc:	f8d5 308c 	ldr.w	r3, [r5, #140]	@ 0x8c
 8000fe0:	f44f 7680 	mov.w	r6, #256	@ 0x100
 8000fe4:	f003 0302 	and.w	r3, r3, #2
 8000fe8:	9305      	str	r3, [sp, #20]
 8000fea:	9b05      	ldr	r3, [sp, #20]
 8000fec:	f8d5 308c 	ldr.w	r3, [r5, #140]	@ 0x8c
 8000ff0:	f043 0308 	orr.w	r3, r3, #8
 8000ff4:	f8c5 308c 	str.w	r3, [r5, #140]	@ 0x8c
 8000ff8:	f8d5 308c 	ldr.w	r3, [r5, #140]	@ 0x8c
 8000ffc:	f003 0308 	and.w	r3, r3, #8
 8001000:	9306      	str	r3, [sp, #24]
 8001002:	9b06      	ldr	r3, [sp, #24]
 8001004:	f8d5 308c 	ldr.w	r3, [r5, #140]	@ 0x8c
 8001008:	f043 0340 	orr.w	r3, r3, #64	@ 0x40
 800100c:	f8c5 308c 	str.w	r3, [r5, #140]	@ 0x8c
 8001010:	f8d5 308c 	ldr.w	r3, [r5, #140]	@ 0x8c
 8001014:	f003 0340 	and.w	r3, r3, #64	@ 0x40
 8001018:	9307      	str	r3, [sp, #28]
 800101a:	9b07      	ldr	r3, [sp, #28]
 800101c:	f8d5 308c 	ldr.w	r3, [r5, #140]	@ 0x8c
 8001020:	f043 0310 	orr.w	r3, r3, #16
 8001024:	f8c5 308c 	str.w	r3, [r5, #140]	@ 0x8c
 8001028:	f8d5 308c 	ldr.w	r3, [r5, #140]	@ 0x8c
 800102c:	f003 0310 	and.w	r3, r3, #16
 8001030:	9308      	str	r3, [sp, #32]
 8001032:	9b08      	ldr	r3, [sp, #32]
 8001034:	f002 fba2 	bl	800377c <HAL_GPIO_WritePin>
 8001038:	4622      	mov	r2, r4
 800103a:	f44f 71b2 	mov.w	r1, #356	@ 0x164
 800103e:	487e      	ldr	r0, [pc, #504]	@ (8001238 <main+0x2fc>)
 8001040:	f002 fb9c 	bl	800377c <HAL_GPIO_WritePin>
 8001044:	4622      	mov	r2, r4
 8001046:	f44f 71c0 	mov.w	r1, #384	@ 0x180
 800104a:	487c      	ldr	r0, [pc, #496]	@ (800123c <main+0x300>)
 800104c:	f002 fb96 	bl	800377c <HAL_GPIO_WritePin>
 8001050:	4622      	mov	r2, r4
 8001052:	21a0      	movs	r1, #160	@ 0xa0
 8001054:	487a      	ldr	r0, [pc, #488]	@ (8001240 <main+0x304>)
 8001056:	f002 fb91 	bl	800377c <HAL_GPIO_WritePin>
 800105a:	4622      	mov	r2, r4
 800105c:	2101      	movs	r1, #1
 800105e:	4879      	ldr	r0, [pc, #484]	@ (8001244 <main+0x308>)
 8001060:	f002 fb8c 	bl	800377c <HAL_GPIO_WritePin>
 8001064:	2304      	movs	r3, #4
 8001066:	4875      	ldr	r0, [pc, #468]	@ (800123c <main+0x300>)
 8001068:	a90c      	add	r1, sp, #48	@ 0x30
 800106a:	e9cd 390c 	strd	r3, r9, [sp, #48]	@ 0x30
 800106e:	940e      	str	r4, [sp, #56]	@ 0x38
 8001070:	f002 fa76 	bl	8003560 <HAL_GPIO_Init>
 8001074:	f44f 4380 	mov.w	r3, #16384	@ 0x4000
 8001078:	4871      	ldr	r0, [pc, #452]	@ (8001240 <main+0x304>)
 800107a:	a90c      	add	r1, sp, #48	@ 0x30
 800107c:	e9cd 340c 	strd	r3, r4, [sp, #48]	@ 0x30
 8001080:	940e      	str	r4, [sp, #56]	@ 0x38
 8001082:	f002 fa6d 	bl	8003560 <HAL_GPIO_Init>
 8001086:	486e      	ldr	r0, [pc, #440]	@ (8001240 <main+0x304>)
 8001088:	a90c      	add	r1, sp, #48	@ 0x30
 800108a:	e9cd a90c 	strd	sl, r9, [sp, #48]	@ 0x30
 800108e:	940e      	str	r4, [sp, #56]	@ 0x38
 8001090:	f002 fa66 	bl	8003560 <HAL_GPIO_Init>
 8001094:	f44f 7300 	mov.w	r3, #512	@ 0x200
 8001098:	4866      	ldr	r0, [pc, #408]	@ (8001234 <main+0x2f8>)
 800109a:	a90c      	add	r1, sp, #48	@ 0x30
 800109c:	e9cd 380c 	strd	r3, r8, [sp, #48]	@ 0x30
 80010a0:	e9cd 440e 	strd	r4, r4, [sp, #56]	@ 0x38
 80010a4:	f002 fa5c 	bl	8003560 <HAL_GPIO_Init>
 80010a8:	f44f 73b2 	mov.w	r3, #356	@ 0x164
 80010ac:	4862      	ldr	r0, [pc, #392]	@ (8001238 <main+0x2fc>)
 80010ae:	a90c      	add	r1, sp, #48	@ 0x30
 80010b0:	e9cd 380c 	strd	r3, r8, [sp, #48]	@ 0x30
 80010b4:	e9cd 440e 	strd	r4, r4, [sp, #56]	@ 0x38
 80010b8:	f002 fa52 	bl	8003560 <HAL_GPIO_Init>
 80010bc:	485f      	ldr	r0, [pc, #380]	@ (800123c <main+0x300>)
 80010be:	a90c      	add	r1, sp, #48	@ 0x30
 80010c0:	e9cd 780c 	strd	r7, r8, [sp, #48]	@ 0x30
 80010c4:	e9cd 440e 	strd	r4, r4, [sp, #56]	@ 0x38
 80010c8:	f002 fa4a 	bl	8003560 <HAL_GPIO_Init>
 80010cc:	485b      	ldr	r0, [pc, #364]	@ (800123c <main+0x300>)
 80010ce:	a90c      	add	r1, sp, #48	@ 0x30
 80010d0:	e9cd 680c 	strd	r6, r8, [sp, #48]	@ 0x30
 80010d4:	e9cd 490e 	strd	r4, r9, [sp, #56]	@ 0x38
 80010d8:	f002 fa42 	bl	8003560 <HAL_GPIO_Init>
 80010dc:	2302      	movs	r3, #2
 80010de:	f44f 50c0 	mov.w	r0, #6144	@ 0x1800
 80010e2:	a90c      	add	r1, sp, #48	@ 0x30
 80010e4:	e9cd 030c 	strd	r0, r3, [sp, #48]	@ 0x30
 80010e8:	4857      	ldr	r0, [pc, #348]	@ (8001248 <main+0x30c>)
 80010ea:	e9cd 440e 	strd	r4, r4, [sp, #56]	@ 0x38
 80010ee:	f002 fa37 	bl	8003560 <HAL_GPIO_Init>
 80010f2:	4855      	ldr	r0, [pc, #340]	@ (8001248 <main+0x30c>)
 80010f4:	a90c      	add	r1, sp, #48	@ 0x30
 80010f6:	e9cd a90c 	strd	sl, r9, [sp, #48]	@ 0x30
 80010fa:	940e      	str	r4, [sp, #56]	@ 0x38
 80010fc:	f002 fa30 	bl	8003560 <HAL_GPIO_Init>
 8001100:	23a0      	movs	r3, #160	@ 0xa0
 8001102:	484f      	ldr	r0, [pc, #316]	@ (8001240 <main+0x304>)
 8001104:	a90c      	add	r1, sp, #48	@ 0x30
 8001106:	e9cd 380c 	strd	r3, r8, [sp, #48]	@ 0x30
 800110a:	e9cd 440e 	strd	r4, r4, [sp, #56]	@ 0x38
 800110e:	f002 fa27 	bl	8003560 <HAL_GPIO_Init>
 8001112:	484c      	ldr	r0, [pc, #304]	@ (8001244 <main+0x308>)
 8001114:	a90c      	add	r1, sp, #48	@ 0x30
 8001116:	e9cd 880c 	strd	r8, r8, [sp, #48]	@ 0x30
 800111a:	e9cd 440e 	strd	r4, r4, [sp, #56]	@ 0x38
 800111e:	f002 fa1f 	bl	8003560 <HAL_GPIO_Init>
 8001122:	f8d5 3088 	ldr.w	r3, [r5, #136]	@ 0x88
 8001126:	4622      	mov	r2, r4
 8001128:	ea43 0308 	orr.w	r3, r3, r8
 800112c:	f8c5 3088 	str.w	r3, [r5, #136]	@ 0x88
 8001130:	f8d5 3088 	ldr.w	r3, [r5, #136]	@ 0x88
 8001134:	4621      	mov	r1, r4
 8001136:	ea03 0308 	and.w	r3, r3, r8
 800113a:	201d      	movs	r0, #29
 800113c:	9301      	str	r3, [sp, #4]
 800113e:	9b01      	ldr	r3, [sp, #4]
 8001140:	f001 fdd4 	bl	8002cec <HAL_NVIC_SetPriority>
 8001144:	201d      	movs	r0, #29
 8001146:	f001 fe01 	bl	8002d4c <HAL_NVIC_EnableIRQ>
 800114a:	4622      	mov	r2, r4
 800114c:	4621      	mov	r1, r4
 800114e:	2054      	movs	r0, #84	@ 0x54
 8001150:	f001 fdcc 	bl	8002cec <HAL_NVIC_SetPriority>
 8001154:	2054      	movs	r0, #84	@ 0x54
 8001156:	f001 fdf9 	bl	8002d4c <HAL_NVIC_EnableIRQ>
 800115a:	4621      	mov	r1, r4
 800115c:	4622      	mov	r2, r4
 800115e:	2055      	movs	r0, #85	@ 0x55
 8001160:	f001 fdc4 	bl	8002cec <HAL_NVIC_SetPriority>
 8001164:	2055      	movs	r0, #85	@ 0x55
 8001166:	f001 fdf1 	bl	8002d4c <HAL_NVIC_EnableIRQ>
 800116a:	4d38      	ldr	r5, [pc, #224]	@ (800124c <main+0x310>)
 800116c:	f8df c0ec 	ldr.w	ip, [pc, #236]	@ 800125c <main+0x320>
 8001170:	4b37      	ldr	r3, [pc, #220]	@ (8001250 <main+0x314>)
 8001172:	f44f 5880 	mov.w	r8, #4096	@ 0x1000
 8001176:	e9c5 c300 	strd	ip, r3, [r5]
 800117a:	2308      	movs	r3, #8
 800117c:	e9c5 3405 	strd	r3, r4, [r5, #20]
 8001180:	f44f 6300 	mov.w	r3, #2048	@ 0x800
 8001184:	e9c5 3408 	strd	r3, r4, [r5, #32]
 8001188:	2330      	movs	r3, #48	@ 0x30
 800118a:	62ab      	str	r3, [r5, #40]	@ 0x28
 800118c:	f44f 5300 	mov.w	r3, #8192	@ 0x2000
 8001190:	4628      	mov	r0, r5
 8001192:	e9c5 4402 	strd	r4, r4, [r5, #8]
 8001196:	e9c5 830f 	strd	r8, r3, [r5, #60]	@ 0x3c
 800119a:	612c      	str	r4, [r5, #16]
 800119c:	f8c5 a01c 	str.w	sl, [r5, #28]
 80011a0:	f006 fcac 	bl	8007afc <HAL_UART_Init>
 80011a4:	4601      	mov	r1, r0
 80011a6:	b108      	cbz	r0, 80011ac <main+0x270>
 80011a8:	b672      	cpsid	i
 80011aa:	e7fe      	b.n	80011aa <main+0x26e>
 80011ac:	4628      	mov	r0, r5
 80011ae:	f006 fd14 	bl	8007bda <HAL_UARTEx_SetTxFifoThreshold>
 80011b2:	4601      	mov	r1, r0
 80011b4:	b108      	cbz	r0, 80011ba <main+0x27e>
 80011b6:	b672      	cpsid	i
 80011b8:	e7fe      	b.n	80011b8 <main+0x27c>
 80011ba:	4628      	mov	r0, r5
 80011bc:	f006 fd2d 	bl	8007c1a <HAL_UARTEx_SetRxFifoThreshold>
 80011c0:	b108      	cbz	r0, 80011c6 <main+0x28a>
 80011c2:	b672      	cpsid	i
 80011c4:	e7fe      	b.n	80011c4 <main+0x288>
 80011c6:	4628      	mov	r0, r5
 80011c8:	f006 fcec 	bl	8007ba4 <HAL_UARTEx_DisableFifoMode>
 80011cc:	4604      	mov	r4, r0
 80011ce:	b108      	cbz	r0, 80011d4 <main+0x298>
 80011d0:	b672      	cpsid	i
 80011d2:	e7fe      	b.n	80011d2 <main+0x296>
 80011d4:	4601      	mov	r1, r0
 80011d6:	e9cd 0009 	strd	r0, r0, [sp, #36]	@ 0x24
 80011da:	900b      	str	r0, [sp, #44]	@ 0x2c
 80011dc:	221c      	movs	r2, #28
 80011de:	a80c      	add	r0, sp, #48	@ 0x30
 80011e0:	f006 fdfa 	bl	8007dd8 <memset>
 80011e4:	4d1b      	ldr	r5, [pc, #108]	@ (8001254 <main+0x318>)
 80011e6:	4b1c      	ldr	r3, [pc, #112]	@ (8001258 <main+0x31c>)
 80011e8:	4628      	mov	r0, r5
 80011ea:	e9c5 3400 	strd	r3, r4, [r5]
 80011ee:	f44f 53fa 	mov.w	r3, #8000	@ 0x1f40
 80011f2:	60ac      	str	r4, [r5, #8]
 80011f4:	e9c5 3403 	strd	r3, r4, [r5, #12]
 80011f8:	61af      	str	r7, [r5, #24]
 80011fa:	f005 ff0d 	bl	8007018 <HAL_TIM_OC_Init>
 80011fe:	b108      	cbz	r0, 8001204 <main+0x2c8>
 8001200:	b672      	cpsid	i
 8001202:	e7fe      	b.n	8001202 <main+0x2c6>
 8001204:	9009      	str	r0, [sp, #36]	@ 0x24
 8001206:	900b      	str	r0, [sp, #44]	@ 0x2c
 8001208:	a909      	add	r1, sp, #36	@ 0x24
 800120a:	4628      	mov	r0, r5
 800120c:	f005 ffca 	bl	80071a4 <HAL_TIMEx_MasterConfigSynchronization>
 8001210:	4602      	mov	r2, r0
 8001212:	b108      	cbz	r0, 8001218 <main+0x2dc>
 8001214:	b672      	cpsid	i
 8001216:	e7fe      	b.n	8001216 <main+0x2da>
 8001218:	e9cd 000c 	strd	r0, r0, [sp, #48]	@ 0x30
 800121c:	900e      	str	r0, [sp, #56]	@ 0x38
 800121e:	9010      	str	r0, [sp, #64]	@ 0x40
 8001220:	a90c      	add	r1, sp, #48	@ 0x30
 8001222:	4628      	mov	r0, r5
 8001224:	f005 ff8c 	bl	8007140 <HAL_TIM_OC_ConfigChannel>
 8001228:	b1d0      	cbz	r0, 8001260 <main+0x324>
 800122a:	b672      	cpsid	i
 800122c:	e7fe      	b.n	800122c <main+0x2f0>
 800122e:	bf00      	nop
 8001230:	46020c00 	.word	0x46020c00
 8001234:	42020c00 	.word	0x42020c00
 8001238:	42021800 	.word	0x42021800
 800123c:	42020800 	.word	0x42020800
 8001240:	42020400 	.word	0x42020400
 8001244:	42021000 	.word	0x42021000
 8001248:	42020000 	.word	0x42020000
 800124c:	2000010c 	.word	0x2000010c
 8001250:	00989680 	.word	0x00989680
 8001254:	200001a0 	.word	0x200001a0
 8001258:	40000400 	.word	0x40000400
 800125c:	40013800 	.word	0x40013800
 8001260:	f44f 0380 	mov.w	r3, #4194304	@ 0x400000
 8001264:	4c3c      	ldr	r4, [pc, #240]	@ (8001358 <main+0x41c>)
 8001266:	4a3d      	ldr	r2, [pc, #244]	@ (800135c <main+0x420>)
 8001268:	f04f 5500 	mov.w	r5, #536870912	@ 0x20000000
 800126c:	e9c4 2300 	strd	r2, r3, [r4]
 8001270:	230f      	movs	r3, #15
 8001272:	e9c4 3003 	strd	r3, r0, [r4, #12]
 8001276:	2307      	movs	r3, #7
 8001278:	62e3      	str	r3, [r4, #44]	@ 0x2c
 800127a:	f04f 4380 	mov.w	r3, #1073741824	@ 0x40000000
 800127e:	e9c4 300d 	strd	r3, r0, [r4, #52]	@ 0x34
 8001282:	2340      	movs	r3, #64	@ 0x40
 8001284:	e9c4 3613 	strd	r3, r6, [r4, #76]	@ 0x4c
 8001288:	f04f 4300 	mov.w	r3, #2147483648	@ 0x80000000
 800128c:	e9cd 000c 	strd	r0, r0, [sp, #48]	@ 0x30
 8001290:	e9c4 0008 	strd	r0, r0, [r4, #32]
 8001294:	e9c4 3015 	strd	r3, r0, [r4, #84]	@ 0x54
 8001298:	e9c4 0017 	strd	r0, r0, [r4, #92]	@ 0x5c
 800129c:	900e      	str	r0, [sp, #56]	@ 0x38
 800129e:	60a0      	str	r0, [r4, #8]
 80012a0:	6160      	str	r0, [r4, #20]
 80012a2:	62a0      	str	r0, [r4, #40]	@ 0x28
 80012a4:	63e0      	str	r0, [r4, #60]	@ 0x3c
 80012a6:	64a0      	str	r0, [r4, #72]	@ 0x48
 80012a8:	4620      	mov	r0, r4
 80012aa:	e9c4 5506 	strd	r5, r5, [r4, #24]
 80012ae:	f004 ff99 	bl	80061e4 <HAL_SPI_Init>
 80012b2:	b108      	cbz	r0, 80012b8 <main+0x37c>
 80012b4:	b672      	cpsid	i
 80012b6:	e7fe      	b.n	80012b6 <main+0x37a>
 80012b8:	e9cd 050c 	strd	r0, r5, [sp, #48]	@ 0x30
 80012bc:	900e      	str	r0, [sp, #56]	@ 0x38
 80012be:	a90c      	add	r1, sp, #48	@ 0x30
 80012c0:	4620      	mov	r0, r4
 80012c2:	f005 fab5 	bl	8006830 <HAL_SPIEx_SetConfigAutonomousMode>
 80012c6:	b108      	cbz	r0, 80012cc <main+0x390>
 80012c8:	b672      	cpsid	i
 80012ca:	e7fe      	b.n	80012ca <main+0x38e>
 80012cc:	2000      	movs	r0, #0
 80012ce:	f002 fa5b 	bl	8003788 <HAL_ICACHE_ConfigAssociativityMode>
 80012d2:	b108      	cbz	r0, 80012d8 <main+0x39c>
 80012d4:	b672      	cpsid	i
 80012d6:	e7fe      	b.n	80012d6 <main+0x39a>
 80012d8:	f002 fa66 	bl	80037a8 <HAL_ICACHE_Enable>
 80012dc:	4604      	mov	r4, r0
 80012de:	b108      	cbz	r0, 80012e4 <main+0x3a8>
 80012e0:	b672      	cpsid	i
 80012e2:	e7fe      	b.n	80012e2 <main+0x3a6>
 80012e4:	4a1e      	ldr	r2, [pc, #120]	@ (8001360 <main+0x424>)
 80012e6:	4d1f      	ldr	r5, [pc, #124]	@ (8001364 <main+0x428>)
 80012e8:	6893      	ldr	r3, [r2, #8]
 80012ea:	f043 0302 	orr.w	r3, r3, #2
 80012ee:	6093      	str	r3, [r2, #8]
 80012f0:	f000 f93a 	bl	8001568 <allocate_sample_memory>
 80012f4:	f000 f8da 	bl	80014ac <initialize_spi_with_dma>
 80012f8:	a80c      	add	r0, sp, #48	@ 0x30
 80012fa:	f001 fbcc 	bl	8002a96 <configure_registers>
 80012fe:	f001 fbcc 	bl	8002a9a <configure_convert_commands>
 8001302:	a80c      	add	r0, sp, #48	@ 0x30
 8001304:	f001 fbcc 	bl	8002aa0 <configure_aux_commands>
 8001308:	2201      	movs	r2, #1
 800130a:	2180      	movs	r1, #128	@ 0x80
 800130c:	4816      	ldr	r0, [pc, #88]	@ (8001368 <main+0x42c>)
 800130e:	f002 fa35 	bl	800377c <HAL_GPIO_WritePin>
 8001312:	4b16      	ldr	r3, [pc, #88]	@ (800136c <main+0x430>)
 8001314:	4816      	ldr	r0, [pc, #88]	@ (8001370 <main+0x434>)
 8001316:	801c      	strh	r4, [r3, #0]
 8001318:	f005 fc80 	bl	8006c1c <HAL_TIM_Base_Start_IT>
 800131c:	2301      	movs	r3, #1
 800131e:	4c12      	ldr	r4, [pc, #72]	@ (8001368 <main+0x42c>)
 8001320:	702b      	strb	r3, [r5, #0]
 8001322:	f001 fb8b 	bl	8002a3c <loop_escape>
 8001326:	b930      	cbnz	r0, 8001336 <main+0x3fa>
 8001328:	2201      	movs	r2, #1
 800132a:	f44f 7180 	mov.w	r1, #256	@ 0x100
 800132e:	4620      	mov	r0, r4
 8001330:	f002 fa24 	bl	800377c <HAL_GPIO_WritePin>
 8001334:	e7f5      	b.n	8001322 <main+0x3e6>
 8001336:	2400      	movs	r4, #0
 8001338:	480d      	ldr	r0, [pc, #52]	@ (8001370 <main+0x434>)
 800133a:	f005 fcc9 	bl	8006cd0 <HAL_TIM_Base_Stop_IT>
 800133e:	702c      	strb	r4, [r5, #0]
 8001340:	f000 f8b5 	bl	80014ae <end_spi_with_dma>
 8001344:	f001 fbda 	bl	8002afc <transmit_data_offline>
 8001348:	f000 f8aa 	bl	80014a0 <free_sample_memory>
 800134c:	4622      	mov	r2, r4
 800134e:	2180      	movs	r1, #128	@ 0x80
 8001350:	4805      	ldr	r0, [pc, #20]	@ (8001368 <main+0x42c>)
 8001352:	f002 fa13 	bl	800377c <HAL_GPIO_WritePin>
 8001356:	e7fe      	b.n	8001356 <main+0x41a>
 8001358:	200002dc 	.word	0x200002dc
 800135c:	46002000 	.word	0x46002000
 8001360:	e0044000 	.word	0xe0044000
 8001364:	2000036c 	.word	0x2000036c
 8001368:	42020800 	.word	0x42020800
 800136c:	20000674 	.word	0x20000674
 8001370:	200001a0 	.word	0x200001a0

08001374 <Error_Handler>:
 8001374:	b672      	cpsid	i
 8001376:	e7fe      	b.n	8001376 <Error_Handler+0x2>

08001378 <handle_comm_error.part.0>:
 8001378:	4604      	mov	r4, r0
 800137a:	b580      	push	{r7, lr}
 800137c:	2201      	movs	r2, #1
 800137e:	2104      	movs	r1, #4
 8001380:	4811      	ldr	r0, [pc, #68]	@ (80013c8 <handle_comm_error.part.0+0x50>)
 8001382:	f002 f9fb 	bl	800377c <HAL_GPIO_WritePin>
 8001386:	07e3      	lsls	r3, r4, #31
 8001388:	f3c4 0740 	ubfx	r7, r4, #1, #1
 800138c:	f3c4 0680 	ubfx	r6, r4, #2, #1
 8001390:	f3c4 05c0 	ubfx	r5, r4, #3, #1
 8001394:	d504      	bpl.n	80013a0 <handle_comm_error.part.0+0x28>
 8001396:	2201      	movs	r2, #1
 8001398:	2140      	movs	r1, #64	@ 0x40
 800139a:	480b      	ldr	r0, [pc, #44]	@ (80013c8 <handle_comm_error.part.0+0x50>)
 800139c:	f002 f9ee 	bl	800377c <HAL_GPIO_WritePin>
 80013a0:	b127      	cbz	r7, 80013ac <handle_comm_error.part.0+0x34>
 80013a2:	2201      	movs	r2, #1
 80013a4:	2120      	movs	r1, #32
 80013a6:	4808      	ldr	r0, [pc, #32]	@ (80013c8 <handle_comm_error.part.0+0x50>)
 80013a8:	f002 f9e8 	bl	800377c <HAL_GPIO_WritePin>
 80013ac:	b12e      	cbz	r6, 80013ba <handle_comm_error.part.0+0x42>
 80013ae:	2201      	movs	r2, #1
 80013b0:	f44f 7180 	mov.w	r1, #256	@ 0x100
 80013b4:	4804      	ldr	r0, [pc, #16]	@ (80013c8 <handle_comm_error.part.0+0x50>)
 80013b6:	f002 f9e1 	bl	800377c <HAL_GPIO_WritePin>
 80013ba:	b125      	cbz	r5, 80013c6 <handle_comm_error.part.0+0x4e>
 80013bc:	2201      	movs	r2, #1
 80013be:	4803      	ldr	r0, [pc, #12]	@ (80013cc <handle_comm_error.part.0+0x54>)
 80013c0:	4611      	mov	r1, r2
 80013c2:	f002 f9db 	bl	800377c <HAL_GPIO_WritePin>
 80013c6:	e7fe      	b.n	80013c6 <handle_comm_error.part.0+0x4e>
 80013c8:	42021800 	.word	0x42021800
 80013cc:	42021000 	.word	0x42021000

080013d0 <cycle_aux_commands>:
 80013d0:	4b10      	ldr	r3, [pc, #64]	@ (8001414 <cycle_aux_commands+0x44>)
 80013d2:	4911      	ldr	r1, [pc, #68]	@ (8001418 <cycle_aux_commands+0x48>)
 80013d4:	781a      	ldrb	r2, [r3, #0]
 80013d6:	b2d2      	uxtb	r2, r2
 80013d8:	f831 0012 	ldrh.w	r0, [r1, r2, lsl #1]
 80013dc:	4a0f      	ldr	r2, [pc, #60]	@ (800141c <cycle_aux_commands+0x4c>)
 80013de:	b280      	uxth	r0, r0
 80013e0:	f8a2 0040 	strh.w	r0, [r2, #64]	@ 0x40
 80013e4:	7818      	ldrb	r0, [r3, #0]
 80013e6:	3080      	adds	r0, #128	@ 0x80
 80013e8:	f831 0010 	ldrh.w	r0, [r1, r0, lsl #1]
 80013ec:	b280      	uxth	r0, r0
 80013ee:	f8a2 0042 	strh.w	r0, [r2, #66]	@ 0x42
 80013f2:	7818      	ldrb	r0, [r3, #0]
 80013f4:	f500 7080 	add.w	r0, r0, #256	@ 0x100
 80013f8:	f831 1010 	ldrh.w	r1, [r1, r0, lsl #1]
 80013fc:	b289      	uxth	r1, r1
 80013fe:	f8a2 1044 	strh.w	r1, [r2, #68]	@ 0x44
 8001402:	781a      	ldrb	r2, [r3, #0]
 8001404:	3201      	adds	r2, #1
 8001406:	b2d2      	uxtb	r2, r2
 8001408:	701a      	strb	r2, [r3, #0]
 800140a:	0612      	lsls	r2, r2, #24
 800140c:	bf44      	itt	mi
 800140e:	2200      	movmi	r2, #0
 8001410:	701a      	strbmi	r2, [r3, #0]
 8001412:	4770      	bx	lr
 8001414:	2000036e 	.word	0x2000036e
 8001418:	20000370 	.word	0x20000370
 800141c:	200006bc 	.word	0x200006bc

08001420 <transfer_sequence_spi_dma>:
 8001420:	b508      	push	{r3, lr}
 8001422:	4a06      	ldr	r2, [pc, #24]	@ (800143c <transfer_sequence_spi_dma+0x1c>)
 8001424:	2323      	movs	r3, #35	@ 0x23
 8001426:	4906      	ldr	r1, [pc, #24]	@ (8001440 <transfer_sequence_spi_dma+0x20>)
 8001428:	4806      	ldr	r0, [pc, #24]	@ (8001444 <transfer_sequence_spi_dma+0x24>)
 800142a:	f004 ff7d 	bl	8006328 <HAL_SPI_TransmitReceive_DMA>
 800142e:	b118      	cbz	r0, 8001438 <transfer_sequence_spi_dma+0x18>
 8001430:	e8bd 4008 	ldmia.w	sp!, {r3, lr}
 8001434:	f7ff bf9e 	b.w	8001374 <Error_Handler>
 8001438:	bd08      	pop	{r3, pc}
 800143a:	bf00      	nop
 800143c:	20000676 	.word	0x20000676
 8001440:	200006bc 	.word	0x200006bc
 8001444:	200002dc 	.word	0x200002dc

08001448 <sample_interrupt_routine>:
 8001448:	b538      	push	{r3, r4, r5, lr}
 800144a:	f001 faf7 	bl	8002a3c <loop_escape>
 800144e:	4604      	mov	r4, r0
 8001450:	b9f0      	cbnz	r0, 8001490 <sample_interrupt_routine+0x48>
 8001452:	4d10      	ldr	r5, [pc, #64]	@ (8001494 <sample_interrupt_routine+0x4c>)
 8001454:	4602      	mov	r2, r0
 8001456:	f44f 7180 	mov.w	r1, #256	@ 0x100
 800145a:	480f      	ldr	r0, [pc, #60]	@ (8001498 <sample_interrupt_routine+0x50>)
 800145c:	f002 f98e 	bl	800377c <HAL_GPIO_WritePin>
 8001460:	f7ff ffb6 	bl	80013d0 <cycle_aux_commands>
 8001464:	682b      	ldr	r3, [r5, #0]
 8001466:	b913      	cbnz	r3, 800146e <sample_interrupt_routine+0x26>
 8001468:	2005      	movs	r0, #5
 800146a:	f7ff ff85 	bl	8001378 <handle_comm_error.part.0>
 800146e:	2201      	movs	r2, #1
 8001470:	f44f 7100 	mov.w	r1, #512	@ 0x200
 8001474:	4809      	ldr	r0, [pc, #36]	@ (800149c <sample_interrupt_routine+0x54>)
 8001476:	f002 f981 	bl	800377c <HAL_GPIO_WritePin>
 800147a:	602c      	str	r4, [r5, #0]
 800147c:	f7ff ffd0 	bl	8001420 <transfer_sequence_spi_dma>
 8001480:	4622      	mov	r2, r4
 8001482:	e8bd 4038 	ldmia.w	sp!, {r3, r4, r5, lr}
 8001486:	f44f 7100 	mov.w	r1, #512	@ 0x200
 800148a:	4804      	ldr	r0, [pc, #16]	@ (800149c <sample_interrupt_routine+0x54>)
 800148c:	f002 b976 	b.w	800377c <HAL_GPIO_WritePin>
 8001490:	bd38      	pop	{r3, r4, r5, pc}
 8001492:	bf00      	nop
 8001494:	20000004 	.word	0x20000004
 8001498:	42020800 	.word	0x42020800
 800149c:	42020c00 	.word	0x42020c00

080014a0 <free_sample_memory>:
 80014a0:	4b01      	ldr	r3, [pc, #4]	@ (80014a8 <free_sample_memory+0x8>)
 80014a2:	6818      	ldr	r0, [r3, #0]
 80014a4:	f006 bbe2 	b.w	8007c6c <free>
 80014a8:	20000670 	.word	0x20000670

080014ac <initialize_spi_with_dma>:
 80014ac:	4770      	bx	lr

080014ae <end_spi_with_dma>:
 80014ae:	4770      	bx	lr

080014b0 <spi_txrx_cplt_callback>:
 80014b0:	b508      	push	{r3, lr}
 80014b2:	4b0b      	ldr	r3, [pc, #44]	@ (80014e0 <spi_txrx_cplt_callback+0x30>)
 80014b4:	781b      	ldrb	r3, [r3, #0]
 80014b6:	f003 02ff 	and.w	r2, r3, #255	@ 0xff
 80014ba:	b16b      	cbz	r3, 80014d8 <spi_txrx_cplt_callback+0x28>
 80014bc:	2200      	movs	r2, #0
 80014be:	f44f 7180 	mov.w	r1, #256	@ 0x100
 80014c2:	4808      	ldr	r0, [pc, #32]	@ (80014e4 <spi_txrx_cplt_callback+0x34>)
 80014c4:	f002 f95a 	bl	800377c <HAL_GPIO_WritePin>
 80014c8:	f001 fac6 	bl	8002a58 <write_data_to_memory>
 80014cc:	f001 fae2 	bl	8002a94 <transmit_data_realtime>
 80014d0:	2201      	movs	r2, #1
 80014d2:	4b05      	ldr	r3, [pc, #20]	@ (80014e8 <spi_txrx_cplt_callback+0x38>)
 80014d4:	601a      	str	r2, [r3, #0]
 80014d6:	bd08      	pop	{r3, pc}
 80014d8:	4b04      	ldr	r3, [pc, #16]	@ (80014ec <spi_txrx_cplt_callback+0x3c>)
 80014da:	701a      	strb	r2, [r3, #0]
 80014dc:	e7fb      	b.n	80014d6 <spi_txrx_cplt_callback+0x26>
 80014de:	bf00      	nop
 80014e0:	2000036c 	.word	0x2000036c
 80014e4:	42020800 	.word	0x42020800
 80014e8:	20000004 	.word	0x20000004
 80014ec:	2000036d 	.word	0x2000036d

080014f0 <calculate_sample_rate>:
 80014f0:	e92d 43f8 	stmdb	sp!, {r3, r4, r5, r6, r7, r8, r9, lr}
 80014f4:	f003 f890 	bl	8004618 <HAL_RCC_GetPCLK1Freq>
 80014f8:	4b18      	ldr	r3, [pc, #96]	@ (800155c <calculate_sample_rate+0x6c>)
 80014fa:	f04f 0800 	mov.w	r8, #0
 80014fe:	691a      	ldr	r2, [r3, #16]
 8001500:	685f      	ldr	r7, [r3, #4]
 8001502:	2a01      	cmp	r2, #1
 8001504:	68de      	ldr	r6, [r3, #12]
 8001506:	d023      	beq.n	8001550 <calculate_sample_rate+0x60>
 8001508:	2a02      	cmp	r2, #2
 800150a:	d024      	beq.n	8001556 <calculate_sample_rate+0x66>
 800150c:	f8df 9050 	ldr.w	r9, [pc, #80]	@ 8001560 <calculate_sample_rate+0x70>
 8001510:	f7ff f800 	bl	8000514 <__aeabi_ui2d>
 8001514:	4604      	mov	r4, r0
 8001516:	1c78      	adds	r0, r7, #1
 8001518:	460d      	mov	r5, r1
 800151a:	f7fe fffb 	bl	8000514 <__aeabi_ui2d>
 800151e:	4642      	mov	r2, r8
 8001520:	464b      	mov	r3, r9
 8001522:	f7ff f871 	bl	8000608 <__aeabi_dmul>
 8001526:	4602      	mov	r2, r0
 8001528:	460b      	mov	r3, r1
 800152a:	4620      	mov	r0, r4
 800152c:	4629      	mov	r1, r5
 800152e:	f7ff f995 	bl	800085c <__aeabi_ddiv>
 8001532:	4604      	mov	r4, r0
 8001534:	4630      	mov	r0, r6
 8001536:	460d      	mov	r5, r1
 8001538:	f7fe ffec 	bl	8000514 <__aeabi_ui2d>
 800153c:	4602      	mov	r2, r0
 800153e:	460b      	mov	r3, r1
 8001540:	4620      	mov	r0, r4
 8001542:	4629      	mov	r1, r5
 8001544:	f7ff f98a 	bl	800085c <__aeabi_ddiv>
 8001548:	ec41 0b10 	vmov	d0, r0, r1
 800154c:	e8bd 83f8 	ldmia.w	sp!, {r3, r4, r5, r6, r7, r8, r9, pc}
 8001550:	f04f 4980 	mov.w	r9, #1073741824	@ 0x40000000
 8001554:	e7dc      	b.n	8001510 <calculate_sample_rate+0x20>
 8001556:	f8df 900c 	ldr.w	r9, [pc, #12]	@ 8001564 <calculate_sample_rate+0x74>
 800155a:	e7d9      	b.n	8001510 <calculate_sample_rate+0x20>
 800155c:	200001a0 	.word	0x200001a0
 8001560:	3ff00000 	.word	0x3ff00000
 8001564:	40100000 	.word	0x40100000

08001568 <allocate_sample_memory>:
 8001568:	b508      	push	{r3, lr}
 800156a:	f7ff ffc1 	bl	80014f0 <calculate_sample_rate>
 800156e:	ec51 0b10 	vmov	r0, r1, d0
 8001572:	f7ff faf9 	bl	8000b68 <__aeabi_d2uiz>
 8001576:	4b04      	ldr	r3, [pc, #16]	@ (8001588 <allocate_sample_memory+0x20>)
 8001578:	6018      	str	r0, [r3, #0]
 800157a:	00c0      	lsls	r0, r0, #3
 800157c:	f006 fb6e 	bl	8007c5c <malloc>
 8001580:	4b02      	ldr	r3, [pc, #8]	@ (800158c <allocate_sample_memory+0x24>)
 8001582:	6018      	str	r0, [r3, #0]
 8001584:	bd08      	pop	{r3, pc}
 8001586:	bf00      	nop
 8001588:	20000008 	.word	0x20000008
 800158c:	20000670 	.word	0x20000670

08001590 <create_convert_sequence>:
 8001590:	b570      	push	{r4, r5, r6, lr}
 8001592:	4604      	mov	r4, r0
 8001594:	4e0b      	ldr	r6, [pc, #44]	@ (80015c4 <create_convert_sequence+0x34>)
 8001596:	b948      	cbnz	r0, 80015ac <create_convert_sequence+0x1c>
 8001598:	b2e0      	uxtb	r0, r4
 800159a:	2100      	movs	r1, #0
 800159c:	f001 f839 	bl	8002612 <convert_command>
 80015a0:	f826 0014 	strh.w	r0, [r6, r4, lsl #1]
 80015a4:	3401      	adds	r4, #1
 80015a6:	2c20      	cmp	r4, #32
 80015a8:	d1f6      	bne.n	8001598 <create_convert_sequence+0x8>
 80015aa:	bd70      	pop	{r4, r5, r6, pc}
 80015ac:	2500      	movs	r5, #0
 80015ae:	5d60      	ldrb	r0, [r4, r5]
 80015b0:	2100      	movs	r1, #0
 80015b2:	f001 f82e 	bl	8002612 <convert_command>
 80015b6:	f826 0015 	strh.w	r0, [r6, r5, lsl #1]
 80015ba:	3501      	adds	r5, #1
 80015bc:	2d20      	cmp	r5, #32
 80015be:	d1f6      	bne.n	80015ae <create_convert_sequence+0x1e>
 80015c0:	e7f3      	b.n	80015aa <create_convert_sequence+0x1a>
 80015c2:	bf00      	nop
 80015c4:	200006bc 	.word	0x200006bc

080015c8 <create_command_list_RHD_register_config>:
 80015c8:	e92d 4ff7 	stmdb	sp!, {r0, r1, r2, r4, r5, r6, r7, r8, r9, sl, fp, lr}
 80015cc:	4680      	mov	r8, r0
 80015ce:	203f      	movs	r0, #63	@ 0x3f
 80015d0:	460c      	mov	r4, r1
 80015d2:	461f      	mov	r7, r3
 80015d4:	9201      	str	r2, [sp, #4]
 80015d6:	f001 f827 	bl	8002628 <read_command>
 80015da:	8020      	strh	r0, [r4, #0]
 80015dc:	203f      	movs	r0, #63	@ 0x3f
 80015de:	f001 f823 	bl	8002628 <read_command>
 80015e2:	2500      	movs	r5, #0
 80015e4:	2602      	movs	r6, #2
 80015e6:	f04f 0a48 	mov.w	sl, #72	@ 0x48
 80015ea:	8060      	strh	r0, [r4, #2]
 80015ec:	fa2a f305 	lsr.w	r3, sl, r5
 80015f0:	07db      	lsls	r3, r3, #31
 80015f2:	d40c      	bmi.n	800160e <create_command_list_RHD_register_config+0x46>
 80015f4:	4629      	mov	r1, r5
 80015f6:	4640      	mov	r0, r8
 80015f8:	f000 ff22 	bl	8002440 <get_register_value>
 80015fc:	b2c1      	uxtb	r1, r0
 80015fe:	b2e8      	uxtb	r0, r5
 8001600:	f001 f80d 	bl	800261e <write_command>
 8001604:	f106 0b01 	add.w	fp, r6, #1
 8001608:	f824 0016 	strh.w	r0, [r4, r6, lsl #1]
 800160c:	465e      	mov	r6, fp
 800160e:	3501      	adds	r5, #1
 8001610:	2d12      	cmp	r5, #18
 8001612:	d1eb      	bne.n	80015ec <create_command_list_RHD_register_config+0x24>
 8001614:	203f      	movs	r0, #63	@ 0x3f
 8001616:	f001 f807 	bl	8002628 <read_command>
 800161a:	f824 0016 	strh.w	r0, [r4, r6, lsl #1]
 800161e:	203e      	movs	r0, #62	@ 0x3e
 8001620:	f001 f802 	bl	8002628 <read_command>
 8001624:	0075      	lsls	r5, r6, #1
 8001626:	f105 0a02 	add.w	sl, r5, #2
 800162a:	f824 000a 	strh.w	r0, [r4, sl]
 800162e:	203d      	movs	r0, #61	@ 0x3d
 8001630:	f000 fffa 	bl	8002628 <read_command>
 8001634:	f105 0a04 	add.w	sl, r5, #4
 8001638:	f824 000a 	strh.w	r0, [r4, sl]
 800163c:	203c      	movs	r0, #60	@ 0x3c
 800163e:	f000 fff3 	bl	8002628 <read_command>
 8001642:	f105 0a06 	add.w	sl, r5, #6
 8001646:	f824 000a 	strh.w	r0, [r4, sl]
 800164a:	203b      	movs	r0, #59	@ 0x3b
 800164c:	f000 ffec 	bl	8002628 <read_command>
 8001650:	f105 0a08 	add.w	sl, r5, #8
 8001654:	f824 000a 	strh.w	r0, [r4, sl]
 8001658:	2030      	movs	r0, #48	@ 0x30
 800165a:	f000 ffe5 	bl	8002628 <read_command>
 800165e:	f105 0a0a 	add.w	sl, r5, #10
 8001662:	f824 000a 	strh.w	r0, [r4, sl]
 8001666:	2031      	movs	r0, #49	@ 0x31
 8001668:	f000 ffde 	bl	8002628 <read_command>
 800166c:	f105 0a0c 	add.w	sl, r5, #12
 8001670:	f824 000a 	strh.w	r0, [r4, sl]
 8001674:	2032      	movs	r0, #50	@ 0x32
 8001676:	f000 ffd7 	bl	8002628 <read_command>
 800167a:	f105 0a0e 	add.w	sl, r5, #14
 800167e:	f824 000a 	strh.w	r0, [r4, sl]
 8001682:	2033      	movs	r0, #51	@ 0x33
 8001684:	f000 ffd0 	bl	8002628 <read_command>
 8001688:	f105 0a10 	add.w	sl, r5, #16
 800168c:	f824 000a 	strh.w	r0, [r4, sl]
 8001690:	2034      	movs	r0, #52	@ 0x34
 8001692:	f000 ffc9 	bl	8002628 <read_command>
 8001696:	f105 0a12 	add.w	sl, r5, #18
 800169a:	f824 000a 	strh.w	r0, [r4, sl]
 800169e:	2035      	movs	r0, #53	@ 0x35
 80016a0:	f000 ffc2 	bl	8002628 <read_command>
 80016a4:	f105 0a14 	add.w	sl, r5, #20
 80016a8:	f824 000a 	strh.w	r0, [r4, sl]
 80016ac:	2036      	movs	r0, #54	@ 0x36
 80016ae:	f000 ffbb 	bl	8002628 <read_command>
 80016b2:	f105 0a16 	add.w	sl, r5, #22
 80016b6:	f824 000a 	strh.w	r0, [r4, sl]
 80016ba:	2037      	movs	r0, #55	@ 0x37
 80016bc:	f000 ffb4 	bl	8002628 <read_command>
 80016c0:	f105 0a18 	add.w	sl, r5, #24
 80016c4:	f824 000a 	strh.w	r0, [r4, sl]
 80016c8:	2028      	movs	r0, #40	@ 0x28
 80016ca:	f000 ffad 	bl	8002628 <read_command>
 80016ce:	f105 0a1a 	add.w	sl, r5, #26
 80016d2:	f824 000a 	strh.w	r0, [r4, sl]
 80016d6:	2029      	movs	r0, #41	@ 0x29
 80016d8:	f000 ffa6 	bl	8002628 <read_command>
 80016dc:	f105 0a1c 	add.w	sl, r5, #28
 80016e0:	f824 000a 	strh.w	r0, [r4, sl]
 80016e4:	202a      	movs	r0, #42	@ 0x2a
 80016e6:	f000 ff9f 	bl	8002628 <read_command>
 80016ea:	f105 0a1e 	add.w	sl, r5, #30
 80016ee:	f824 000a 	strh.w	r0, [r4, sl]
 80016f2:	202b      	movs	r0, #43	@ 0x2b
 80016f4:	f000 ff98 	bl	8002628 <read_command>
 80016f8:	f105 0a20 	add.w	sl, r5, #32
 80016fc:	f824 000a 	strh.w	r0, [r4, sl]
 8001700:	202c      	movs	r0, #44	@ 0x2c
 8001702:	f000 ff91 	bl	8002628 <read_command>
 8001706:	f04f 0900 	mov.w	r9, #0
 800170a:	f106 4a00 	add.w	sl, r6, #2147483648	@ 0x80000000
 800170e:	3522      	adds	r5, #34	@ 0x22
 8001710:	f10a 0b11 	add.w	fp, sl, #17
 8001714:	5360      	strh	r0, [r4, r5]
 8001716:	ea4f 054b 	mov.w	r5, fp, lsl #1
 800171a:	eb04 0b4b 	add.w	fp, r4, fp, lsl #1
 800171e:	fa5f f089 	uxtb.w	r0, r9
 8001722:	f000 ff81 	bl	8002628 <read_command>
 8001726:	f109 0901 	add.w	r9, r9, #1
 800172a:	f1b9 0f12 	cmp.w	r9, #18
 800172e:	f82b 0f02 	strh.w	r0, [fp, #2]!
 8001732:	d1f4      	bne.n	800171e <create_command_list_RHD_register_config+0x156>
 8001734:	9b01      	ldr	r3, [sp, #4]
 8001736:	f105 0b26 	add.w	fp, r5, #38	@ 0x26
 800173a:	2b00      	cmp	r3, #0
 800173c:	d04b      	beq.n	80017d6 <create_command_list_RHD_register_config+0x20e>
 800173e:	f000 ff6b 	bl	8002618 <calibrate_command>
 8001742:	f824 000b 	strh.w	r0, [r4, fp]
 8001746:	2112      	movs	r1, #18
 8001748:	4640      	mov	r0, r8
 800174a:	f000 fe79 	bl	8002440 <get_register_value>
 800174e:	b2c1      	uxtb	r1, r0
 8001750:	2012      	movs	r0, #18
 8001752:	f000 ff64 	bl	800261e <write_command>
 8001756:	f105 0928 	add.w	r9, r5, #40	@ 0x28
 800175a:	f824 0009 	strh.w	r0, [r4, r9]
 800175e:	2113      	movs	r1, #19
 8001760:	4640      	mov	r0, r8
 8001762:	f000 fe6d 	bl	8002440 <get_register_value>
 8001766:	b2c1      	uxtb	r1, r0
 8001768:	2013      	movs	r0, #19
 800176a:	f000 ff58 	bl	800261e <write_command>
 800176e:	f105 092a 	add.w	r9, r5, #42	@ 0x2a
 8001772:	f824 0009 	strh.w	r0, [r4, r9]
 8001776:	2114      	movs	r1, #20
 8001778:	4640      	mov	r0, r8
 800177a:	f000 fe61 	bl	8002440 <get_register_value>
 800177e:	b2c1      	uxtb	r1, r0
 8001780:	2014      	movs	r0, #20
 8001782:	f000 ff4c 	bl	800261e <write_command>
 8001786:	f105 092c 	add.w	r9, r5, #44	@ 0x2c
 800178a:	f824 0009 	strh.w	r0, [r4, r9]
 800178e:	2115      	movs	r1, #21
 8001790:	4640      	mov	r0, r8
 8001792:	f000 fe55 	bl	8002440 <get_register_value>
 8001796:	b2c1      	uxtb	r1, r0
 8001798:	2015      	movs	r0, #21
 800179a:	f000 ff40 	bl	800261e <write_command>
 800179e:	f105 082e 	add.w	r8, r5, #46	@ 0x2e
 80017a2:	f824 0008 	strh.w	r0, [r4, r8]
 80017a6:	203f      	movs	r0, #63	@ 0x3f
 80017a8:	f000 ff3e 	bl	8002628 <read_command>
 80017ac:	3530      	adds	r5, #48	@ 0x30
 80017ae:	5360      	strh	r0, [r4, r5]
 80017b0:	2500      	movs	r5, #0
 80017b2:	f10a 0a29 	add.w	sl, sl, #41	@ 0x29
 80017b6:	362a      	adds	r6, #42	@ 0x2a
 80017b8:	eb04 044a 	add.w	r4, r4, sl, lsl #1
 80017bc:	f1a7 083c 	sub.w	r8, r7, #60	@ 0x3c
 80017c0:	45a8      	cmp	r8, r5
 80017c2:	dc0c      	bgt.n	80017de <create_command_list_RHD_register_config+0x216>
 80017c4:	2f3c      	cmp	r7, #60	@ 0x3c
 80017c6:	bfb8      	it	lt
 80017c8:	273c      	movlt	r7, #60	@ 0x3c
 80017ca:	f1a7 003c 	sub.w	r0, r7, #60	@ 0x3c
 80017ce:	4430      	add	r0, r6
 80017d0:	b003      	add	sp, #12
 80017d2:	e8bd 8ff0 	ldmia.w	sp!, {r4, r5, r6, r7, r8, r9, sl, fp, pc}
 80017d6:	203f      	movs	r0, #63	@ 0x3f
 80017d8:	f000 ff26 	bl	8002628 <read_command>
 80017dc:	e7b1      	b.n	8001742 <create_command_list_RHD_register_config+0x17a>
 80017de:	203f      	movs	r0, #63	@ 0x3f
 80017e0:	f000 ff22 	bl	8002628 <read_command>
 80017e4:	3501      	adds	r5, #1
 80017e6:	f824 0f02 	strh.w	r0, [r4, #2]!
 80017ea:	e7e9      	b.n	80017c0 <create_command_list_RHD_register_config+0x1f8>

080017ec <create_command_list_dummy>:
 80017ec:	2000      	movs	r0, #0
 80017ee:	4282      	cmp	r2, r0
 80017f0:	dc02      	bgt.n	80017f8 <create_command_list_dummy+0xc>
 80017f2:	ea22 70e2 	bic.w	r0, r2, r2, asr #31
 80017f6:	4770      	bx	lr
 80017f8:	f821 3010 	strh.w	r3, [r1, r0, lsl #1]
 80017fc:	3001      	adds	r0, #1
 80017fe:	e7f6      	b.n	80017ee <create_command_list_dummy+0x2>

08001800 <send_receive_spi_command>:
 8001800:	2301      	movs	r3, #1
 8001802:	b513      	push	{r0, r1, r4, lr}
 8001804:	4c08      	ldr	r4, [pc, #32]	@ (8001828 <send_receive_spi_command+0x28>)
 8001806:	460a      	mov	r2, r1
 8001808:	f8ad 0006 	strh.w	r0, [sp, #6]
 800180c:	f10d 0106 	add.w	r1, sp, #6
 8001810:	4806      	ldr	r0, [pc, #24]	@ (800182c <send_receive_spi_command+0x2c>)
 8001812:	7023      	strb	r3, [r4, #0]
 8001814:	f004 fd88 	bl	8006328 <HAL_SPI_TransmitReceive_DMA>
 8001818:	b108      	cbz	r0, 800181e <send_receive_spi_command+0x1e>
 800181a:	f7ff fdab 	bl	8001374 <Error_Handler>
 800181e:	7823      	ldrb	r3, [r4, #0]
 8001820:	2b01      	cmp	r3, #1
 8001822:	d0fc      	beq.n	800181e <send_receive_spi_command+0x1e>
 8001824:	b002      	add	sp, #8
 8001826:	bd10      	pop	{r4, pc}
 8001828:	2000036d 	.word	0x2000036d
 800182c:	200002dc 	.word	0x200002dc

08001830 <send_spi_command>:
 8001830:	2300      	movs	r3, #0
 8001832:	b507      	push	{r0, r1, r2, lr}
 8001834:	f10d 0106 	add.w	r1, sp, #6
 8001838:	f8ad 3006 	strh.w	r3, [sp, #6]
 800183c:	f7ff ffe0 	bl	8001800 <send_receive_spi_command>
 8001840:	b003      	add	sp, #12
 8001842:	f85d fb04 	ldr.w	pc, [sp], #4

08001846 <write_initial_reg_values>:
 8001846:	b5f0      	push	{r4, r5, r6, r7, lr}
 8001848:	b08b      	sub	sp, #44	@ 0x2c
 800184a:	4604      	mov	r4, r0
 800184c:	f7ff fe50 	bl	80014f0 <calculate_sample_rate>
 8001850:	ae01      	add	r6, sp, #4
 8001852:	ed84 0b00 	vstr	d0, [r4]
 8001856:	4620      	mov	r0, r4
 8001858:	f000 fd9e 	bl	8002398 <set_default_rhd_settings>
 800185c:	4637      	mov	r7, r6
 800185e:	2500      	movs	r5, #0
 8001860:	4629      	mov	r1, r5
 8001862:	4620      	mov	r0, r4
 8001864:	f000 fdec 	bl	8002440 <get_register_value>
 8001868:	3501      	adds	r5, #1
 800186a:	2d12      	cmp	r5, #18
 800186c:	f827 0b02 	strh.w	r0, [r7], #2
 8001870:	d1f6      	bne.n	8001860 <write_initial_reg_values+0x1a>
 8001872:	203f      	movs	r0, #63	@ 0x3f
 8001874:	f000 fed8 	bl	8002628 <read_command>
 8001878:	f7ff ffda 	bl	8001830 <send_spi_command>
 800187c:	203f      	movs	r0, #63	@ 0x3f
 800187e:	f000 fed3 	bl	8002628 <read_command>
 8001882:	f7ff ffd5 	bl	8001830 <send_spi_command>
 8001886:	2400      	movs	r4, #0
 8001888:	f836 1b02 	ldrh.w	r1, [r6], #2
 800188c:	b2e0      	uxtb	r0, r4
 800188e:	b2c9      	uxtb	r1, r1
 8001890:	f000 fec5 	bl	800261e <write_command>
 8001894:	3401      	adds	r4, #1
 8001896:	f7ff ffcb 	bl	8001830 <send_spi_command>
 800189a:	2c12      	cmp	r4, #18
 800189c:	d1f4      	bne.n	8001888 <write_initial_reg_values+0x42>
 800189e:	f000 febb 	bl	8002618 <calibrate_command>
 80018a2:	f7ff ffc5 	bl	8001830 <send_spi_command>
 80018a6:	2409      	movs	r4, #9
 80018a8:	2028      	movs	r0, #40	@ 0x28
 80018aa:	f000 febd 	bl	8002628 <read_command>
 80018ae:	f7ff ffbf 	bl	8001830 <send_spi_command>
 80018b2:	3c01      	subs	r4, #1
 80018b4:	d1f8      	bne.n	80018a8 <write_initial_reg_values+0x62>
 80018b6:	b00b      	add	sp, #44	@ 0x2c
 80018b8:	bdf0      	pop	{r4, r5, r6, r7, pc}
	...

080018bc <HAL_SPI_TxRxCpltCallback>:
 80018bc:	4b02      	ldr	r3, [pc, #8]	@ (80018c8 <HAL_SPI_TxRxCpltCallback+0xc>)
 80018be:	4283      	cmp	r3, r0
 80018c0:	d101      	bne.n	80018c6 <HAL_SPI_TxRxCpltCallback+0xa>
 80018c2:	f7ff bdf5 	b.w	80014b0 <spi_txrx_cplt_callback>
 80018c6:	4770      	bx	lr
 80018c8:	200002dc 	.word	0x200002dc

080018cc <HAL_SPI_ErrorCallback>:
 80018cc:	2202      	movs	r2, #2
 80018ce:	4b01      	ldr	r3, [pc, #4]	@ (80018d4 <HAL_SPI_ErrorCallback+0x8>)
 80018d0:	601a      	str	r2, [r3, #0]
 80018d2:	4770      	bx	lr
 80018d4:	20000004 	.word	0x20000004

080018d8 <HAL_UART_TxCpltCallback>:
 80018d8:	2201      	movs	r2, #1
 80018da:	4b01      	ldr	r3, [pc, #4]	@ (80018e0 <HAL_UART_TxCpltCallback+0x8>)
 80018dc:	701a      	strb	r2, [r3, #0]
 80018de:	4770      	bx	lr
 80018e0:	20000000 	.word	0x20000000
 80018e4:	00000000 	.word	0x00000000

080018e8 <set_DSP_cutoff_freq>:
 80018e8:	e92d 47f0 	stmdb	sp!, {r4, r5, r6, r7, r8, r9, sl, lr}
 80018ec:	ed2d 8b02 	vpush	{d8}
 80018f0:	b0a6      	sub	sp, #152	@ 0x98
 80018f2:	4604      	mov	r4, r0
 80018f4:	2280      	movs	r2, #128	@ 0x80
 80018f6:	2100      	movs	r1, #0
 80018f8:	a806      	add	r0, sp, #24
 80018fa:	f10d 0a20 	add.w	sl, sp, #32
 80018fe:	ed8d 0b02 	vstr	d0, [sp, #8]
 8001902:	46d0      	mov	r8, sl
 8001904:	f006 fa68 	bl	8007dd8 <memset>
 8001908:	2501      	movs	r5, #1
 800190a:	ed9f 8b3b 	vldr	d8, [pc, #236]	@ 80019f8 <set_DSP_cutoff_freq+0x110>
 800190e:	4628      	mov	r0, r5
 8001910:	f7fe fe10 	bl	8000534 <__aeabi_i2d>
 8001914:	eeb0 0a48 	vmov.f32	s0, s16
 8001918:	eef0 0a68 	vmov.f32	s1, s17
 800191c:	ec41 0b11 	vmov	d1, r0, r1
 8001920:	f006 fb68 	bl	8007ff4 <pow>
 8001924:	ec57 6b10 	vmov	r6, r7, d0
 8001928:	ed94 7b00 	vldr	d7, [r4]
 800192c:	2200      	movs	r2, #0
 800192e:	4b38      	ldr	r3, [pc, #224]	@ (8001a10 <set_DSP_cutoff_freq+0x128>)
 8001930:	4630      	mov	r0, r6
 8001932:	4639      	mov	r1, r7
 8001934:	ed8d 7b04 	vstr	d7, [sp, #16]
 8001938:	f7fe fcae 	bl	8000298 <__aeabi_dsub>
 800193c:	4602      	mov	r2, r0
 800193e:	460b      	mov	r3, r1
 8001940:	4630      	mov	r0, r6
 8001942:	4639      	mov	r1, r7
 8001944:	f7fe ff8a 	bl	800085c <__aeabi_ddiv>
 8001948:	ec41 0b10 	vmov	d0, r0, r1
 800194c:	f006 fad4 	bl	8007ef8 <log>
 8001950:	e9dd 0104 	ldrd	r0, r1, [sp, #16]
 8001954:	ec53 2b10 	vmov	r2, r3, d0
 8001958:	f7fe fe56 	bl	8000608 <__aeabi_dmul>
 800195c:	a328      	add	r3, pc, #160	@ (adr r3, 8001a00 <set_DSP_cutoff_freq+0x118>)
 800195e:	e9d3 2300 	ldrd	r2, r3, [r3]
 8001962:	f7fe ff7b 	bl	800085c <__aeabi_ddiv>
 8001966:	3501      	adds	r5, #1
 8001968:	2d10      	cmp	r5, #16
 800196a:	e8e8 0102 	strd	r0, r1, [r8], #8
 800196e:	d1ce      	bne.n	800190e <set_DSP_cutoff_freq+0x26>
 8001970:	ed9d 0b02 	vldr	d0, [sp, #8]
 8001974:	f006 fb00 	bl	8007f78 <log10>
 8001978:	e9dd 2302 	ldrd	r2, r3, [sp, #8]
 800197c:	e9dd 0108 	ldrd	r0, r1, [sp, #32]
 8001980:	ec57 6b10 	vmov	r6, r7, d0
 8001984:	f7ff f8b2 	bl	8000aec <__aeabi_dcmplt>
 8001988:	b160      	cbz	r0, 80019a4 <set_DSP_cutoff_freq+0xbc>
 800198a:	2301      	movs	r3, #1
 800198c:	64e3      	str	r3, [r4, #76]	@ 0x4c
 800198e:	6ce3      	ldr	r3, [r4, #76]	@ 0x4c
 8001990:	aa26      	add	r2, sp, #152	@ 0x98
 8001992:	eb02 03c3 	add.w	r3, r2, r3, lsl #3
 8001996:	ed13 0b20 	vldr	d0, [r3, #-128]	@ 0xffffff80
 800199a:	b026      	add	sp, #152	@ 0x98
 800199c:	ecbd 8b02 	vpop	{d8}
 80019a0:	e8bd 87f0 	ldmia.w	sp!, {r4, r5, r6, r7, r8, r9, sl, pc}
 80019a4:	e9dd 2302 	ldrd	r2, r3, [sp, #8]
 80019a8:	e9dd 0124 	ldrd	r0, r1, [sp, #144]	@ 0x90
 80019ac:	f7ff f8bc 	bl	8000b28 <__aeabi_dcmpgt>
 80019b0:	b108      	cbz	r0, 80019b6 <set_DSP_cutoff_freq+0xce>
 80019b2:	230f      	movs	r3, #15
 80019b4:	e7ea      	b.n	800198c <set_DSP_cutoff_freq+0xa4>
 80019b6:	2501      	movs	r5, #1
 80019b8:	f20f 094c 	addw	r9, pc, #76	@ 0x4c
 80019bc:	e9d9 8900 	ldrd	r8, r9, [r9]
 80019c0:	ecba 0b02 	vldmia	sl!, {d0}
 80019c4:	f006 fad8 	bl	8007f78 <log10>
 80019c8:	4630      	mov	r0, r6
 80019ca:	ec53 2b10 	vmov	r2, r3, d0
 80019ce:	4639      	mov	r1, r7
 80019d0:	f7fe fc62 	bl	8000298 <__aeabi_dsub>
 80019d4:	f021 4300 	bic.w	r3, r1, #2147483648	@ 0x80000000
 80019d8:	9301      	str	r3, [sp, #4]
 80019da:	9000      	str	r0, [sp, #0]
 80019dc:	4642      	mov	r2, r8
 80019de:	e9dd 0100 	ldrd	r0, r1, [sp]
 80019e2:	464b      	mov	r3, r9
 80019e4:	f7ff f882 	bl	8000aec <__aeabi_dcmplt>
 80019e8:	b110      	cbz	r0, 80019f0 <set_DSP_cutoff_freq+0x108>
 80019ea:	e9dd 8900 	ldrd	r8, r9, [sp]
 80019ee:	64e5      	str	r5, [r4, #76]	@ 0x4c
 80019f0:	3501      	adds	r5, #1
 80019f2:	2d10      	cmp	r5, #16
 80019f4:	d1e4      	bne.n	80019c0 <set_DSP_cutoff_freq+0xd8>
 80019f6:	e7ca      	b.n	800198e <set_DSP_cutoff_freq+0xa6>
 80019f8:	00000000 	.word	0x00000000
 80019fc:	40000000 	.word	0x40000000
 8001a00:	54442d18 	.word	0x54442d18
 8001a04:	401921fb 	.word	0x401921fb
 8001a08:	00000000 	.word	0x00000000
 8001a0c:	416312d0 	.word	0x416312d0
 8001a10:	3ff00000 	.word	0x3ff00000

08001a14 <power_up_all_amps>:
 8001a14:	2201      	movs	r2, #1
 8001a16:	f100 039c 	add.w	r3, r0, #156	@ 0x9c
 8001a1a:	f500 708e 	add.w	r0, r0, #284	@ 0x11c
 8001a1e:	f843 2f04 	str.w	r2, [r3, #4]!
 8001a22:	4283      	cmp	r3, r0
 8001a24:	d1fb      	bne.n	8001a1e <power_up_all_amps+0xa>
 8001a26:	4770      	bx	lr

08001a28 <rH1_from_upper_bandwidth>:
 8001a28:	b5f8      	push	{r3, r4, r5, r6, r7, lr}
 8001a2a:	f006 faa5 	bl	8007f78 <log10>
 8001a2e:	a31c      	add	r3, pc, #112	@ (adr r3, 8001aa0 <rH1_from_upper_bandwidth+0x78>)
 8001a30:	e9d3 2300 	ldrd	r2, r3, [r3]
 8001a34:	ec55 4b10 	vmov	r4, r5, d0
 8001a38:	4620      	mov	r0, r4
 8001a3a:	4629      	mov	r1, r5
 8001a3c:	f7fe fde4 	bl	8000608 <__aeabi_dmul>
 8001a40:	4602      	mov	r2, r0
 8001a42:	460b      	mov	r3, r1
 8001a44:	a118      	add	r1, pc, #96	@ (adr r1, 8001aa8 <rH1_from_upper_bandwidth+0x80>)
 8001a46:	e9d1 0100 	ldrd	r0, r1, [r1]
 8001a4a:	f7fe fc25 	bl	8000298 <__aeabi_dsub>
 8001a4e:	a318      	add	r3, pc, #96	@ (adr r3, 8001ab0 <rH1_from_upper_bandwidth+0x88>)
 8001a50:	e9d3 2300 	ldrd	r2, r3, [r3]
 8001a54:	4606      	mov	r6, r0
 8001a56:	460f      	mov	r7, r1
 8001a58:	4620      	mov	r0, r4
 8001a5a:	4629      	mov	r1, r5
 8001a5c:	f7fe fdd4 	bl	8000608 <__aeabi_dmul>
 8001a60:	4622      	mov	r2, r4
 8001a62:	462b      	mov	r3, r5
 8001a64:	f7fe fdd0 	bl	8000608 <__aeabi_dmul>
 8001a68:	4602      	mov	r2, r0
 8001a6a:	460b      	mov	r3, r1
 8001a6c:	4630      	mov	r0, r6
 8001a6e:	4639      	mov	r1, r7
 8001a70:	f7fe fc14 	bl	800029c <__adddf3>
 8001a74:	ed9f 0b08 	vldr	d0, [pc, #32]	@ 8001a98 <rH1_from_upper_bandwidth+0x70>
 8001a78:	ec41 0b11 	vmov	d1, r0, r1
 8001a7c:	f006 faba 	bl	8007ff4 <pow>
 8001a80:	a30d      	add	r3, pc, #52	@ (adr r3, 8001ab8 <rH1_from_upper_bandwidth+0x90>)
 8001a82:	e9d3 2300 	ldrd	r2, r3, [r3]
 8001a86:	ec51 0b10 	vmov	r0, r1, d0
 8001a8a:	f7fe fdbd 	bl	8000608 <__aeabi_dmul>
 8001a8e:	ec41 0b10 	vmov	d0, r0, r1
 8001a92:	bdf8      	pop	{r3, r4, r5, r6, r7, pc}
 8001a94:	f3af 8000 	nop.w
 8001a98:	00000000 	.word	0x00000000
 8001a9c:	40240000 	.word	0x40240000
 8001aa0:	94467382 	.word	0x94467382
 8001aa4:	3ff306f6 	.word	0x3ff306f6
 8001aa8:	c504816f 	.word	0xc504816f
 8001aac:	4020318f 	.word	0x4020318f
 8001ab0:	c60029f1 	.word	0xc60029f1
 8001ab4:	3fa86833 	.word	0x3fa86833
 8001ab8:	e5604189 	.word	0xe5604189
 8001abc:	3fef22d0 	.word	0x3fef22d0

08001ac0 <rH2_from_upper_bandwidth>:
 8001ac0:	b5f8      	push	{r3, r4, r5, r6, r7, lr}
 8001ac2:	f006 fa59 	bl	8007f78 <log10>
 8001ac6:	a31c      	add	r3, pc, #112	@ (adr r3, 8001b38 <rH2_from_upper_bandwidth+0x78>)
 8001ac8:	e9d3 2300 	ldrd	r2, r3, [r3]
 8001acc:	ec55 4b10 	vmov	r4, r5, d0
 8001ad0:	4620      	mov	r0, r4
 8001ad2:	4629      	mov	r1, r5
 8001ad4:	f7fe fd98 	bl	8000608 <__aeabi_dmul>
 8001ad8:	4602      	mov	r2, r0
 8001ada:	460b      	mov	r3, r1
 8001adc:	a118      	add	r1, pc, #96	@ (adr r1, 8001b40 <rH2_from_upper_bandwidth+0x80>)
 8001ade:	e9d1 0100 	ldrd	r0, r1, [r1]
 8001ae2:	f7fe fbd9 	bl	8000298 <__aeabi_dsub>
 8001ae6:	a318      	add	r3, pc, #96	@ (adr r3, 8001b48 <rH2_from_upper_bandwidth+0x88>)
 8001ae8:	e9d3 2300 	ldrd	r2, r3, [r3]
 8001aec:	4606      	mov	r6, r0
 8001aee:	460f      	mov	r7, r1
 8001af0:	4620      	mov	r0, r4
 8001af2:	4629      	mov	r1, r5
 8001af4:	f7fe fd88 	bl	8000608 <__aeabi_dmul>
 8001af8:	4622      	mov	r2, r4
 8001afa:	462b      	mov	r3, r5
 8001afc:	f7fe fd84 	bl	8000608 <__aeabi_dmul>
 8001b00:	4602      	mov	r2, r0
 8001b02:	460b      	mov	r3, r1
 8001b04:	4630      	mov	r0, r6
 8001b06:	4639      	mov	r1, r7
 8001b08:	f7fe fbc8 	bl	800029c <__adddf3>
 8001b0c:	ed9f 0b08 	vldr	d0, [pc, #32]	@ 8001b30 <rH2_from_upper_bandwidth+0x70>
 8001b10:	ec41 0b11 	vmov	d1, r0, r1
 8001b14:	f006 fa6e 	bl	8007ff4 <pow>
 8001b18:	a30d      	add	r3, pc, #52	@ (adr r3, 8001b50 <rH2_from_upper_bandwidth+0x90>)
 8001b1a:	e9d3 2300 	ldrd	r2, r3, [r3]
 8001b1e:	ec51 0b10 	vmov	r0, r1, d0
 8001b22:	f7fe fd71 	bl	8000608 <__aeabi_dmul>
 8001b26:	ec41 0b10 	vmov	d0, r0, r1
 8001b2a:	bdf8      	pop	{r3, r4, r5, r6, r7, pc}
 8001b2c:	f3af 8000 	nop.w
 8001b30:	00000000 	.word	0x00000000
 8001b34:	40240000 	.word	0x40240000
 8001b38:	16f0068e 	.word	0x16f0068e
 8001b3c:	3ff15048 	.word	0x3ff15048
 8001b40:	2a305532 	.word	0x2a305532
 8001b44:	402033a9 	.word	0x402033a9
 8001b48:	6f3f52fc 	.word	0x6f3f52fc
 8001b4c:	3fa1522a 	.word	0x3fa1522a
 8001b50:	cd35a858 	.word	0xcd35a858
 8001b54:	3ff04e3b 	.word	0x3ff04e3b

08001b58 <rL_from_lower_bandwidth>:
 8001b58:	b5f8      	push	{r3, r4, r5, r6, r7, lr}
 8001b5a:	ec57 6b10 	vmov	r6, r7, d0
 8001b5e:	f006 fa0b 	bl	8007f78 <log10>
 8001b62:	2200      	movs	r2, #0
 8001b64:	4630      	mov	r0, r6
 8001b66:	4639      	mov	r1, r7
 8001b68:	4b45      	ldr	r3, [pc, #276]	@ (8001c80 <rL_from_lower_bandwidth+0x128>)
 8001b6a:	ec55 4b10 	vmov	r4, r5, d0
 8001b6e:	f7fe ffbd 	bl	8000aec <__aeabi_dcmplt>
 8001b72:	2800      	cmp	r0, #0
 8001b74:	d047      	beq.n	8001c06 <rL_from_lower_bandwidth+0xae>
 8001b76:	a330      	add	r3, pc, #192	@ (adr r3, 8001c38 <rL_from_lower_bandwidth+0xe0>)
 8001b78:	e9d3 2300 	ldrd	r2, r3, [r3]
 8001b7c:	4620      	mov	r0, r4
 8001b7e:	4629      	mov	r1, r5
 8001b80:	f7fe fd42 	bl	8000608 <__aeabi_dmul>
 8001b84:	4602      	mov	r2, r0
 8001b86:	460b      	mov	r3, r1
 8001b88:	a12d      	add	r1, pc, #180	@ (adr r1, 8001c40 <rL_from_lower_bandwidth+0xe8>)
 8001b8a:	e9d1 0100 	ldrd	r0, r1, [r1]
 8001b8e:	f7fe fb83 	bl	8000298 <__aeabi_dsub>
 8001b92:	a32d      	add	r3, pc, #180	@ (adr r3, 8001c48 <rL_from_lower_bandwidth+0xf0>)
 8001b94:	e9d3 2300 	ldrd	r2, r3, [r3]
 8001b98:	4606      	mov	r6, r0
 8001b9a:	460f      	mov	r7, r1
 8001b9c:	4620      	mov	r0, r4
 8001b9e:	4629      	mov	r1, r5
 8001ba0:	f7fe fd32 	bl	8000608 <__aeabi_dmul>
 8001ba4:	4622      	mov	r2, r4
 8001ba6:	462b      	mov	r3, r5
 8001ba8:	f7fe fd2e 	bl	8000608 <__aeabi_dmul>
 8001bac:	4602      	mov	r2, r0
 8001bae:	460b      	mov	r3, r1
 8001bb0:	4630      	mov	r0, r6
 8001bb2:	4639      	mov	r1, r7
 8001bb4:	f7fe fb72 	bl	800029c <__adddf3>
 8001bb8:	a325      	add	r3, pc, #148	@ (adr r3, 8001c50 <rL_from_lower_bandwidth+0xf8>)
 8001bba:	e9d3 2300 	ldrd	r2, r3, [r3]
 8001bbe:	4606      	mov	r6, r0
 8001bc0:	460f      	mov	r7, r1
 8001bc2:	4620      	mov	r0, r4
 8001bc4:	4629      	mov	r1, r5
 8001bc6:	f7fe fd1f 	bl	8000608 <__aeabi_dmul>
 8001bca:	4622      	mov	r2, r4
 8001bcc:	462b      	mov	r3, r5
 8001bce:	f7fe fd1b 	bl	8000608 <__aeabi_dmul>
 8001bd2:	4622      	mov	r2, r4
 8001bd4:	462b      	mov	r3, r5
 8001bd6:	f7fe fd17 	bl	8000608 <__aeabi_dmul>
 8001bda:	4602      	mov	r2, r0
 8001bdc:	460b      	mov	r3, r1
 8001bde:	4630      	mov	r0, r6
 8001be0:	4639      	mov	r1, r7
 8001be2:	f7fe fb5b 	bl	800029c <__adddf3>
 8001be6:	ed9f 0b1c 	vldr	d0, [pc, #112]	@ 8001c58 <rL_from_lower_bandwidth+0x100>
 8001bea:	ec41 0b11 	vmov	d1, r0, r1
 8001bee:	f006 fa01 	bl	8007ff4 <pow>
 8001bf2:	a31b      	add	r3, pc, #108	@ (adr r3, 8001c60 <rL_from_lower_bandwidth+0x108>)
 8001bf4:	e9d3 2300 	ldrd	r2, r3, [r3]
 8001bf8:	ec51 0b10 	vmov	r0, r1, d0
 8001bfc:	f7fe fd04 	bl	8000608 <__aeabi_dmul>
 8001c00:	ec41 0b10 	vmov	d0, r0, r1
 8001c04:	bdf8      	pop	{r3, r4, r5, r6, r7, pc}
 8001c06:	a318      	add	r3, pc, #96	@ (adr r3, 8001c68 <rL_from_lower_bandwidth+0x110>)
 8001c08:	e9d3 2300 	ldrd	r2, r3, [r3]
 8001c0c:	4620      	mov	r0, r4
 8001c0e:	4629      	mov	r1, r5
 8001c10:	f7fe fcfa 	bl	8000608 <__aeabi_dmul>
 8001c14:	4602      	mov	r2, r0
 8001c16:	460b      	mov	r3, r1
 8001c18:	a115      	add	r1, pc, #84	@ (adr r1, 8001c70 <rL_from_lower_bandwidth+0x118>)
 8001c1a:	e9d1 0100 	ldrd	r0, r1, [r1]
 8001c1e:	f7fe fb3b 	bl	8000298 <__aeabi_dsub>
 8001c22:	a315      	add	r3, pc, #84	@ (adr r3, 8001c78 <rL_from_lower_bandwidth+0x120>)
 8001c24:	e9d3 2300 	ldrd	r2, r3, [r3]
 8001c28:	4606      	mov	r6, r0
 8001c2a:	460f      	mov	r7, r1
 8001c2c:	4620      	mov	r0, r4
 8001c2e:	4629      	mov	r1, r5
 8001c30:	e7cd      	b.n	8001bce <rL_from_lower_bandwidth+0x76>
 8001c32:	bf00      	nop
 8001c34:	f3af 8000 	nop.w
 8001c38:	ab367a10 	.word	0xab367a10
 8001c3c:	3ff3573e 	.word	0x3ff3573e
 8001c40:	6e2eb1c4 	.word	0x6e2eb1c4
 8001c44:	4013c1a3 	.word	0x4013c1a3
 8001c48:	35a85879 	.word	0x35a85879
 8001c4c:	3fe23bcd 	.word	0x3fe23bcd
 8001c50:	460aa64c 	.word	0x460aa64c
 8001c54:	3fc27525 	.word	0x3fc27525
 8001c58:	00000000 	.word	0x00000000
 8001c5c:	40240000 	.word	0x40240000
 8001c60:	504816f0 	.word	0x504816f0
 8001c64:	3ff018fc 	.word	0x3ff018fc
 8001c68:	1f8a0903 	.word	0x1f8a0903
 8001c6c:	3fe2ee63 	.word	0x3fe2ee63
 8001c70:	0ded288d 	.word	0x0ded288d
 8001c74:	4012f0be 	.word	0x4012f0be
 8001c78:	760bf5d8 	.word	0x760bf5d8
 8001c7c:	3fb5b6c3 	.word	0x3fb5b6c3
 8001c80:	40100000 	.word	0x40100000
 8001c84:	00000000 	.word	0x00000000

08001c88 <upper_bandwidth_from_rH1>:
 8001c88:	b508      	push	{r3, lr}
 8001c8a:	a31d      	add	r3, pc, #116	@ (adr r3, 8001d00 <upper_bandwidth_from_rH1+0x78>)
 8001c8c:	e9d3 2300 	ldrd	r2, r3, [r3]
 8001c90:	ec51 0b10 	vmov	r0, r1, d0
 8001c94:	f7fe fde2 	bl	800085c <__aeabi_ddiv>
 8001c98:	ec41 0b10 	vmov	d0, r0, r1
 8001c9c:	f006 f96c 	bl	8007f78 <log10>
 8001ca0:	a119      	add	r1, pc, #100	@ (adr r1, 8001d08 <upper_bandwidth_from_rH1+0x80>)
 8001ca2:	e9d1 0100 	ldrd	r0, r1, [r1]
 8001ca6:	ec53 2b10 	vmov	r2, r3, d0
 8001caa:	f7fe faf5 	bl	8000298 <__aeabi_dsub>
 8001cae:	a318      	add	r3, pc, #96	@ (adr r3, 8001d10 <upper_bandwidth_from_rH1+0x88>)
 8001cb0:	e9d3 2300 	ldrd	r2, r3, [r3]
 8001cb4:	f7fe fca8 	bl	8000608 <__aeabi_dmul>
 8001cb8:	4602      	mov	r2, r0
 8001cba:	460b      	mov	r3, r1
 8001cbc:	a116      	add	r1, pc, #88	@ (adr r1, 8001d18 <upper_bandwidth_from_rH1+0x90>)
 8001cbe:	e9d1 0100 	ldrd	r0, r1, [r1]
 8001cc2:	f7fe fae9 	bl	8000298 <__aeabi_dsub>
 8001cc6:	ec41 0b10 	vmov	d0, r0, r1
 8001cca:	f006 fa03 	bl	80080d4 <sqrt>
 8001cce:	a114      	add	r1, pc, #80	@ (adr r1, 8001d20 <upper_bandwidth_from_rH1+0x98>)
 8001cd0:	e9d1 0100 	ldrd	r0, r1, [r1]
 8001cd4:	ec53 2b10 	vmov	r2, r3, d0
 8001cd8:	f7fe fade 	bl	8000298 <__aeabi_dsub>
 8001cdc:	a312      	add	r3, pc, #72	@ (adr r3, 8001d28 <upper_bandwidth_from_rH1+0xa0>)
 8001cde:	e9d3 2300 	ldrd	r2, r3, [r3]
 8001ce2:	f7fe fdbb 	bl	800085c <__aeabi_ddiv>
 8001ce6:	e8bd 4008 	ldmia.w	sp!, {r3, lr}
 8001cea:	ec41 0b11 	vmov	d1, r0, r1
 8001cee:	ed9f 0b02 	vldr	d0, [pc, #8]	@ 8001cf8 <upper_bandwidth_from_rH1+0x70>
 8001cf2:	f006 b97f 	b.w	8007ff4 <pow>
 8001cf6:	bf00      	nop
 8001cf8:	00000000 	.word	0x00000000
 8001cfc:	40240000 	.word	0x40240000
 8001d00:	e5604189 	.word	0xe5604189
 8001d04:	3fef22d0 	.word	0x3fef22d0
 8001d08:	c504816f 	.word	0xc504816f
 8001d0c:	4020318f 	.word	0x4020318f
 8001d10:	c60029f1 	.word	0xc60029f1
 8001d14:	3fc86833 	.word	0x3fc86833
 8001d18:	a7ee9c00 	.word	0xa7ee9c00
 8001d1c:	3ff6a08c 	.word	0x3ff6a08c
 8001d20:	94467382 	.word	0x94467382
 8001d24:	3ff306f6 	.word	0x3ff306f6
 8001d28:	c60029f1 	.word	0xc60029f1
 8001d2c:	3fb86833 	.word	0x3fb86833

08001d30 <upper_bandwidth_from_rH2>:
 8001d30:	b508      	push	{r3, lr}
 8001d32:	a31d      	add	r3, pc, #116	@ (adr r3, 8001da8 <upper_bandwidth_from_rH2+0x78>)
 8001d34:	e9d3 2300 	ldrd	r2, r3, [r3]
 8001d38:	ec51 0b10 	vmov	r0, r1, d0
 8001d3c:	f7fe fd8e 	bl	800085c <__aeabi_ddiv>
 8001d40:	ec41 0b10 	vmov	d0, r0, r1
 8001d44:	f006 f918 	bl	8007f78 <log10>
 8001d48:	a119      	add	r1, pc, #100	@ (adr r1, 8001db0 <upper_bandwidth_from_rH2+0x80>)
 8001d4a:	e9d1 0100 	ldrd	r0, r1, [r1]
 8001d4e:	ec53 2b10 	vmov	r2, r3, d0
 8001d52:	f7fe faa1 	bl	8000298 <__aeabi_dsub>
 8001d56:	a318      	add	r3, pc, #96	@ (adr r3, 8001db8 <upper_bandwidth_from_rH2+0x88>)
 8001d58:	e9d3 2300 	ldrd	r2, r3, [r3]
 8001d5c:	f7fe fc54 	bl	8000608 <__aeabi_dmul>
 8001d60:	4602      	mov	r2, r0
 8001d62:	460b      	mov	r3, r1
 8001d64:	a116      	add	r1, pc, #88	@ (adr r1, 8001dc0 <upper_bandwidth_from_rH2+0x90>)
 8001d66:	e9d1 0100 	ldrd	r0, r1, [r1]
 8001d6a:	f7fe fa95 	bl	8000298 <__aeabi_dsub>
 8001d6e:	ec41 0b10 	vmov	d0, r0, r1
 8001d72:	f006 f9af 	bl	80080d4 <sqrt>
 8001d76:	a114      	add	r1, pc, #80	@ (adr r1, 8001dc8 <upper_bandwidth_from_rH2+0x98>)
 8001d78:	e9d1 0100 	ldrd	r0, r1, [r1]
 8001d7c:	ec53 2b10 	vmov	r2, r3, d0
 8001d80:	f7fe fa8a 	bl	8000298 <__aeabi_dsub>
 8001d84:	a312      	add	r3, pc, #72	@ (adr r3, 8001dd0 <upper_bandwidth_from_rH2+0xa0>)
 8001d86:	e9d3 2300 	ldrd	r2, r3, [r3]
 8001d8a:	f7fe fd67 	bl	800085c <__aeabi_ddiv>
 8001d8e:	e8bd 4008 	ldmia.w	sp!, {r3, lr}
 8001d92:	ec41 0b11 	vmov	d1, r0, r1
 8001d96:	ed9f 0b02 	vldr	d0, [pc, #8]	@ 8001da0 <upper_bandwidth_from_rH2+0x70>
 8001d9a:	f006 b92b 	b.w	8007ff4 <pow>
 8001d9e:	bf00      	nop
 8001da0:	00000000 	.word	0x00000000
 8001da4:	40240000 	.word	0x40240000
 8001da8:	cd35a858 	.word	0xcd35a858
 8001dac:	3ff04e3b 	.word	0x3ff04e3b
 8001db0:	2a305532 	.word	0x2a305532
 8001db4:	402033a9 	.word	0x402033a9
 8001db8:	6f3f52fc 	.word	0x6f3f52fc
 8001dbc:	3fc1522a 	.word	0x3fc1522a
 8001dc0:	02e83cc0 	.word	0x02e83cc0
 8001dc4:	3ff2bc2c 	.word	0x3ff2bc2c
 8001dc8:	16f0068e 	.word	0x16f0068e
 8001dcc:	3ff15048 	.word	0x3ff15048
 8001dd0:	6f3f52fc 	.word	0x6f3f52fc
 8001dd4:	3fb1522a 	.word	0x3fb1522a

08001dd8 <set_upper_bandwidth>:
 8001dd8:	e92d 4ff0 	stmdb	sp!, {r4, r5, r6, r7, r8, r9, sl, fp, lr}
 8001ddc:	a368      	add	r3, pc, #416	@ (adr r3, 8001f80 <set_upper_bandwidth+0x1a8>)
 8001dde:	e9d3 2300 	ldrd	r2, r3, [r3]
 8001de2:	ed2d 8b02 	vpush	{d8}
 8001de6:	4604      	mov	r4, r0
 8001de8:	b085      	sub	sp, #20
 8001dea:	ec51 0b10 	vmov	r0, r1, d0
 8001dee:	eeb0 8a40 	vmov.f32	s16, s0
 8001df2:	eef0 8a60 	vmov.f32	s17, s1
 8001df6:	f7fe fe97 	bl	8000b28 <__aeabi_dcmpgt>
 8001dfa:	b108      	cbz	r0, 8001e00 <set_upper_bandwidth+0x28>
 8001dfc:	ed9f 8b60 	vldr	d8, [pc, #384]	@ 8001f80 <set_upper_bandwidth+0x1a8>
 8001e00:	a763      	add	r7, pc, #396	@ (adr r7, 8001f90 <set_upper_bandwidth+0x1b8>)
 8001e02:	e9d7 6700 	ldrd	r6, r7, [r7]
 8001e06:	f20f 1990 	addw	r9, pc, #400	@ 0x190
 8001e0a:	e9d9 8900 	ldrd	r8, r9, [r9]
 8001e0e:	eeb0 0a48 	vmov.f32	s0, s16
 8001e12:	eef0 0a68 	vmov.f32	s1, s17
 8001e16:	f7ff fe07 	bl	8001a28 <rH1_from_upper_bandwidth>
 8001e1a:	ed9f 7b5b 	vldr	d7, [pc, #364]	@ 8001f88 <set_upper_bandwidth+0x1b0>
 8001e1e:	2300      	movs	r3, #0
 8001e20:	ec5b ab10 	vmov	sl, fp, d0
 8001e24:	251f      	movs	r5, #31
 8001e26:	ed8d 7b00 	vstr	d7, [sp]
 8001e2a:	e9c4 3321 	strd	r3, r3, [r4, #132]	@ 0x84
 8001e2e:	4632      	mov	r2, r6
 8001e30:	463b      	mov	r3, r7
 8001e32:	4650      	mov	r0, sl
 8001e34:	4659      	mov	r1, fp
 8001e36:	f7fe fa2f 	bl	8000298 <__aeabi_dsub>
 8001e3a:	e9dd 2300 	ldrd	r2, r3, [sp]
 8001e3e:	f7fe fe73 	bl	8000b28 <__aeabi_dcmpgt>
 8001e42:	b160      	cbz	r0, 8001e5e <set_upper_bandwidth+0x86>
 8001e44:	e9dd 0100 	ldrd	r0, r1, [sp]
 8001e48:	464b      	mov	r3, r9
 8001e4a:	4642      	mov	r2, r8
 8001e4c:	f7fe fa26 	bl	800029c <__adddf3>
 8001e50:	f8d4 3088 	ldr.w	r3, [r4, #136]	@ 0x88
 8001e54:	e9cd 0100 	strd	r0, r1, [sp]
 8001e58:	3301      	adds	r3, #1
 8001e5a:	f8c4 3088 	str.w	r3, [r4, #136]	@ 0x88
 8001e5e:	3d01      	subs	r5, #1
 8001e60:	d1e5      	bne.n	8001e2e <set_upper_bandwidth+0x56>
 8001e62:	253f      	movs	r5, #63	@ 0x3f
 8001e64:	a74e      	add	r7, pc, #312	@ (adr r7, 8001fa0 <set_upper_bandwidth+0x1c8>)
 8001e66:	e9d7 6700 	ldrd	r6, r7, [r7]
 8001e6a:	f04f 0800 	mov.w	r8, #0
 8001e6e:	f8df 9150 	ldr.w	r9, [pc, #336]	@ 8001fc0 <set_upper_bandwidth+0x1e8>
 8001e72:	4632      	mov	r2, r6
 8001e74:	463b      	mov	r3, r7
 8001e76:	4650      	mov	r0, sl
 8001e78:	4659      	mov	r1, fp
 8001e7a:	f7fe fa0d 	bl	8000298 <__aeabi_dsub>
 8001e7e:	e9dd 2300 	ldrd	r2, r3, [sp]
 8001e82:	f7fe fe51 	bl	8000b28 <__aeabi_dcmpgt>
 8001e86:	b160      	cbz	r0, 8001ea2 <set_upper_bandwidth+0xca>
 8001e88:	e9dd 0100 	ldrd	r0, r1, [sp]
 8001e8c:	464b      	mov	r3, r9
 8001e8e:	4642      	mov	r2, r8
 8001e90:	f7fe fa04 	bl	800029c <__adddf3>
 8001e94:	f8d4 3084 	ldr.w	r3, [r4, #132]	@ 0x84
 8001e98:	e9cd 0100 	strd	r0, r1, [sp]
 8001e9c:	3301      	adds	r3, #1
 8001e9e:	f8c4 3084 	str.w	r3, [r4, #132]	@ 0x84
 8001ea2:	3d01      	subs	r5, #1
 8001ea4:	d1e5      	bne.n	8001e72 <set_upper_bandwidth+0x9a>
 8001ea6:	eeb0 0a48 	vmov.f32	s0, s16
 8001eaa:	eef0 0a68 	vmov.f32	s1, s17
 8001eae:	a73e      	add	r7, pc, #248	@ (adr r7, 8001fa8 <set_upper_bandwidth+0x1d0>)
 8001eb0:	e9d7 6700 	ldrd	r6, r7, [r7]
 8001eb4:	f20f 0bf8 	addw	fp, pc, #248	@ 0xf8
 8001eb8:	e9db ab00 	ldrd	sl, fp, [fp]
 8001ebc:	f7ff fe00 	bl	8001ac0 <rH2_from_upper_bandwidth>
 8001ec0:	f04f 0800 	mov.w	r8, #0
 8001ec4:	e9c4 5523 	strd	r5, r5, [r4, #140]	@ 0x8c
 8001ec8:	ed8d 0b02 	vstr	d0, [sp, #8]
 8001ecc:	251f      	movs	r5, #31
 8001ece:	f8df 90f4 	ldr.w	r9, [pc, #244]	@ 8001fc4 <set_upper_bandwidth+0x1ec>
 8001ed2:	4652      	mov	r2, sl
 8001ed4:	e9dd 0102 	ldrd	r0, r1, [sp, #8]
 8001ed8:	465b      	mov	r3, fp
 8001eda:	f7fe f9dd 	bl	8000298 <__aeabi_dsub>
 8001ede:	4632      	mov	r2, r6
 8001ee0:	463b      	mov	r3, r7
 8001ee2:	f7fe fe21 	bl	8000b28 <__aeabi_dcmpgt>
 8001ee6:	b160      	cbz	r0, 8001f02 <set_upper_bandwidth+0x12a>
 8001ee8:	464b      	mov	r3, r9
 8001eea:	4630      	mov	r0, r6
 8001eec:	4639      	mov	r1, r7
 8001eee:	4642      	mov	r2, r8
 8001ef0:	f7fe f9d4 	bl	800029c <__adddf3>
 8001ef4:	4606      	mov	r6, r0
 8001ef6:	460f      	mov	r7, r1
 8001ef8:	f8d4 3090 	ldr.w	r3, [r4, #144]	@ 0x90
 8001efc:	3301      	adds	r3, #1
 8001efe:	f8c4 3090 	str.w	r3, [r4, #144]	@ 0x90
 8001f02:	3d01      	subs	r5, #1
 8001f04:	d1e5      	bne.n	8001ed2 <set_upper_bandwidth+0xfa>
 8001f06:	253f      	movs	r5, #63	@ 0x3f
 8001f08:	f20f 0bac 	addw	fp, pc, #172	@ 0xac
 8001f0c:	e9db ab00 	ldrd	sl, fp, [fp]
 8001f10:	f04f 0800 	mov.w	r8, #0
 8001f14:	f8df 90b0 	ldr.w	r9, [pc, #176]	@ 8001fc8 <set_upper_bandwidth+0x1f0>
 8001f18:	4652      	mov	r2, sl
 8001f1a:	e9dd 0102 	ldrd	r0, r1, [sp, #8]
 8001f1e:	465b      	mov	r3, fp
 8001f20:	f7fe f9ba 	bl	8000298 <__aeabi_dsub>
 8001f24:	4632      	mov	r2, r6
 8001f26:	463b      	mov	r3, r7
 8001f28:	f7fe fdfe 	bl	8000b28 <__aeabi_dcmpgt>
 8001f2c:	b160      	cbz	r0, 8001f48 <set_upper_bandwidth+0x170>
 8001f2e:	464b      	mov	r3, r9
 8001f30:	4630      	mov	r0, r6
 8001f32:	4639      	mov	r1, r7
 8001f34:	4642      	mov	r2, r8
 8001f36:	f7fe f9b1 	bl	800029c <__adddf3>
 8001f3a:	4606      	mov	r6, r0
 8001f3c:	460f      	mov	r7, r1
 8001f3e:	f8d4 308c 	ldr.w	r3, [r4, #140]	@ 0x8c
 8001f42:	3301      	adds	r3, #1
 8001f44:	f8c4 308c 	str.w	r3, [r4, #140]	@ 0x8c
 8001f48:	3d01      	subs	r5, #1
 8001f4a:	d1e5      	bne.n	8001f18 <set_upper_bandwidth+0x140>
 8001f4c:	ed9d 0b00 	vldr	d0, [sp]
 8001f50:	f7ff fe9a 	bl	8001c88 <upper_bandwidth_from_rH1>
 8001f54:	ec55 4b10 	vmov	r4, r5, d0
 8001f58:	ec47 6b10 	vmov	d0, r6, r7
 8001f5c:	f7ff fee8 	bl	8001d30 <upper_bandwidth_from_rH2>
 8001f60:	4620      	mov	r0, r4
 8001f62:	ec53 2b10 	vmov	r2, r3, d0
 8001f66:	4629      	mov	r1, r5
 8001f68:	f7fe fb4e 	bl	8000608 <__aeabi_dmul>
 8001f6c:	ec41 0b10 	vmov	d0, r0, r1
 8001f70:	b005      	add	sp, #20
 8001f72:	ecbd 8b02 	vpop	{d8}
 8001f76:	e8bd 4ff0 	ldmia.w	sp!, {r4, r5, r6, r7, r8, r9, sl, fp, lr}
 8001f7a:	f006 b8ab 	b.w	80080d4 <sqrt>
 8001f7e:	bf00      	nop
 8001f80:	00000000 	.word	0x00000000
 8001f84:	40dd4c00 	.word	0x40dd4c00
 8001f88:	00000000 	.word	0x00000000
 8001f8c:	40a13000 	.word	0x40a13000
 8001f90:	00000000 	.word	0x00000000
 8001f94:	40dc6b00 	.word	0x40dc6b00
 8001f98:	00000000 	.word	0x00000000
 8001f9c:	40dcb600 	.word	0x40dcb600
 8001fa0:	00000000 	.word	0x00000000
 8001fa4:	4072c000 	.word	0x4072c000
 8001fa8:	00000000 	.word	0x00000000
 8001fac:	40c0fe00 	.word	0x40c0fe00
 8001fb0:	00000000 	.word	0x00000000
 8001fb4:	40e29050 	.word	0x40e29050
 8001fb8:	00000000 	.word	0x00000000
 8001fbc:	4077d800 	.word	0x4077d800
 8001fc0:	4082c000 	.word	0x4082c000
 8001fc4:	40e2c000 	.word	0x40e2c000
 8001fc8:	4087d800 	.word	0x4087d800
 8001fcc:	00000000 	.word	0x00000000

08001fd0 <lower_bandwidth_from_rL>:
 8001fd0:	e92d 4ff8 	stmdb	sp!, {r3, r4, r5, r6, r7, r8, r9, sl, fp, lr}
 8001fd4:	a34a      	add	r3, pc, #296	@ (adr r3, 8002100 <lower_bandwidth_from_rL+0x130>)
 8001fd6:	e9d3 2300 	ldrd	r2, r3, [r3]
 8001fda:	ec55 4b10 	vmov	r4, r5, d0
 8001fde:	ed2d 8b02 	vpush	{d8}
 8001fe2:	4620      	mov	r0, r4
 8001fe4:	4629      	mov	r1, r5
 8001fe6:	f7fe fd81 	bl	8000aec <__aeabi_dcmplt>
 8001fea:	2800      	cmp	r0, #0
 8001fec:	d167      	bne.n	80020be <lower_bandwidth_from_rL+0xee>
 8001fee:	a34d      	add	r3, pc, #308	@ (adr r3, 8002124 <lower_bandwidth_from_rL+0x154>)
 8001ff0:	e9d3 2300 	ldrd	r2, r3, [r3]
 8001ff4:	4620      	mov	r0, r4
 8001ff6:	4629      	mov	r1, r5
 8001ff8:	f7fe fc30 	bl	800085c <__aeabi_ddiv>
 8001ffc:	a34b      	add	r3, pc, #300	@ (adr r3, 800212c <lower_bandwidth_from_rL+0x15c>)
 8001ffe:	e9d3 2300 	ldrd	r2, r3, [r3]
 8002002:	ec41 0b18 	vmov	d8, r0, r1
 8002006:	4620      	mov	r0, r4
 8002008:	4629      	mov	r1, r5
 800200a:	f7fe fd6f 	bl	8000aec <__aeabi_dcmplt>
 800200e:	2800      	cmp	r0, #0
 8002010:	d059      	beq.n	80020c6 <lower_bandwidth_from_rL+0xf6>
 8002012:	a344      	add	r3, pc, #272	@ (adr r3, 8002124 <lower_bandwidth_from_rL+0x154>)
 8002014:	e9d3 2300 	ldrd	r2, r3, [r3]
 8002018:	4620      	mov	r0, r4
 800201a:	a746      	add	r7, pc, #280	@ (adr r7, 8002134 <lower_bandwidth_from_rL+0x164>)
 800201c:	e9d7 6700 	ldrd	r6, r7, [r7]
 8002020:	f20f 1918 	addw	r9, pc, #280	@ 0x118
 8002024:	e9d9 8900 	ldrd	r8, r9, [r9]
 8002028:	4629      	mov	r1, r5
 800202a:	f7fe fc17 	bl	800085c <__aeabi_ddiv>
 800202e:	ec41 0b10 	vmov	d0, r0, r1
 8002032:	f005 ffa1 	bl	8007f78 <log10>
 8002036:	a143      	add	r1, pc, #268	@ (adr r1, 8002144 <lower_bandwidth_from_rL+0x174>)
 8002038:	e9d1 0100 	ldrd	r0, r1, [r1]
 800203c:	ec53 2b10 	vmov	r2, r3, d0
 8002040:	f7fe f92a 	bl	8000298 <__aeabi_dsub>
 8002044:	4604      	mov	r4, r0
 8002046:	460d      	mov	r5, r1
 8002048:	4632      	mov	r2, r6
 800204a:	463b      	mov	r3, r7
 800204c:	4630      	mov	r0, r6
 800204e:	4639      	mov	r1, r7
 8002050:	f7fe fada 	bl	8000608 <__aeabi_dmul>
 8002054:	2200      	movs	r2, #0
 8002056:	4682      	mov	sl, r0
 8002058:	468b      	mov	fp, r1
 800205a:	4640      	mov	r0, r8
 800205c:	4649      	mov	r1, r9
 800205e:	4b30      	ldr	r3, [pc, #192]	@ (8002120 <lower_bandwidth_from_rL+0x150>)
 8002060:	f7fe fad2 	bl	8000608 <__aeabi_dmul>
 8002064:	4622      	mov	r2, r4
 8002066:	462b      	mov	r3, r5
 8002068:	f7fe face 	bl	8000608 <__aeabi_dmul>
 800206c:	4602      	mov	r2, r0
 800206e:	460b      	mov	r3, r1
 8002070:	4650      	mov	r0, sl
 8002072:	4659      	mov	r1, fp
 8002074:	f7fe f910 	bl	8000298 <__aeabi_dsub>
 8002078:	ec41 0b10 	vmov	d0, r0, r1
 800207c:	f006 f82a 	bl	80080d4 <sqrt>
 8002080:	4630      	mov	r0, r6
 8002082:	ec53 2b10 	vmov	r2, r3, d0
 8002086:	f107 4100 	add.w	r1, r7, #2147483648	@ 0x80000000
 800208a:	f7fe f905 	bl	8000298 <__aeabi_dsub>
 800208e:	4642      	mov	r2, r8
 8002090:	4604      	mov	r4, r0
 8002092:	460d      	mov	r5, r1
 8002094:	464b      	mov	r3, r9
 8002096:	4640      	mov	r0, r8
 8002098:	4649      	mov	r1, r9
 800209a:	f7fe f8ff 	bl	800029c <__adddf3>
 800209e:	460b      	mov	r3, r1
 80020a0:	4602      	mov	r2, r0
 80020a2:	4629      	mov	r1, r5
 80020a4:	4620      	mov	r0, r4
 80020a6:	f7fe fbd9 	bl	800085c <__aeabi_ddiv>
 80020aa:	ecbd 8b02 	vpop	{d8}
 80020ae:	e8bd 4ff8 	ldmia.w	sp!, {r3, r4, r5, r6, r7, r8, r9, sl, fp, lr}
 80020b2:	ec41 0b11 	vmov	d1, r0, r1
 80020b6:	ed9f 0b10 	vldr	d0, [pc, #64]	@ 80020f8 <lower_bandwidth_from_rL+0x128>
 80020ba:	f005 bf9b 	b.w	8007ff4 <pow>
 80020be:	a510      	add	r5, pc, #64	@ (adr r5, 8002100 <lower_bandwidth_from_rL+0x130>)
 80020c0:	e9d5 4500 	ldrd	r4, r5, [r5]
 80020c4:	e7a5      	b.n	8002012 <lower_bandwidth_from_rL+0x42>
 80020c6:	eeb0 0a48 	vmov.f32	s0, s16
 80020ca:	eef0 0a68 	vmov.f32	s1, s17
 80020ce:	a70e      	add	r7, pc, #56	@ (adr r7, 8002108 <lower_bandwidth_from_rL+0x138>)
 80020d0:	e9d7 6700 	ldrd	r6, r7, [r7]
 80020d4:	f20f 0938 	addw	r9, pc, #56	@ 0x38
 80020d8:	e9d9 8900 	ldrd	r8, r9, [r9]
 80020dc:	f005 ff4c 	bl	8007f78 <log10>
 80020e0:	a10d      	add	r1, pc, #52	@ (adr r1, 8002118 <lower_bandwidth_from_rL+0x148>)
 80020e2:	e9d1 0100 	ldrd	r0, r1, [r1]
 80020e6:	ec53 2b10 	vmov	r2, r3, d0
 80020ea:	f7fe f8d5 	bl	8000298 <__aeabi_dsub>
 80020ee:	4604      	mov	r4, r0
 80020f0:	460d      	mov	r5, r1
 80020f2:	e7a9      	b.n	8002048 <lower_bandwidth_from_rL+0x78>
 80020f4:	f3af 8000 	nop.w
 80020f8:	00000000 	.word	0x00000000
 80020fc:	40240000 	.word	0x40240000
 8002100:	00000000 	.word	0x00000000
 8002104:	40b3ec00 	.word	0x40b3ec00
 8002108:	f5c28f5c 	.word	0xf5c28f5c
 800210c:	bff35c28 	.word	0xbff35c28
 8002110:	9c779a6b 	.word	0x9c779a6b
 8002114:	3fd523a2 	.word	0x3fd523a2
 8002118:	c56d5cfb 	.word	0xc56d5cfb
 800211c:	4013f2fe 	.word	0x4013f2fe
 8002120:	40100000 	.word	0x40100000
 8002124:	504816f0 	.word	0x504816f0
 8002128:	3ff018fc 	.word	0x3ff018fc
 800212c:	00000000 	.word	0x00000000
 8002130:	40dd4c00 	.word	0x40dd4c00
 8002134:	1f8a0903 	.word	0x1f8a0903
 8002138:	bfe2ee63 	.word	0xbfe2ee63
 800213c:	760bf5d8 	.word	0x760bf5d8
 8002140:	3fb5b6c3 	.word	0x3fb5b6c3
 8002144:	0ded288d 	.word	0x0ded288d
 8002148:	4012f0be 	.word	0x4012f0be
 800214c:	00000000 	.word	0x00000000

08002150 <set_lower_bandwidth>:
 8002150:	e92d 4ff7 	stmdb	sp!, {r0, r1, r2, r4, r5, r6, r7, r8, r9, sl, fp, lr}
 8002154:	a33c      	add	r3, pc, #240	@ (adr r3, 8002248 <set_lower_bandwidth+0xf8>)
 8002156:	e9d3 2300 	ldrd	r2, r3, [r3]
 800215a:	ec55 4b10 	vmov	r4, r5, d0
 800215e:	4682      	mov	sl, r0
 8002160:	4629      	mov	r1, r5
 8002162:	4620      	mov	r0, r4
 8002164:	f7fe fce0 	bl	8000b28 <__aeabi_dcmpgt>
 8002168:	b110      	cbz	r0, 8002170 <set_lower_bandwidth+0x20>
 800216a:	a537      	add	r5, pc, #220	@ (adr r5, 8002248 <set_lower_bandwidth+0xf8>)
 800216c:	e9d5 4500 	ldrd	r4, r5, [r5]
 8002170:	ec45 4b10 	vmov	d0, r4, r5
 8002174:	f7ff fcf0 	bl	8001b58 <rL_from_lower_bandwidth>
 8002178:	2300      	movs	r3, #0
 800217a:	4620      	mov	r0, r4
 800217c:	e9ca 3325 	strd	r3, r3, [sl, #148]	@ 0x94
 8002180:	a333      	add	r3, pc, #204	@ (adr r3, 8002250 <set_lower_bandwidth+0x100>)
 8002182:	e9d3 2300 	ldrd	r2, r3, [r3]
 8002186:	4629      	mov	r1, r5
 8002188:	ed8d 0b00 	vstr	d0, [sp]
 800218c:	f7fe fcae 	bl	8000aec <__aeabi_dcmplt>
 8002190:	2800      	cmp	r0, #0
 8002192:	d054      	beq.n	800223e <set_lower_bandwidth+0xee>
 8002194:	a530      	add	r5, pc, #192	@ (adr r5, 8002258 <set_lower_bandwidth+0x108>)
 8002196:	e9d5 4500 	ldrd	r4, r5, [r5]
 800219a:	2001      	movs	r0, #1
 800219c:	a730      	add	r7, pc, #192	@ (adr r7, 8002260 <set_lower_bandwidth+0x110>)
 800219e:	e9d7 6700 	ldrd	r6, r7, [r7]
 80021a2:	f20f 09c4 	addw	r9, pc, #196	@ 0xc4
 80021a6:	e9d9 8900 	ldrd	r8, r9, [r9]
 80021aa:	f04f 0b3f 	mov.w	fp, #63	@ 0x3f
 80021ae:	f8ca 009c 	str.w	r0, [sl, #156]	@ 0x9c
 80021b2:	4632      	mov	r2, r6
 80021b4:	e9dd 0100 	ldrd	r0, r1, [sp]
 80021b8:	463b      	mov	r3, r7
 80021ba:	f7fe f86d 	bl	8000298 <__aeabi_dsub>
 80021be:	4622      	mov	r2, r4
 80021c0:	462b      	mov	r3, r5
 80021c2:	f7fe fcb1 	bl	8000b28 <__aeabi_dcmpgt>
 80021c6:	b160      	cbz	r0, 80021e2 <set_lower_bandwidth+0x92>
 80021c8:	464b      	mov	r3, r9
 80021ca:	4620      	mov	r0, r4
 80021cc:	4629      	mov	r1, r5
 80021ce:	4642      	mov	r2, r8
 80021d0:	f7fe f864 	bl	800029c <__adddf3>
 80021d4:	4604      	mov	r4, r0
 80021d6:	460d      	mov	r5, r1
 80021d8:	f8da 3098 	ldr.w	r3, [sl, #152]	@ 0x98
 80021dc:	3301      	adds	r3, #1
 80021de:	f8ca 3098 	str.w	r3, [sl, #152]	@ 0x98
 80021e2:	f1bb 0b01 	subs.w	fp, fp, #1
 80021e6:	d1e4      	bne.n	80021b2 <set_lower_bandwidth+0x62>
 80021e8:	f04f 0b7f 	mov.w	fp, #127	@ 0x7f
 80021ec:	f20f 0980 	addw	r9, pc, #128	@ 0x80
 80021f0:	e9d9 8900 	ldrd	r8, r9, [r9]
 80021f4:	a720      	add	r7, pc, #128	@ (adr r7, 8002278 <set_lower_bandwidth+0x128>)
 80021f6:	e9d7 6700 	ldrd	r6, r7, [r7]
 80021fa:	e9dd 0100 	ldrd	r0, r1, [sp]
 80021fe:	4642      	mov	r2, r8
 8002200:	464b      	mov	r3, r9
 8002202:	f7fe f849 	bl	8000298 <__aeabi_dsub>
 8002206:	4622      	mov	r2, r4
 8002208:	462b      	mov	r3, r5
 800220a:	f7fe fc8d 	bl	8000b28 <__aeabi_dcmpgt>
 800220e:	b160      	cbz	r0, 800222a <set_lower_bandwidth+0xda>
 8002210:	463b      	mov	r3, r7
 8002212:	4620      	mov	r0, r4
 8002214:	4629      	mov	r1, r5
 8002216:	4632      	mov	r2, r6
 8002218:	f7fe f840 	bl	800029c <__adddf3>
 800221c:	4604      	mov	r4, r0
 800221e:	460d      	mov	r5, r1
 8002220:	f8da 3094 	ldr.w	r3, [sl, #148]	@ 0x94
 8002224:	3301      	adds	r3, #1
 8002226:	f8ca 3094 	str.w	r3, [sl, #148]	@ 0x94
 800222a:	f1bb 0b01 	subs.w	fp, fp, #1
 800222e:	d1e4      	bne.n	80021fa <set_lower_bandwidth+0xaa>
 8002230:	ec45 4b10 	vmov	d0, r4, r5
 8002234:	b003      	add	sp, #12
 8002236:	e8bd 4ff0 	ldmia.w	sp!, {r4, r5, r6, r7, r8, r9, sl, fp, lr}
 800223a:	f7ff bec9 	b.w	8001fd0 <lower_bandwidth_from_rL>
 800223e:	a510      	add	r5, pc, #64	@ (adr r5, 8002280 <set_lower_bandwidth+0x130>)
 8002240:	e9d5 4500 	ldrd	r4, r5, [r5]
 8002244:	e7aa      	b.n	800219c <set_lower_bandwidth+0x4c>
 8002246:	bf00      	nop
 8002248:	00000000 	.word	0x00000000
 800224c:	40977000 	.word	0x40977000
 8002250:	33333333 	.word	0x33333333
 8002254:	3fc33333 	.word	0x3fc33333
 8002258:	00000000 	.word	0x00000000
 800225c:	4146ea36 	.word	0x4146ea36
 8002260:	00000000 	.word	0x00000000
 8002264:	40c8a240 	.word	0x40c8a240
 8002268:	00000000 	.word	0x00000000
 800226c:	40c8ce00 	.word	0x40c8ce00
 8002270:	00000000 	.word	0x00000000
 8002274:	4055e000 	.word	0x4055e000
 8002278:	00000000 	.word	0x00000000
 800227c:	4065e000 	.word	0x4065e000
 8002280:	00000000 	.word	0x00000000
 8002284:	40ab5800 	.word	0x40ab5800

08002288 <set_biases_based_on_sample_rate>:
 8002288:	b5f8      	push	{r3, r4, r5, r6, r7, lr}
 800228a:	2200      	movs	r2, #0
 800228c:	4b40      	ldr	r3, [pc, #256]	@ (8002390 <set_biases_based_on_sample_rate+0x108>)
 800228e:	4607      	mov	r7, r0
 8002290:	460e      	mov	r6, r1
 8002292:	ec51 0b10 	vmov	r0, r1, d0
 8002296:	f7fe f9b7 	bl	8000608 <__aeabi_dmul>
 800229a:	2200      	movs	r2, #0
 800229c:	4b3d      	ldr	r3, [pc, #244]	@ (8002394 <set_biases_based_on_sample_rate+0x10c>)
 800229e:	4604      	mov	r4, r0
 80022a0:	460d      	mov	r5, r1
 80022a2:	f7fe fc2d 	bl	8000b00 <__aeabi_dcmple>
 80022a6:	2800      	cmp	r0, #0
 80022a8:	d141      	bne.n	800232e <set_biases_based_on_sample_rate+0xa6>
 80022aa:	a32b      	add	r3, pc, #172	@ (adr r3, 8002358 <set_biases_based_on_sample_rate+0xd0>)
 80022ac:	e9d3 2300 	ldrd	r2, r3, [r3]
 80022b0:	4620      	mov	r0, r4
 80022b2:	4629      	mov	r1, r5
 80022b4:	f7fe fc24 	bl	8000b00 <__aeabi_dcmple>
 80022b8:	2800      	cmp	r0, #0
 80022ba:	d13b      	bne.n	8002334 <set_biases_based_on_sample_rate+0xac>
 80022bc:	a328      	add	r3, pc, #160	@ (adr r3, 8002360 <set_biases_based_on_sample_rate+0xd8>)
 80022be:	e9d3 2300 	ldrd	r2, r3, [r3]
 80022c2:	4620      	mov	r0, r4
 80022c4:	4629      	mov	r1, r5
 80022c6:	f7fe fc1b 	bl	8000b00 <__aeabi_dcmple>
 80022ca:	2800      	cmp	r0, #0
 80022cc:	d134      	bne.n	8002338 <set_biases_based_on_sample_rate+0xb0>
 80022ce:	a326      	add	r3, pc, #152	@ (adr r3, 8002368 <set_biases_based_on_sample_rate+0xe0>)
 80022d0:	e9d3 2300 	ldrd	r2, r3, [r3]
 80022d4:	4620      	mov	r0, r4
 80022d6:	4629      	mov	r1, r5
 80022d8:	f7fe fc12 	bl	8000b00 <__aeabi_dcmple>
 80022dc:	bb70      	cbnz	r0, 800233c <set_biases_based_on_sample_rate+0xb4>
 80022de:	a324      	add	r3, pc, #144	@ (adr r3, 8002370 <set_biases_based_on_sample_rate+0xe8>)
 80022e0:	e9d3 2300 	ldrd	r2, r3, [r3]
 80022e4:	4620      	mov	r0, r4
 80022e6:	4629      	mov	r1, r5
 80022e8:	f7fe fc0a 	bl	8000b00 <__aeabi_dcmple>
 80022ec:	bb48      	cbnz	r0, 8002342 <set_biases_based_on_sample_rate+0xba>
 80022ee:	a322      	add	r3, pc, #136	@ (adr r3, 8002378 <set_biases_based_on_sample_rate+0xf0>)
 80022f0:	e9d3 2300 	ldrd	r2, r3, [r3]
 80022f4:	4620      	mov	r0, r4
 80022f6:	4629      	mov	r1, r5
 80022f8:	f7fe fc02 	bl	8000b00 <__aeabi_dcmple>
 80022fc:	bb20      	cbnz	r0, 8002348 <set_biases_based_on_sample_rate+0xc0>
 80022fe:	a320      	add	r3, pc, #128	@ (adr r3, 8002380 <set_biases_based_on_sample_rate+0xf8>)
 8002300:	e9d3 2300 	ldrd	r2, r3, [r3]
 8002304:	4620      	mov	r0, r4
 8002306:	4629      	mov	r1, r5
 8002308:	f7fe fbfa 	bl	8000b00 <__aeabi_dcmple>
 800230c:	b9f8      	cbnz	r0, 800234e <set_biases_based_on_sample_rate+0xc6>
 800230e:	a31e      	add	r3, pc, #120	@ (adr r3, 8002388 <set_biases_based_on_sample_rate+0x100>)
 8002310:	e9d3 2300 	ldrd	r2, r3, [r3]
 8002314:	4620      	mov	r0, r4
 8002316:	4629      	mov	r1, r5
 8002318:	f7fe fbf2 	bl	8000b00 <__aeabi_dcmple>
 800231c:	2800      	cmp	r0, #0
 800231e:	bf15      	itete	ne
 8002320:	2203      	movne	r2, #3
 8002322:	2202      	moveq	r2, #2
 8002324:	2307      	movne	r3, #7
 8002326:	2304      	moveq	r3, #4
 8002328:	603a      	str	r2, [r7, #0]
 800232a:	6033      	str	r3, [r6, #0]
 800232c:	bdf8      	pop	{r3, r4, r5, r6, r7, pc}
 800232e:	2220      	movs	r2, #32
 8002330:	2328      	movs	r3, #40	@ 0x28
 8002332:	e7f9      	b.n	8002328 <set_biases_based_on_sample_rate+0xa0>
 8002334:	2210      	movs	r2, #16
 8002336:	e7fb      	b.n	8002330 <set_biases_based_on_sample_rate+0xa8>
 8002338:	2208      	movs	r2, #8
 800233a:	e7f9      	b.n	8002330 <set_biases_based_on_sample_rate+0xa8>
 800233c:	2208      	movs	r2, #8
 800233e:	2320      	movs	r3, #32
 8002340:	e7f2      	b.n	8002328 <set_biases_based_on_sample_rate+0xa0>
 8002342:	2208      	movs	r2, #8
 8002344:	231a      	movs	r3, #26
 8002346:	e7ef      	b.n	8002328 <set_biases_based_on_sample_rate+0xa0>
 8002348:	2204      	movs	r2, #4
 800234a:	2312      	movs	r3, #18
 800234c:	e7ec      	b.n	8002328 <set_biases_based_on_sample_rate+0xa0>
 800234e:	2203      	movs	r2, #3
 8002350:	2310      	movs	r3, #16
 8002352:	e7e9      	b.n	8002328 <set_biases_based_on_sample_rate+0xa0>
 8002354:	f3af 8000 	nop.w
 8002358:	00000000 	.word	0x00000000
 800235c:	41011700 	.word	0x41011700
 8002360:	00000000 	.word	0x00000000
 8002364:	41055cc0 	.word	0x41055cc0
 8002368:	00000000 	.word	0x00000000
 800236c:	410adb00 	.word	0x410adb00
 8002370:	00000000 	.word	0x00000000
 8002374:	41111700 	.word	0x41111700
 8002378:	00000000 	.word	0x00000000
 800237c:	41155cc0 	.word	0x41155cc0
 8002380:	00000000 	.word	0x00000000
 8002384:	411adb00 	.word	0x411adb00
 8002388:	00000000 	.word	0x00000000
 800238c:	41200590 	.word	0x41200590
 8002390:	40418000 	.word	0x40418000
 8002394:	40fd4c00 	.word	0x40fd4c00

08002398 <set_default_rhd_settings>:
 8002398:	b570      	push	{r4, r5, r6, lr}
 800239a:	2303      	movs	r3, #3
 800239c:	2601      	movs	r6, #1
 800239e:	4604      	mov	r4, r0
 80023a0:	2500      	movs	r5, #0
 80023a2:	ed2d 8b02 	vpush	{d8}
 80023a6:	e9c0 6303 	strd	r6, r3, [r0, #12]
 80023aa:	6083      	str	r3, [r0, #8]
 80023ac:	2302      	movs	r3, #2
 80023ae:	ed9f 8b20 	vldr	d8, [pc, #128]	@ 8002430 <set_default_rhd_settings+0x98>
 80023b2:	e9c0 3605 	strd	r3, r6, [r0, #20]
 80023b6:	f104 0120 	add.w	r1, r4, #32
 80023ba:	f8c0 5120 	str.w	r5, [r0, #288]	@ 0x120
 80023be:	ed94 0b00 	vldr	d0, [r4]
 80023c2:	301c      	adds	r0, #28
 80023c4:	f7ff ff60 	bl	8002288 <set_biases_based_on_sample_rate>
 80023c8:	4620      	mov	r0, r4
 80023ca:	eeb0 0a48 	vmov.f32	s0, s16
 80023ce:	eef0 0a68 	vmov.f32	s1, s17
 80023d2:	e9c4 5509 	strd	r5, r5, [r4, #36]	@ 0x24
 80023d6:	e9c4 550b 	strd	r5, r5, [r4, #44]	@ 0x2c
 80023da:	e9c4 560d 	strd	r5, r6, [r4, #52]	@ 0x34
 80023de:	e9c4 650f 	strd	r6, r5, [r4, #60]	@ 0x3c
 80023e2:	e9c4 5611 	strd	r5, r6, [r4, #68]	@ 0x44
 80023e6:	f7ff fa7f 	bl	80018e8 <set_DSP_cutoff_freq>
 80023ea:	4620      	mov	r0, r4
 80023ec:	e9c4 6514 	strd	r6, r5, [r4, #80]	@ 0x50
 80023f0:	e9c4 5516 	strd	r5, r5, [r4, #88]	@ 0x58
 80023f4:	e9c4 5518 	strd	r5, r5, [r4, #96]	@ 0x60
 80023f8:	e9c4 551a 	strd	r5, r5, [r4, #104]	@ 0x68
 80023fc:	67a6      	str	r6, [r4, #120]	@ 0x78
 80023fe:	6725      	str	r5, [r4, #112]	@ 0x70
 8002400:	67e6      	str	r6, [r4, #124]	@ 0x7c
 8002402:	6765      	str	r5, [r4, #116]	@ 0x74
 8002404:	f8c4 6080 	str.w	r6, [r4, #128]	@ 0x80
 8002408:	ed9f 0b0b 	vldr	d0, [pc, #44]	@ 8002438 <set_default_rhd_settings+0xa0>
 800240c:	f7ff fce4 	bl	8001dd8 <set_upper_bandwidth>
 8002410:	4620      	mov	r0, r4
 8002412:	eeb0 0a48 	vmov.f32	s0, s16
 8002416:	eef0 0a68 	vmov.f32	s1, s17
 800241a:	f7ff fe99 	bl	8002150 <set_lower_bandwidth>
 800241e:	ecbd 8b02 	vpop	{d8}
 8002422:	4620      	mov	r0, r4
 8002424:	e8bd 4070 	ldmia.w	sp!, {r4, r5, r6, lr}
 8002428:	f7ff baf4 	b.w	8001a14 <power_up_all_amps>
 800242c:	f3af 8000 	nop.w
 8002430:	00000000 	.word	0x00000000
 8002434:	3ff00000 	.word	0x3ff00000
 8002438:	00000000 	.word	0x00000000
 800243c:	40bd4c00 	.word	0x40bd4c00

08002440 <get_register_value>:
 8002440:	4602      	mov	r2, r0
 8002442:	2911      	cmp	r1, #17
 8002444:	f200 80e3 	bhi.w	800260e <get_register_value+0x1ce>
 8002448:	e8df f001 	tbb	[pc, r1]
 800244c:	22201b0c 	.word	0x22201b0c
 8002450:	4f093f32 	.word	0x4f093f32
 8002454:	5f5b5751 	.word	0x5f5b5751
 8002458:	8d716763 	.word	0x8d716763
 800245c:	c5a9      	.short	0xc5a9
 800245e:	2080      	movs	r0, #128	@ 0x80
 8002460:	b280      	uxth	r0, r0
 8002462:	4770      	bx	lr
 8002464:	f8d0 3120 	ldr.w	r3, [r0, #288]	@ 0x120
 8002468:	6881      	ldr	r1, [r0, #8]
 800246a:	0158      	lsls	r0, r3, #5
 800246c:	68d3      	ldr	r3, [r2, #12]
 800246e:	eb00 1081 	add.w	r0, r0, r1, lsl #6
 8002472:	eb00 1003 	add.w	r0, r0, r3, lsl #4
 8002476:	6913      	ldr	r3, [r2, #16]
 8002478:	eb00 0083 	add.w	r0, r0, r3, lsl #2
 800247c:	6953      	ldr	r3, [r2, #20]
 800247e:	4418      	add	r0, r3
 8002480:	e7ee      	b.n	8002460 <get_register_value+0x20>
 8002482:	e9d0 3006 	ldrd	r3, r0, [r0, #24]
 8002486:	eb00 1083 	add.w	r0, r0, r3, lsl #6
 800248a:	e7e9      	b.n	8002460 <get_register_value+0x20>
 800248c:	6a00      	ldr	r0, [r0, #32]
 800248e:	e7e7      	b.n	8002460 <get_register_value+0x20>
 8002490:	6ac3      	ldr	r3, [r0, #44]	@ 0x2c
 8002492:	6a41      	ldr	r1, [r0, #36]	@ 0x24
 8002494:	0118      	lsls	r0, r3, #4
 8002496:	6a93      	ldr	r3, [r2, #40]	@ 0x28
 8002498:	eb00 1041 	add.w	r0, r0, r1, lsl #5
 800249c:	eb00 00c3 	add.w	r0, r0, r3, lsl #3
 80024a0:	6b13      	ldr	r3, [r2, #48]	@ 0x30
 80024a2:	eb00 0083 	add.w	r0, r0, r3, lsl #2
 80024a6:	6b93      	ldr	r3, [r2, #56]	@ 0x38
 80024a8:	eb00 0043 	add.w	r0, r0, r3, lsl #1
 80024ac:	6b53      	ldr	r3, [r2, #52]	@ 0x34
 80024ae:	e7e6      	b.n	800247e <get_register_value+0x3e>
 80024b0:	e9d0 130f 	ldrd	r1, r3, [r0, #60]	@ 0x3c
 80024b4:	0198      	lsls	r0, r3, #6
 80024b6:	6c53      	ldr	r3, [r2, #68]	@ 0x44
 80024b8:	eb00 10c1 	add.w	r0, r0, r1, lsl #7
 80024bc:	eb00 1043 	add.w	r0, r0, r3, lsl #5
 80024c0:	6c93      	ldr	r3, [r2, #72]	@ 0x48
 80024c2:	eb00 1003 	add.w	r0, r0, r3, lsl #4
 80024c6:	6cd3      	ldr	r3, [r2, #76]	@ 0x4c
 80024c8:	e7d9      	b.n	800247e <get_register_value+0x3e>
 80024ca:	e9d0 1314 	ldrd	r1, r3, [r0, #80]	@ 0x50
 80024ce:	0158      	lsls	r0, r3, #5
 80024d0:	6d93      	ldr	r3, [r2, #88]	@ 0x58
 80024d2:	eb00 1081 	add.w	r0, r0, r1, lsl #6
 80024d6:	eb00 00c3 	add.w	r0, r0, r3, lsl #3
 80024da:	6dd3      	ldr	r3, [r2, #92]	@ 0x5c
 80024dc:	eb00 0083 	add.w	r0, r0, r3, lsl #2
 80024e0:	6e13      	ldr	r3, [r2, #96]	@ 0x60
 80024e2:	eb00 0043 	add.w	r0, r0, r3, lsl #1
 80024e6:	6e53      	ldr	r3, [r2, #100]	@ 0x64
 80024e8:	e7c9      	b.n	800247e <get_register_value+0x3e>
 80024ea:	6e80      	ldr	r0, [r0, #104]	@ 0x68
 80024ec:	e7b8      	b.n	8002460 <get_register_value+0x20>
 80024ee:	6ec3      	ldr	r3, [r0, #108]	@ 0x6c
 80024f0:	f8d0 0084 	ldr.w	r0, [r0, #132]	@ 0x84
 80024f4:	eb00 10c3 	add.w	r0, r0, r3, lsl #7
 80024f8:	e7b2      	b.n	8002460 <get_register_value+0x20>
 80024fa:	6f83      	ldr	r3, [r0, #120]	@ 0x78
 80024fc:	f8d0 0088 	ldr.w	r0, [r0, #136]	@ 0x88
 8002500:	e7f8      	b.n	80024f4 <get_register_value+0xb4>
 8002502:	6f03      	ldr	r3, [r0, #112]	@ 0x70
 8002504:	f8d0 008c 	ldr.w	r0, [r0, #140]	@ 0x8c
 8002508:	e7f4      	b.n	80024f4 <get_register_value+0xb4>
 800250a:	6fc3      	ldr	r3, [r0, #124]	@ 0x7c
 800250c:	f8d0 0090 	ldr.w	r0, [r0, #144]	@ 0x90
 8002510:	e7f0      	b.n	80024f4 <get_register_value+0xb4>
 8002512:	6f43      	ldr	r3, [r0, #116]	@ 0x74
 8002514:	f8d0 0094 	ldr.w	r0, [r0, #148]	@ 0x94
 8002518:	e7ec      	b.n	80024f4 <get_register_value+0xb4>
 800251a:	f8d0 309c 	ldr.w	r3, [r0, #156]	@ 0x9c
 800251e:	f8d0 1080 	ldr.w	r1, [r0, #128]	@ 0x80
 8002522:	0198      	lsls	r0, r3, #6
 8002524:	eb00 10c1 	add.w	r0, r0, r1, lsl #7
 8002528:	f8d2 3098 	ldr.w	r3, [r2, #152]	@ 0x98
 800252c:	e7a7      	b.n	800247e <get_register_value+0x3e>
 800252e:	e9d0 312e 	ldrd	r3, r1, [r0, #184]	@ 0xb8
 8002532:	0198      	lsls	r0, r3, #6
 8002534:	f8d2 30b4 	ldr.w	r3, [r2, #180]	@ 0xb4
 8002538:	eb00 10c1 	add.w	r0, r0, r1, lsl #7
 800253c:	eb00 1043 	add.w	r0, r0, r3, lsl #5
 8002540:	f8d2 30b0 	ldr.w	r3, [r2, #176]	@ 0xb0
 8002544:	eb00 1003 	add.w	r0, r0, r3, lsl #4
 8002548:	f8d2 30ac 	ldr.w	r3, [r2, #172]	@ 0xac
 800254c:	eb00 00c3 	add.w	r0, r0, r3, lsl #3
 8002550:	f8d2 30a8 	ldr.w	r3, [r2, #168]	@ 0xa8
 8002554:	eb00 0083 	add.w	r0, r0, r3, lsl #2
 8002558:	f8d2 30a4 	ldr.w	r3, [r2, #164]	@ 0xa4
 800255c:	eb00 0043 	add.w	r0, r0, r3, lsl #1
 8002560:	f8d2 30a0 	ldr.w	r3, [r2, #160]	@ 0xa0
 8002564:	e78b      	b.n	800247e <get_register_value+0x3e>
 8002566:	e9d0 3136 	ldrd	r3, r1, [r0, #216]	@ 0xd8
 800256a:	0198      	lsls	r0, r3, #6
 800256c:	f8d2 30d4 	ldr.w	r3, [r2, #212]	@ 0xd4
 8002570:	eb00 10c1 	add.w	r0, r0, r1, lsl #7
 8002574:	eb00 1043 	add.w	r0, r0, r3, lsl #5
 8002578:	f8d2 30d0 	ldr.w	r3, [r2, #208]	@ 0xd0
 800257c:	eb00 1003 	add.w	r0, r0, r3, lsl #4
 8002580:	f8d2 30cc 	ldr.w	r3, [r2, #204]	@ 0xcc
 8002584:	eb00 00c3 	add.w	r0, r0, r3, lsl #3
 8002588:	f8d2 30c8 	ldr.w	r3, [r2, #200]	@ 0xc8
 800258c:	eb00 0083 	add.w	r0, r0, r3, lsl #2
 8002590:	f8d2 30c4 	ldr.w	r3, [r2, #196]	@ 0xc4
 8002594:	eb00 0043 	add.w	r0, r0, r3, lsl #1
 8002598:	f8d2 30c0 	ldr.w	r3, [r2, #192]	@ 0xc0
 800259c:	e76f      	b.n	800247e <get_register_value+0x3e>
 800259e:	e9d0 313e 	ldrd	r3, r1, [r0, #248]	@ 0xf8
 80025a2:	0198      	lsls	r0, r3, #6
 80025a4:	f8d2 30f4 	ldr.w	r3, [r2, #244]	@ 0xf4
 80025a8:	eb00 10c1 	add.w	r0, r0, r1, lsl #7
 80025ac:	eb00 1043 	add.w	r0, r0, r3, lsl #5
 80025b0:	f8d2 30f0 	ldr.w	r3, [r2, #240]	@ 0xf0
 80025b4:	eb00 1003 	add.w	r0, r0, r3, lsl #4
 80025b8:	f8d2 30ec 	ldr.w	r3, [r2, #236]	@ 0xec
 80025bc:	eb00 00c3 	add.w	r0, r0, r3, lsl #3
 80025c0:	f8d2 30e8 	ldr.w	r3, [r2, #232]	@ 0xe8
 80025c4:	eb00 0083 	add.w	r0, r0, r3, lsl #2
 80025c8:	f8d2 30e4 	ldr.w	r3, [r2, #228]	@ 0xe4
 80025cc:	eb00 0043 	add.w	r0, r0, r3, lsl #1
 80025d0:	f8d2 30e0 	ldr.w	r3, [r2, #224]	@ 0xe0
 80025d4:	e753      	b.n	800247e <get_register_value+0x3e>
 80025d6:	e9d0 3146 	ldrd	r3, r1, [r0, #280]	@ 0x118
 80025da:	019b      	lsls	r3, r3, #6
 80025dc:	eb03 13c1 	add.w	r3, r3, r1, lsl #7
 80025e0:	f8d0 1114 	ldr.w	r1, [r0, #276]	@ 0x114
 80025e4:	eb03 1341 	add.w	r3, r3, r1, lsl #5
 80025e8:	f8d0 1110 	ldr.w	r1, [r0, #272]	@ 0x110
 80025ec:	eb03 1301 	add.w	r3, r3, r1, lsl #4
 80025f0:	f8d0 110c 	ldr.w	r1, [r0, #268]	@ 0x10c
 80025f4:	eb03 03c1 	add.w	r3, r3, r1, lsl #3
 80025f8:	f8d0 1108 	ldr.w	r1, [r0, #264]	@ 0x108
 80025fc:	eb03 0381 	add.w	r3, r3, r1, lsl #2
 8002600:	f8d0 1104 	ldr.w	r1, [r0, #260]	@ 0x104
 8002604:	f8d0 0100 	ldr.w	r0, [r0, #256]	@ 0x100
 8002608:	eb03 0341 	add.w	r3, r3, r1, lsl #1
 800260c:	e737      	b.n	800247e <get_register_value+0x3e>
 800260e:	2000      	movs	r0, #0
 8002610:	e726      	b.n	8002460 <get_register_value+0x20>

08002612 <convert_command>:
 8002612:	ea41 2000 	orr.w	r0, r1, r0, lsl #8
 8002616:	4770      	bx	lr

08002618 <calibrate_command>:
 8002618:	f44f 40aa 	mov.w	r0, #21760	@ 0x5500
 800261c:	4770      	bx	lr

0800261e <write_command>:
 800261e:	ea41 2000 	orr.w	r0, r1, r0, lsl #8
 8002622:	f440 4000 	orr.w	r0, r0, #32768	@ 0x8000
 8002626:	4770      	bx	lr

08002628 <read_command>:
 8002628:	0200      	lsls	r0, r0, #8
 800262a:	f440 4040 	orr.w	r0, r0, #49152	@ 0xc000
 800262e:	4770      	bx	lr

08002630 <HAL_MspInit>:
 8002630:	4b07      	ldr	r3, [pc, #28]	@ (8002650 <HAL_MspInit+0x20>)
 8002632:	b082      	sub	sp, #8
 8002634:	f8d3 2094 	ldr.w	r2, [r3, #148]	@ 0x94
 8002638:	f042 0204 	orr.w	r2, r2, #4
 800263c:	f8c3 2094 	str.w	r2, [r3, #148]	@ 0x94
 8002640:	f8d3 3094 	ldr.w	r3, [r3, #148]	@ 0x94
 8002644:	f003 0304 	and.w	r3, r3, #4
 8002648:	9301      	str	r3, [sp, #4]
 800264a:	9b01      	ldr	r3, [sp, #4]
 800264c:	b002      	add	sp, #8
 800264e:	4770      	bx	lr
 8002650:	46020c00 	.word	0x46020c00

08002654 <HAL_SPI_MspInit>:
 8002654:	e92d 41f0 	stmdb	sp!, {r4, r5, r6, r7, r8, lr}
 8002658:	4606      	mov	r6, r0
 800265a:	b0be      	sub	sp, #248	@ 0xf8
 800265c:	2214      	movs	r2, #20
 800265e:	2100      	movs	r1, #0
 8002660:	a803      	add	r0, sp, #12
 8002662:	f005 fbb9 	bl	8007dd8 <memset>
 8002666:	22d8      	movs	r2, #216	@ 0xd8
 8002668:	2100      	movs	r1, #0
 800266a:	a808      	add	r0, sp, #32
 800266c:	f005 fbb4 	bl	8007dd8 <memset>
 8002670:	6832      	ldr	r2, [r6, #0]
 8002672:	4b53      	ldr	r3, [pc, #332]	@ (80027c0 <HAL_SPI_MspInit+0x16c>)
 8002674:	429a      	cmp	r2, r3
 8002676:	f040 80a0 	bne.w	80027ba <HAL_SPI_MspInit+0x166>
 800267a:	f04f 7200 	mov.w	r2, #33554432	@ 0x2000000
 800267e:	2300      	movs	r3, #0
 8002680:	a808      	add	r0, sp, #32
 8002682:	e9cd 2308 	strd	r2, r3, [sp, #32]
 8002686:	f002 f8cf 	bl	8004828 <HAL_RCCEx_PeriphCLKConfig>
 800268a:	b108      	cbz	r0, 8002690 <HAL_SPI_MspInit+0x3c>
 800268c:	f7fe fe72 	bl	8001374 <Error_Handler>
 8002690:	4b4c      	ldr	r3, [pc, #304]	@ (80027c4 <HAL_SPI_MspInit+0x170>)
 8002692:	2500      	movs	r5, #0
 8002694:	f8d3 20a8 	ldr.w	r2, [r3, #168]	@ 0xa8
 8002698:	2406      	movs	r4, #6
 800269a:	f042 0220 	orr.w	r2, r2, #32
 800269e:	f8c3 20a8 	str.w	r2, [r3, #168]	@ 0xa8
 80026a2:	f8d3 20a8 	ldr.w	r2, [r3, #168]	@ 0xa8
 80026a6:	f04f 0802 	mov.w	r8, #2
 80026aa:	f002 0220 	and.w	r2, r2, #32
 80026ae:	9200      	str	r2, [sp, #0]
 80026b0:	9a00      	ldr	r2, [sp, #0]
 80026b2:	f8d3 208c 	ldr.w	r2, [r3, #140]	@ 0x8c
 80026b6:	2703      	movs	r7, #3
 80026b8:	f042 0201 	orr.w	r2, r2, #1
 80026bc:	f8c3 208c 	str.w	r2, [r3, #140]	@ 0x8c
 80026c0:	f8d3 208c 	ldr.w	r2, [r3, #140]	@ 0x8c
 80026c4:	4840      	ldr	r0, [pc, #256]	@ (80027c8 <HAL_SPI_MspInit+0x174>)
 80026c6:	f002 0201 	and.w	r2, r2, #1
 80026ca:	9201      	str	r2, [sp, #4]
 80026cc:	9a01      	ldr	r2, [sp, #4]
 80026ce:	f8d3 208c 	ldr.w	r2, [r3, #140]	@ 0x8c
 80026d2:	a903      	add	r1, sp, #12
 80026d4:	f042 0204 	orr.w	r2, r2, #4
 80026d8:	f8c3 208c 	str.w	r2, [r3, #140]	@ 0x8c
 80026dc:	f8d3 308c 	ldr.w	r3, [r3, #140]	@ 0x8c
 80026e0:	9407      	str	r4, [sp, #28]
 80026e2:	f003 0304 	and.w	r3, r3, #4
 80026e6:	9302      	str	r3, [sp, #8]
 80026e8:	9b02      	ldr	r3, [sp, #8]
 80026ea:	2310      	movs	r3, #16
 80026ec:	e9cd 5705 	strd	r5, r7, [sp, #20]
 80026f0:	e9cd 3803 	strd	r3, r8, [sp, #12]
 80026f4:	f000 ff34 	bl	8003560 <HAL_GPIO_Init>
 80026f8:	f44f 53e0 	mov.w	r3, #7168	@ 0x1c00
 80026fc:	4833      	ldr	r0, [pc, #204]	@ (80027cc <HAL_SPI_MspInit+0x178>)
 80026fe:	a903      	add	r1, sp, #12
 8002700:	e9cd 3803 	strd	r3, r8, [sp, #12]
 8002704:	9407      	str	r4, [sp, #28]
 8002706:	e9cd 5705 	strd	r5, r7, [sp, #20]
 800270a:	f000 ff29 	bl	8003560 <HAL_GPIO_Init>
 800270e:	230a      	movs	r3, #10
 8002710:	4c2f      	ldr	r4, [pc, #188]	@ (80027d0 <HAL_SPI_MspInit+0x17c>)
 8002712:	4930      	ldr	r1, [pc, #192]	@ (80027d4 <HAL_SPI_MspInit+0x180>)
 8002714:	f44f 2000 	mov.w	r0, #524288	@ 0x80000
 8002718:	e9c4 1300 	strd	r1, r3, [r4]
 800271c:	2301      	movs	r3, #1
 800271e:	f44f 3280 	mov.w	r2, #65536	@ 0x10000
 8002722:	e9c4 0305 	strd	r0, r3, [r4, #20]
 8002726:	4620      	mov	r0, r4
 8002728:	e9c4 5502 	strd	r5, r5, [r4, #8]
 800272c:	e9c4 2507 	strd	r2, r5, [r4, #28]
 8002730:	e9c4 3309 	strd	r3, r3, [r4, #36]	@ 0x24
 8002734:	e9c4 550b 	strd	r5, r5, [r4, #44]	@ 0x2c
 8002738:	6125      	str	r5, [r4, #16]
 800273a:	6365      	str	r5, [r4, #52]	@ 0x34
 800273c:	f000 fb78 	bl	8002e30 <HAL_DMA_Init>
 8002740:	b108      	cbz	r0, 8002746 <HAL_SPI_MspInit+0xf2>
 8002742:	f7fe fe17 	bl	8001374 <Error_Handler>
 8002746:	2110      	movs	r1, #16
 8002748:	4821      	ldr	r0, [pc, #132]	@ (80027d0 <HAL_SPI_MspInit+0x17c>)
 800274a:	f8c6 4084 	str.w	r4, [r6, #132]	@ 0x84
 800274e:	65e6      	str	r6, [r4, #92]	@ 0x5c
 8002750:	f000 fe82 	bl	8003458 <HAL_DMA_ConfigChannelAttributes>
 8002754:	b108      	cbz	r0, 800275a <HAL_SPI_MspInit+0x106>
 8002756:	f7fe fe0d 	bl	8001374 <Error_Handler>
 800275a:	230b      	movs	r3, #11
 800275c:	4c1e      	ldr	r4, [pc, #120]	@ (80027d8 <HAL_SPI_MspInit+0x184>)
 800275e:	4a1f      	ldr	r2, [pc, #124]	@ (80027dc <HAL_SPI_MspInit+0x188>)
 8002760:	f44f 3180 	mov.w	r1, #65536	@ 0x10000
 8002764:	e9c4 2300 	strd	r2, r3, [r4]
 8002768:	2300      	movs	r3, #0
 800276a:	f44f 6280 	mov.w	r2, #1024	@ 0x400
 800276e:	e9c4 3202 	strd	r3, r2, [r4, #8]
 8002772:	2208      	movs	r2, #8
 8002774:	e9c4 2304 	strd	r2, r3, [r4, #16]
 8002778:	2201      	movs	r2, #1
 800277a:	4620      	mov	r0, r4
 800277c:	e9c4 2106 	strd	r2, r1, [r4, #24]
 8002780:	e9c4 3208 	strd	r3, r2, [r4, #32]
 8002784:	e9c4 230a 	strd	r2, r3, [r4, #40]	@ 0x28
 8002788:	e9c4 330c 	strd	r3, r3, [r4, #48]	@ 0x30
 800278c:	f000 fb50 	bl	8002e30 <HAL_DMA_Init>
 8002790:	b108      	cbz	r0, 8002796 <HAL_SPI_MspInit+0x142>
 8002792:	f7fe fdef 	bl	8001374 <Error_Handler>
 8002796:	2110      	movs	r1, #16
 8002798:	480f      	ldr	r0, [pc, #60]	@ (80027d8 <HAL_SPI_MspInit+0x184>)
 800279a:	f8c6 4080 	str.w	r4, [r6, #128]	@ 0x80
 800279e:	65e6      	str	r6, [r4, #92]	@ 0x5c
 80027a0:	f000 fe5a 	bl	8003458 <HAL_DMA_ConfigChannelAttributes>
 80027a4:	b108      	cbz	r0, 80027aa <HAL_SPI_MspInit+0x156>
 80027a6:	f7fe fde5 	bl	8001374 <Error_Handler>
 80027aa:	2200      	movs	r2, #0
 80027ac:	2063      	movs	r0, #99	@ 0x63
 80027ae:	4611      	mov	r1, r2
 80027b0:	f000 fa9c 	bl	8002cec <HAL_NVIC_SetPriority>
 80027b4:	2063      	movs	r0, #99	@ 0x63
 80027b6:	f000 fac9 	bl	8002d4c <HAL_NVIC_EnableIRQ>
 80027ba:	b03e      	add	sp, #248	@ 0xf8
 80027bc:	e8bd 81f0 	ldmia.w	sp!, {r4, r5, r6, r7, r8, pc}
 80027c0:	46002000 	.word	0x46002000
 80027c4:	46020c00 	.word	0x46020c00
 80027c8:	42020000 	.word	0x42020000
 80027cc:	42020800 	.word	0x42020800
 80027d0:	20000264 	.word	0x20000264
 80027d4:	400206d0 	.word	0x400206d0
 80027d8:	200001ec 	.word	0x200001ec
 80027dc:	40020650 	.word	0x40020650

080027e0 <HAL_TIM_OC_MspInit>:
 80027e0:	b507      	push	{r0, r1, r2, lr}
 80027e2:	4b0f      	ldr	r3, [pc, #60]	@ (8002820 <HAL_TIM_OC_MspInit+0x40>)
 80027e4:	6802      	ldr	r2, [r0, #0]
 80027e6:	429a      	cmp	r2, r3
 80027e8:	d117      	bne.n	800281a <HAL_TIM_OC_MspInit+0x3a>
 80027ea:	4b0e      	ldr	r3, [pc, #56]	@ (8002824 <HAL_TIM_OC_MspInit+0x44>)
 80027ec:	202e      	movs	r0, #46	@ 0x2e
 80027ee:	f8d3 209c 	ldr.w	r2, [r3, #156]	@ 0x9c
 80027f2:	f042 0202 	orr.w	r2, r2, #2
 80027f6:	f8c3 209c 	str.w	r2, [r3, #156]	@ 0x9c
 80027fa:	2200      	movs	r2, #0
 80027fc:	f8d3 309c 	ldr.w	r3, [r3, #156]	@ 0x9c
 8002800:	4611      	mov	r1, r2
 8002802:	f003 0302 	and.w	r3, r3, #2
 8002806:	9301      	str	r3, [sp, #4]
 8002808:	9b01      	ldr	r3, [sp, #4]
 800280a:	f000 fa6f 	bl	8002cec <HAL_NVIC_SetPriority>
 800280e:	202e      	movs	r0, #46	@ 0x2e
 8002810:	b003      	add	sp, #12
 8002812:	f85d eb04 	ldr.w	lr, [sp], #4
 8002816:	f000 ba99 	b.w	8002d4c <HAL_NVIC_EnableIRQ>
 800281a:	b003      	add	sp, #12
 800281c:	f85d fb04 	ldr.w	pc, [sp], #4
 8002820:	40000400 	.word	0x40000400
 8002824:	46020c00 	.word	0x46020c00

08002828 <HAL_UART_MspInit>:
 8002828:	e92d 41f0 	stmdb	sp!, {r4, r5, r6, r7, r8, lr}
 800282c:	4606      	mov	r6, r0
 800282e:	b0be      	sub	sp, #248	@ 0xf8
 8002830:	2214      	movs	r2, #20
 8002832:	2100      	movs	r1, #0
 8002834:	a803      	add	r0, sp, #12
 8002836:	f005 facf 	bl	8007dd8 <memset>
 800283a:	22d8      	movs	r2, #216	@ 0xd8
 800283c:	2100      	movs	r1, #0
 800283e:	a808      	add	r0, sp, #32
 8002840:	f005 faca 	bl	8007dd8 <memset>
 8002844:	6832      	ldr	r2, [r6, #0]
 8002846:	4b38      	ldr	r3, [pc, #224]	@ (8002928 <HAL_UART_MspInit+0x100>)
 8002848:	429a      	cmp	r2, r3
 800284a:	d169      	bne.n	8002920 <HAL_UART_MspInit+0xf8>
 800284c:	2201      	movs	r2, #1
 800284e:	2300      	movs	r3, #0
 8002850:	a808      	add	r0, sp, #32
 8002852:	e9cd 2308 	strd	r2, r3, [sp, #32]
 8002856:	f001 ffe7 	bl	8004828 <HAL_RCCEx_PeriphCLKConfig>
 800285a:	b108      	cbz	r0, 8002860 <HAL_UART_MspInit+0x38>
 800285c:	f7fe fd8a 	bl	8001374 <Error_Handler>
 8002860:	4b32      	ldr	r3, [pc, #200]	@ (800292c <HAL_UART_MspInit+0x104>)
 8002862:	f04f 0802 	mov.w	r8, #2
 8002866:	f8d3 20a4 	ldr.w	r2, [r3, #164]	@ 0xa4
 800286a:	2500      	movs	r5, #0
 800286c:	f442 4280 	orr.w	r2, r2, #16384	@ 0x4000
 8002870:	f8c3 20a4 	str.w	r2, [r3, #164]	@ 0xa4
 8002874:	f8d3 20a4 	ldr.w	r2, [r3, #164]	@ 0xa4
 8002878:	2407      	movs	r4, #7
 800287a:	f402 4280 	and.w	r2, r2, #16384	@ 0x4000
 800287e:	9201      	str	r2, [sp, #4]
 8002880:	9a01      	ldr	r2, [sp, #4]
 8002882:	f8d3 208c 	ldr.w	r2, [r3, #140]	@ 0x8c
 8002886:	f44f 6780 	mov.w	r7, #1024	@ 0x400
 800288a:	f042 0201 	orr.w	r2, r2, #1
 800288e:	f8c3 208c 	str.w	r2, [r3, #140]	@ 0x8c
 8002892:	f8d3 308c 	ldr.w	r3, [r3, #140]	@ 0x8c
 8002896:	4826      	ldr	r0, [pc, #152]	@ (8002930 <HAL_UART_MspInit+0x108>)
 8002898:	f003 0301 	and.w	r3, r3, #1
 800289c:	9302      	str	r3, [sp, #8]
 800289e:	9b02      	ldr	r3, [sp, #8]
 80028a0:	f44f 7300 	mov.w	r3, #512	@ 0x200
 80028a4:	e9cd 3803 	strd	r3, r8, [sp, #12]
 80028a8:	2303      	movs	r3, #3
 80028aa:	a903      	add	r1, sp, #12
 80028ac:	e9cd 5305 	strd	r5, r3, [sp, #20]
 80028b0:	9407      	str	r4, [sp, #28]
 80028b2:	f000 fe55 	bl	8003560 <HAL_GPIO_Init>
 80028b6:	481e      	ldr	r0, [pc, #120]	@ (8002930 <HAL_UART_MspInit+0x108>)
 80028b8:	a903      	add	r1, sp, #12
 80028ba:	9407      	str	r4, [sp, #28]
 80028bc:	e9cd 7803 	strd	r7, r8, [sp, #12]
 80028c0:	e9cd 5505 	strd	r5, r5, [sp, #20]
 80028c4:	f000 fe4c 	bl	8003560 <HAL_GPIO_Init>
 80028c8:	2319      	movs	r3, #25
 80028ca:	4c1a      	ldr	r4, [pc, #104]	@ (8002934 <HAL_UART_MspInit+0x10c>)
 80028cc:	4a1a      	ldr	r2, [pc, #104]	@ (8002938 <HAL_UART_MspInit+0x110>)
 80028ce:	f44f 0140 	mov.w	r1, #12582912	@ 0xc00000
 80028d2:	e9c4 2300 	strd	r2, r3, [r4]
 80028d6:	2308      	movs	r3, #8
 80028d8:	e9c4 3504 	strd	r3, r5, [r4, #16]
 80028dc:	2301      	movs	r3, #1
 80028de:	4620      	mov	r0, r4
 80028e0:	e9c4 5702 	strd	r5, r7, [r4, #8]
 80028e4:	e9c4 5506 	strd	r5, r5, [r4, #24]
 80028e8:	e9c4 1308 	strd	r1, r3, [r4, #32]
 80028ec:	e9c4 350a 	strd	r3, r5, [r4, #40]	@ 0x28
 80028f0:	e9c4 550c 	strd	r5, r5, [r4, #48]	@ 0x30
 80028f4:	f000 fa9c 	bl	8002e30 <HAL_DMA_Init>
 80028f8:	b108      	cbz	r0, 80028fe <HAL_UART_MspInit+0xd6>
 80028fa:	f7fe fd3b 	bl	8001374 <Error_Handler>
 80028fe:	2110      	movs	r1, #16
 8002900:	480c      	ldr	r0, [pc, #48]	@ (8002934 <HAL_UART_MspInit+0x10c>)
 8002902:	67f4      	str	r4, [r6, #124]	@ 0x7c
 8002904:	65e6      	str	r6, [r4, #92]	@ 0x5c
 8002906:	f000 fda7 	bl	8003458 <HAL_DMA_ConfigChannelAttributes>
 800290a:	b108      	cbz	r0, 8002910 <HAL_UART_MspInit+0xe8>
 800290c:	f7fe fd32 	bl	8001374 <Error_Handler>
 8002910:	2200      	movs	r2, #0
 8002912:	203d      	movs	r0, #61	@ 0x3d
 8002914:	4611      	mov	r1, r2
 8002916:	f000 f9e9 	bl	8002cec <HAL_NVIC_SetPriority>
 800291a:	203d      	movs	r0, #61	@ 0x3d
 800291c:	f000 fa16 	bl	8002d4c <HAL_NVIC_EnableIRQ>
 8002920:	b03e      	add	sp, #248	@ 0xf8
 8002922:	e8bd 81f0 	ldmia.w	sp!, {r4, r5, r6, r7, r8, pc}
 8002926:	bf00      	nop
 8002928:	40013800 	.word	0x40013800
 800292c:	46020c00 	.word	0x46020c00
 8002930:	42020000 	.word	0x42020000
 8002934:	20000094 	.word	0x20000094
 8002938:	40020050 	.word	0x40020050

0800293c <NMI_Handler>:
 800293c:	e7fe      	b.n	800293c <NMI_Handler>

0800293e <HardFault_Handler>:
 800293e:	e7fe      	b.n	800293e <HardFault_Handler>

08002940 <MemManage_Handler>:
 8002940:	e7fe      	b.n	8002940 <MemManage_Handler>

08002942 <BusFault_Handler>:
 8002942:	e7fe      	b.n	8002942 <BusFault_Handler>

08002944 <UsageFault_Handler>:
 8002944:	e7fe      	b.n	8002944 <UsageFault_Handler>

08002946 <SVC_Handler>:
 8002946:	4770      	bx	lr

08002948 <DebugMon_Handler>:
 8002948:	4770      	bx	lr

0800294a <PendSV_Handler>:
 800294a:	4770      	bx	lr

0800294c <SysTick_Handler>:
 800294c:	b410      	push	{r4}
 800294e:	4c06      	ldr	r4, [pc, #24]	@ (8002968 <SysTick_Handler+0x1c>)
 8002950:	e9d4 2300 	ldrd	r2, r3, [r4]
 8002954:	1c50      	adds	r0, r2, #1
 8002956:	f143 0100 	adc.w	r1, r3, #0
 800295a:	e9c4 0100 	strd	r0, r1, [r4]
 800295e:	f85d 4b04 	ldr.w	r4, [sp], #4
 8002962:	f000 b98d 	b.w	8002c80 <HAL_IncTick>
 8002966:	bf00      	nop
 8002968:	20000708 	.word	0x20000708

0800296c <GPDMA1_Channel0_IRQHandler>:
 800296c:	4801      	ldr	r0, [pc, #4]	@ (8002974 <GPDMA1_Channel0_IRQHandler+0x8>)
 800296e:	f000 bcb2 	b.w	80032d6 <HAL_DMA_IRQHandler>
 8002972:	bf00      	nop
 8002974:	20000094 	.word	0x20000094

08002978 <TIM3_IRQHandler>:
 8002978:	4801      	ldr	r0, [pc, #4]	@ (8002980 <TIM3_IRQHandler+0x8>)
 800297a:	f004 b9c5 	b.w	8006d08 <HAL_TIM_IRQHandler>
 800297e:	bf00      	nop
 8002980:	200001a0 	.word	0x200001a0

08002984 <USART1_IRQHandler>:
 8002984:	4801      	ldr	r0, [pc, #4]	@ (800298c <USART1_IRQHandler+0x8>)
 8002986:	f004 bd7d 	b.w	8007484 <HAL_UART_IRQHandler>
 800298a:	bf00      	nop
 800298c:	2000010c 	.word	0x2000010c

08002990 <GPDMA1_Channel12_IRQHandler>:
 8002990:	4801      	ldr	r0, [pc, #4]	@ (8002998 <GPDMA1_Channel12_IRQHandler+0x8>)
 8002992:	f000 bca0 	b.w	80032d6 <HAL_DMA_IRQHandler>
 8002996:	bf00      	nop
 8002998:	200001ec 	.word	0x200001ec

0800299c <GPDMA1_Channel13_IRQHandler>:
 800299c:	4801      	ldr	r0, [pc, #4]	@ (80029a4 <GPDMA1_Channel13_IRQHandler+0x8>)
 800299e:	f000 bc9a 	b.w	80032d6 <HAL_DMA_IRQHandler>
 80029a2:	bf00      	nop
 80029a4:	20000264 	.word	0x20000264

080029a8 <SPI3_IRQHandler>:
 80029a8:	4801      	ldr	r0, [pc, #4]	@ (80029b0 <SPI3_IRQHandler+0x8>)
 80029aa:	f003 be3b 	b.w	8006624 <HAL_SPI_IRQHandler>
 80029ae:	bf00      	nop
 80029b0:	200002dc 	.word	0x200002dc

080029b4 <HAL_TIM_PeriodElapsedCallback>:
 80029b4:	f7fe bd48 	b.w	8001448 <sample_interrupt_routine>

080029b8 <_sbrk>:
 80029b8:	4a0b      	ldr	r2, [pc, #44]	@ (80029e8 <_sbrk+0x30>)
 80029ba:	4603      	mov	r3, r0
 80029bc:	6811      	ldr	r1, [r2, #0]
 80029be:	b510      	push	{r4, lr}
 80029c0:	b909      	cbnz	r1, 80029c6 <_sbrk+0xe>
 80029c2:	490a      	ldr	r1, [pc, #40]	@ (80029ec <_sbrk+0x34>)
 80029c4:	6011      	str	r1, [r2, #0]
 80029c6:	6810      	ldr	r0, [r2, #0]
 80029c8:	4909      	ldr	r1, [pc, #36]	@ (80029f0 <_sbrk+0x38>)
 80029ca:	4c0a      	ldr	r4, [pc, #40]	@ (80029f4 <_sbrk+0x3c>)
 80029cc:	4403      	add	r3, r0
 80029ce:	1b09      	subs	r1, r1, r4
 80029d0:	428b      	cmp	r3, r1
 80029d2:	d906      	bls.n	80029e2 <_sbrk+0x2a>
 80029d4:	f005 fa18 	bl	8007e08 <__errno>
 80029d8:	230c      	movs	r3, #12
 80029da:	6003      	str	r3, [r0, #0]
 80029dc:	f04f 30ff 	mov.w	r0, #4294967295
 80029e0:	bd10      	pop	{r4, pc}
 80029e2:	6013      	str	r3, [r2, #0]
 80029e4:	e7fc      	b.n	80029e0 <_sbrk+0x28>
 80029e6:	bf00      	nop
 80029e8:	20000710 	.word	0x20000710
 80029ec:	20000860 	.word	0x20000860
 80029f0:	20270000 	.word	0x20270000
 80029f4:	00000400 	.word	0x00000400

080029f8 <SystemInit>:
 80029f8:	2201      	movs	r2, #1
 80029fa:	480e      	ldr	r0, [pc, #56]	@ (8002a34 <SystemInit+0x3c>)
 80029fc:	f8d0 3088 	ldr.w	r3, [r0, #136]	@ 0x88
 8002a00:	f443 0370 	orr.w	r3, r3, #15728640	@ 0xf00000
 8002a04:	f8c0 3088 	str.w	r3, [r0, #136]	@ 0x88
 8002a08:	4b0b      	ldr	r3, [pc, #44]	@ (8002a38 <SystemInit+0x40>)
 8002a0a:	601a      	str	r2, [r3, #0]
 8002a0c:	2200      	movs	r2, #0
 8002a0e:	61da      	str	r2, [r3, #28]
 8002a10:	621a      	str	r2, [r3, #32]
 8002a12:	625a      	str	r2, [r3, #36]	@ 0x24
 8002a14:	6819      	ldr	r1, [r3, #0]
 8002a16:	f021 51a8 	bic.w	r1, r1, #352321536	@ 0x15000000
 8002a1a:	f421 2110 	bic.w	r1, r1, #589824	@ 0x90000
 8002a1e:	6019      	str	r1, [r3, #0]
 8002a20:	629a      	str	r2, [r3, #40]	@ 0x28
 8002a22:	6819      	ldr	r1, [r3, #0]
 8002a24:	f421 2180 	bic.w	r1, r1, #262144	@ 0x40000
 8002a28:	6019      	str	r1, [r3, #0]
 8002a2a:	651a      	str	r2, [r3, #80]	@ 0x50
 8002a2c:	f04f 6300 	mov.w	r3, #134217728	@ 0x8000000
 8002a30:	6083      	str	r3, [r0, #8]
 8002a32:	4770      	bx	lr
 8002a34:	e000ed00 	.word	0xe000ed00
 8002a38:	46020c00 	.word	0x46020c00

08002a3c <loop_escape>:
 8002a3c:	4b04      	ldr	r3, [pc, #16]	@ (8002a50 <loop_escape+0x14>)
 8002a3e:	4a05      	ldr	r2, [pc, #20]	@ (8002a54 <loop_escape+0x18>)
 8002a40:	881b      	ldrh	r3, [r3, #0]
 8002a42:	6810      	ldr	r0, [r2, #0]
 8002a44:	b29b      	uxth	r3, r3
 8002a46:	4283      	cmp	r3, r0
 8002a48:	bf94      	ite	ls
 8002a4a:	2000      	movls	r0, #0
 8002a4c:	2001      	movhi	r0, #1
 8002a4e:	4770      	bx	lr
 8002a50:	20000674 	.word	0x20000674
 8002a54:	20000008 	.word	0x20000008

08002a58 <write_data_to_memory>:
 8002a58:	4b0b      	ldr	r3, [pc, #44]	@ (8002a88 <write_data_to_memory+0x30>)
 8002a5a:	b530      	push	{r4, r5, lr}
 8002a5c:	6818      	ldr	r0, [r3, #0]
 8002a5e:	2300      	movs	r3, #0
 8002a60:	490a      	ldr	r1, [pc, #40]	@ (8002a8c <write_data_to_memory+0x34>)
 8002a62:	4d0b      	ldr	r5, [pc, #44]	@ (8002a90 <write_data_to_memory+0x38>)
 8002a64:	880a      	ldrh	r2, [r1, #0]
 8002a66:	f103 040a 	add.w	r4, r3, #10
 8002a6a:	b292      	uxth	r2, r2
 8002a6c:	eb03 0282 	add.w	r2, r3, r2, lsl #2
 8002a70:	f835 4014 	ldrh.w	r4, [r5, r4, lsl #1]
 8002a74:	3301      	adds	r3, #1
 8002a76:	2b04      	cmp	r3, #4
 8002a78:	f820 4012 	strh.w	r4, [r0, r2, lsl #1]
 8002a7c:	d1f2      	bne.n	8002a64 <write_data_to_memory+0xc>
 8002a7e:	880b      	ldrh	r3, [r1, #0]
 8002a80:	3301      	adds	r3, #1
 8002a82:	b29b      	uxth	r3, r3
 8002a84:	800b      	strh	r3, [r1, #0]
 8002a86:	bd30      	pop	{r4, r5, pc}
 8002a88:	20000670 	.word	0x20000670
 8002a8c:	20000674 	.word	0x20000674
 8002a90:	20000676 	.word	0x20000676

08002a94 <transmit_data_realtime>:
 8002a94:	4770      	bx	lr

08002a96 <configure_registers>:
 8002a96:	f7fe bed6 	b.w	8001846 <write_initial_reg_values>

08002a9a <configure_convert_commands>:
 8002a9a:	2000      	movs	r0, #0
 8002a9c:	f7fe bd78 	b.w	8001590 <create_convert_sequence>

08002aa0 <configure_aux_commands>:
 8002aa0:	b570      	push	{r4, r5, r6, lr}
 8002aa2:	4d0e      	ldr	r5, [pc, #56]	@ (8002adc <configure_aux_commands+0x3c>)
 8002aa4:	2380      	movs	r3, #128	@ 0x80
 8002aa6:	4629      	mov	r1, r5
 8002aa8:	2200      	movs	r2, #0
 8002aaa:	4604      	mov	r4, r0
 8002aac:	f7fe fd8c 	bl	80015c8 <create_command_list_RHD_register_config>
 8002ab0:	2028      	movs	r0, #40	@ 0x28
 8002ab2:	f7ff fdb9 	bl	8002628 <read_command>
 8002ab6:	f505 7180 	add.w	r1, r5, #256	@ 0x100
 8002aba:	4603      	mov	r3, r0
 8002abc:	2280      	movs	r2, #128	@ 0x80
 8002abe:	4620      	mov	r0, r4
 8002ac0:	f7fe fe94 	bl	80017ec <create_command_list_dummy>
 8002ac4:	2029      	movs	r0, #41	@ 0x29
 8002ac6:	f7ff fdaf 	bl	8002628 <read_command>
 8002aca:	f505 7100 	add.w	r1, r5, #512	@ 0x200
 8002ace:	4603      	mov	r3, r0
 8002ad0:	2280      	movs	r2, #128	@ 0x80
 8002ad2:	4620      	mov	r0, r4
 8002ad4:	e8bd 4070 	ldmia.w	sp!, {r4, r5, r6, lr}
 8002ad8:	f7fe be88 	b.w	80017ec <create_command_list_dummy>
 8002adc:	20000370 	.word	0x20000370

08002ae0 <transmit_dma_to_usart>:
 8002ae0:	460a      	mov	r2, r1
 8002ae2:	b508      	push	{r3, lr}
 8002ae4:	4601      	mov	r1, r0
 8002ae6:	4804      	ldr	r0, [pc, #16]	@ (8002af8 <transmit_dma_to_usart+0x18>)
 8002ae8:	f004 fc18 	bl	800731c <HAL_UART_Transmit_DMA>
 8002aec:	b118      	cbz	r0, 8002af6 <transmit_dma_to_usart+0x16>
 8002aee:	e8bd 4008 	ldmia.w	sp!, {r3, lr}
 8002af2:	f7fe bc3f 	b.w	8001374 <Error_Handler>
 8002af6:	bd08      	pop	{r3, pc}
 8002af8:	2000010c 	.word	0x2000010c

08002afc <transmit_data_offline>:
 8002afc:	b5f8      	push	{r3, r4, r5, r6, r7, lr}
 8002afe:	f7fe fcf7 	bl	80014f0 <calculate_sample_rate>
 8002b02:	2200      	movs	r2, #0
 8002b04:	ec51 0b10 	vmov	r0, r1, d0
 8002b08:	4b0c      	ldr	r3, [pc, #48]	@ (8002b3c <transmit_data_offline+0x40>)
 8002b0a:	f7fd fd7d 	bl	8000608 <__aeabi_dmul>
 8002b0e:	f7fe f82b 	bl	8000b68 <__aeabi_d2uiz>
 8002b12:	2400      	movs	r4, #0
 8002b14:	4605      	mov	r5, r0
 8002b16:	4e0a      	ldr	r6, [pc, #40]	@ (8002b40 <transmit_data_offline+0x44>)
 8002b18:	4f0a      	ldr	r7, [pc, #40]	@ (8002b44 <transmit_data_offline+0x48>)
 8002b1a:	42ac      	cmp	r4, r5
 8002b1c:	d100      	bne.n	8002b20 <transmit_data_offline+0x24>
 8002b1e:	bdf8      	pop	{r3, r4, r5, r6, r7, pc}
 8002b20:	2300      	movs	r3, #0
 8002b22:	6838      	ldr	r0, [r7, #0]
 8002b24:	2102      	movs	r1, #2
 8002b26:	eb00 0044 	add.w	r0, r0, r4, lsl #1
 8002b2a:	7033      	strb	r3, [r6, #0]
 8002b2c:	f7ff ffd8 	bl	8002ae0 <transmit_dma_to_usart>
 8002b30:	7833      	ldrb	r3, [r6, #0]
 8002b32:	2b01      	cmp	r3, #1
 8002b34:	d1fc      	bne.n	8002b30 <transmit_data_offline+0x34>
 8002b36:	3401      	adds	r4, #1
 8002b38:	e7ef      	b.n	8002b1a <transmit_data_offline+0x1e>
 8002b3a:	bf00      	nop
 8002b3c:	40100000 	.word	0x40100000
 8002b40:	20000000 	.word	0x20000000
 8002b44:	20000670 	.word	0x20000670

08002b48 <Reset_Handler>:
 8002b48:	f8df d034 	ldr.w	sp, [pc, #52]	@ 8002b80 <LoopForever+0x2>
 8002b4c:	f7ff ff54 	bl	80029f8 <SystemInit>
 8002b50:	2100      	movs	r1, #0
 8002b52:	e003      	b.n	8002b5c <LoopCopyDataInit>

08002b54 <CopyDataInit>:
 8002b54:	4b0b      	ldr	r3, [pc, #44]	@ (8002b84 <LoopForever+0x6>)
 8002b56:	585b      	ldr	r3, [r3, r1]
 8002b58:	5043      	str	r3, [r0, r1]
 8002b5a:	3104      	adds	r1, #4

08002b5c <LoopCopyDataInit>:
 8002b5c:	480a      	ldr	r0, [pc, #40]	@ (8002b88 <LoopForever+0xa>)
 8002b5e:	4b0b      	ldr	r3, [pc, #44]	@ (8002b8c <LoopForever+0xe>)
 8002b60:	1842      	adds	r2, r0, r1
 8002b62:	429a      	cmp	r2, r3
 8002b64:	d3f6      	bcc.n	8002b54 <CopyDataInit>
 8002b66:	4a0a      	ldr	r2, [pc, #40]	@ (8002b90 <LoopForever+0x12>)
 8002b68:	e002      	b.n	8002b70 <LoopFillZerobss>

08002b6a <FillZerobss>:
 8002b6a:	2300      	movs	r3, #0
 8002b6c:	f842 3b04 	str.w	r3, [r2], #4

08002b70 <LoopFillZerobss>:
 8002b70:	4b08      	ldr	r3, [pc, #32]	@ (8002b94 <LoopForever+0x16>)
 8002b72:	429a      	cmp	r2, r3
 8002b74:	d3f9      	bcc.n	8002b6a <FillZerobss>
 8002b76:	f005 f94d 	bl	8007e14 <__libc_init_array>
 8002b7a:	f7fe f9df 	bl	8000f3c <main>

08002b7e <LoopForever>:
 8002b7e:	e7fe      	b.n	8002b7e <LoopForever>
 8002b80:	20270000 	.word	0x20270000
 8002b84:	08009500 	.word	0x08009500
 8002b88:	20000000 	.word	0x20000000
 8002b8c:	20000078 	.word	0x20000078
 8002b90:	20000078 	.word	0x20000078
 8002b94:	2000085d 	.word	0x2000085d

08002b98 <ADC1_2_IRQHandler>:
 8002b98:	e7fe      	b.n	8002b98 <ADC1_2_IRQHandler>
	...

08002b9c <HAL_InitTick>:
 8002b9c:	b570      	push	{r4, r5, r6, lr}
 8002b9e:	4e20      	ldr	r6, [pc, #128]	@ (8002c20 <HAL_InitTick+0x84>)
 8002ba0:	4605      	mov	r5, r0
 8002ba2:	7832      	ldrb	r2, [r6, #0]
 8002ba4:	b90a      	cbnz	r2, 8002baa <HAL_InitTick+0xe>
 8002ba6:	2001      	movs	r0, #1
 8002ba8:	bd70      	pop	{r4, r5, r6, pc}
 8002baa:	f04f 23e0 	mov.w	r3, #3758153728	@ 0xe000e000
 8002bae:	691c      	ldr	r4, [r3, #16]
 8002bb0:	f014 0404 	ands.w	r4, r4, #4
 8002bb4:	d017      	beq.n	8002be6 <HAL_InitTick+0x4a>
 8002bb6:	f44f 737a 	mov.w	r3, #1000	@ 0x3e8
 8002bba:	fbb3 f3f2 	udiv	r3, r3, r2
 8002bbe:	4a19      	ldr	r2, [pc, #100]	@ (8002c24 <HAL_InitTick+0x88>)
 8002bc0:	6814      	ldr	r4, [r2, #0]
 8002bc2:	fbb4 f4f3 	udiv	r4, r4, r3
 8002bc6:	4620      	mov	r0, r4
 8002bc8:	f000 f8ce 	bl	8002d68 <HAL_SYSTICK_Config>
 8002bcc:	4604      	mov	r4, r0
 8002bce:	2800      	cmp	r0, #0
 8002bd0:	d1e9      	bne.n	8002ba6 <HAL_InitTick+0xa>
 8002bd2:	4602      	mov	r2, r0
 8002bd4:	4629      	mov	r1, r5
 8002bd6:	f04f 30ff 	mov.w	r0, #4294967295
 8002bda:	f000 f887 	bl	8002cec <HAL_NVIC_SetPriority>
 8002bde:	4b12      	ldr	r3, [pc, #72]	@ (8002c28 <HAL_InitTick+0x8c>)
 8002be0:	4620      	mov	r0, r4
 8002be2:	601d      	str	r5, [r3, #0]
 8002be4:	e7e0      	b.n	8002ba8 <HAL_InitTick+0xc>
 8002be6:	f000 f909 	bl	8002dfc <HAL_SYSTICK_GetCLKSourceConfig>
 8002bea:	2801      	cmp	r0, #1
 8002bec:	d007      	beq.n	8002bfe <HAL_InitTick+0x62>
 8002bee:	2802      	cmp	r0, #2
 8002bf0:	d00d      	beq.n	8002c0e <HAL_InitTick+0x72>
 8002bf2:	2800      	cmp	r0, #0
 8002bf4:	d1e7      	bne.n	8002bc6 <HAL_InitTick+0x2a>
 8002bf6:	f44f 53fa 	mov.w	r3, #8000	@ 0x1f40
 8002bfa:	7832      	ldrb	r2, [r6, #0]
 8002bfc:	e7dd      	b.n	8002bba <HAL_InitTick+0x1e>
 8002bfe:	f44f 737a 	mov.w	r3, #1000	@ 0x3e8
 8002c02:	7832      	ldrb	r2, [r6, #0]
 8002c04:	f44f 44fa 	mov.w	r4, #32000	@ 0x7d00
 8002c08:	fbb3 f3f2 	udiv	r3, r3, r2
 8002c0c:	e7d9      	b.n	8002bc2 <HAL_InitTick+0x26>
 8002c0e:	f44f 737a 	mov.w	r3, #1000	@ 0x3e8
 8002c12:	7832      	ldrb	r2, [r6, #0]
 8002c14:	f44f 4400 	mov.w	r4, #32768	@ 0x8000
 8002c18:	fbb3 f3f2 	udiv	r3, r3, r2
 8002c1c:	e7d1      	b.n	8002bc2 <HAL_InitTick+0x26>
 8002c1e:	bf00      	nop
 8002c20:	20000010 	.word	0x20000010
 8002c24:	2000000c 	.word	0x2000000c
 8002c28:	20000014 	.word	0x20000014

08002c2c <HAL_Init>:
 8002c2c:	4a10      	ldr	r2, [pc, #64]	@ (8002c70 <HAL_Init+0x44>)
 8002c2e:	b510      	push	{r4, lr}
 8002c30:	6813      	ldr	r3, [r2, #0]
 8002c32:	2003      	movs	r0, #3
 8002c34:	f443 7380 	orr.w	r3, r3, #256	@ 0x100
 8002c38:	6013      	str	r3, [r2, #0]
 8002c3a:	f000 f845 	bl	8002cc8 <HAL_NVIC_SetPriorityGrouping>
 8002c3e:	f000 fe9d 	bl	800397c <HAL_RCC_GetSysClockFreq>
 8002c42:	4b0c      	ldr	r3, [pc, #48]	@ (8002c74 <HAL_Init+0x48>)
 8002c44:	4a0c      	ldr	r2, [pc, #48]	@ (8002c78 <HAL_Init+0x4c>)
 8002c46:	6a1b      	ldr	r3, [r3, #32]
 8002c48:	f003 030f 	and.w	r3, r3, #15
 8002c4c:	5cd3      	ldrb	r3, [r2, r3]
 8002c4e:	40d8      	lsrs	r0, r3
 8002c50:	4b0a      	ldr	r3, [pc, #40]	@ (8002c7c <HAL_Init+0x50>)
 8002c52:	6018      	str	r0, [r3, #0]
 8002c54:	2004      	movs	r0, #4
 8002c56:	f000 f897 	bl	8002d88 <HAL_SYSTICK_CLKSourceConfig>
 8002c5a:	200f      	movs	r0, #15
 8002c5c:	f7ff ff9e 	bl	8002b9c <HAL_InitTick>
 8002c60:	4604      	mov	r4, r0
 8002c62:	b918      	cbnz	r0, 8002c6c <HAL_Init+0x40>
 8002c64:	f7ff fce4 	bl	8002630 <HAL_MspInit>
 8002c68:	4620      	mov	r0, r4
 8002c6a:	bd10      	pop	{r4, pc}
 8002c6c:	2401      	movs	r4, #1
 8002c6e:	e7fb      	b.n	8002c68 <HAL_Init+0x3c>
 8002c70:	40022000 	.word	0x40022000
 8002c74:	46020c00 	.word	0x46020c00
 8002c78:	08009400 	.word	0x08009400
 8002c7c:	2000000c 	.word	0x2000000c

08002c80 <HAL_IncTick>:
 8002c80:	4a03      	ldr	r2, [pc, #12]	@ (8002c90 <HAL_IncTick+0x10>)
 8002c82:	4b04      	ldr	r3, [pc, #16]	@ (8002c94 <HAL_IncTick+0x14>)
 8002c84:	6811      	ldr	r1, [r2, #0]
 8002c86:	781b      	ldrb	r3, [r3, #0]
 8002c88:	440b      	add	r3, r1
 8002c8a:	6013      	str	r3, [r2, #0]
 8002c8c:	4770      	bx	lr
 8002c8e:	bf00      	nop
 8002c90:	20000714 	.word	0x20000714
 8002c94:	20000010 	.word	0x20000010

08002c98 <HAL_GetTick>:
 8002c98:	4b01      	ldr	r3, [pc, #4]	@ (8002ca0 <HAL_GetTick+0x8>)
 8002c9a:	6818      	ldr	r0, [r3, #0]
 8002c9c:	4770      	bx	lr
 8002c9e:	bf00      	nop
 8002ca0:	20000714 	.word	0x20000714

08002ca4 <HAL_Delay>:
 8002ca4:	b538      	push	{r3, r4, r5, lr}
 8002ca6:	4604      	mov	r4, r0
 8002ca8:	f7ff fff6 	bl	8002c98 <HAL_GetTick>
 8002cac:	4605      	mov	r5, r0
 8002cae:	1c63      	adds	r3, r4, #1
 8002cb0:	bf1e      	ittt	ne
 8002cb2:	4b04      	ldrne	r3, [pc, #16]	@ (8002cc4 <HAL_Delay+0x20>)
 8002cb4:	781b      	ldrbne	r3, [r3, #0]
 8002cb6:	18e4      	addne	r4, r4, r3
 8002cb8:	f7ff ffee 	bl	8002c98 <HAL_GetTick>
 8002cbc:	1b43      	subs	r3, r0, r5
 8002cbe:	42a3      	cmp	r3, r4
 8002cc0:	d3fa      	bcc.n	8002cb8 <HAL_Delay+0x14>
 8002cc2:	bd38      	pop	{r3, r4, r5, pc}
 8002cc4:	20000010 	.word	0x20000010

08002cc8 <HAL_NVIC_SetPriorityGrouping>:
 8002cc8:	4907      	ldr	r1, [pc, #28]	@ (8002ce8 <HAL_NVIC_SetPriorityGrouping+0x20>)
 8002cca:	0203      	lsls	r3, r0, #8
 8002ccc:	68ca      	ldr	r2, [r1, #12]
 8002cce:	f403 63e0 	and.w	r3, r3, #1792	@ 0x700
 8002cd2:	f422 62e0 	bic.w	r2, r2, #1792	@ 0x700
 8002cd6:	0412      	lsls	r2, r2, #16
 8002cd8:	0c12      	lsrs	r2, r2, #16
 8002cda:	4313      	orrs	r3, r2
 8002cdc:	f043 63bf 	orr.w	r3, r3, #100139008	@ 0x5f80000
 8002ce0:	f443 3300 	orr.w	r3, r3, #131072	@ 0x20000
 8002ce4:	60cb      	str	r3, [r1, #12]
 8002ce6:	4770      	bx	lr
 8002ce8:	e000ed00 	.word	0xe000ed00

08002cec <HAL_NVIC_SetPriority>:
 8002cec:	4b15      	ldr	r3, [pc, #84]	@ (8002d44 <HAL_NVIC_SetPriority+0x58>)
 8002cee:	b530      	push	{r4, r5, lr}
 8002cf0:	68dc      	ldr	r4, [r3, #12]
 8002cf2:	f3c4 2402 	ubfx	r4, r4, #8, #3
 8002cf6:	f1c4 0307 	rsb	r3, r4, #7
 8002cfa:	1d25      	adds	r5, r4, #4
 8002cfc:	2b04      	cmp	r3, #4
 8002cfe:	bf28      	it	cs
 8002d00:	2304      	movcs	r3, #4
 8002d02:	2d06      	cmp	r5, #6
 8002d04:	f04f 35ff 	mov.w	r5, #4294967295
 8002d08:	bf94      	ite	ls
 8002d0a:	2400      	movls	r4, #0
 8002d0c:	3c03      	subhi	r4, #3
 8002d0e:	fa05 f303 	lsl.w	r3, r5, r3
 8002d12:	ea21 0303 	bic.w	r3, r1, r3
 8002d16:	40a5      	lsls	r5, r4
 8002d18:	ea22 0205 	bic.w	r2, r2, r5
 8002d1c:	40a3      	lsls	r3, r4
 8002d1e:	2800      	cmp	r0, #0
 8002d20:	ea43 0302 	orr.w	r3, r3, r2
 8002d24:	bfac      	ite	ge
 8002d26:	f100 4060 	addge.w	r0, r0, #3758096384	@ 0xe0000000
 8002d2a:	4a07      	ldrlt	r2, [pc, #28]	@ (8002d48 <HAL_NVIC_SetPriority+0x5c>)
 8002d2c:	ea4f 1303 	mov.w	r3, r3, lsl #4
 8002d30:	b2db      	uxtb	r3, r3
 8002d32:	bfab      	itete	ge
 8002d34:	f500 4061 	addge.w	r0, r0, #57600	@ 0xe100
 8002d38:	f000 000f 	andlt.w	r0, r0, #15
 8002d3c:	f880 3300 	strbge.w	r3, [r0, #768]	@ 0x300
 8002d40:	5413      	strblt	r3, [r2, r0]
 8002d42:	bd30      	pop	{r4, r5, pc}
 8002d44:	e000ed00 	.word	0xe000ed00
 8002d48:	e000ed14 	.word	0xe000ed14

08002d4c <HAL_NVIC_EnableIRQ>:
 8002d4c:	2800      	cmp	r0, #0
 8002d4e:	db07      	blt.n	8002d60 <HAL_NVIC_EnableIRQ+0x14>
 8002d50:	2301      	movs	r3, #1
 8002d52:	0941      	lsrs	r1, r0, #5
 8002d54:	4a03      	ldr	r2, [pc, #12]	@ (8002d64 <HAL_NVIC_EnableIRQ+0x18>)
 8002d56:	f000 001f 	and.w	r0, r0, #31
 8002d5a:	4083      	lsls	r3, r0
 8002d5c:	f842 3021 	str.w	r3, [r2, r1, lsl #2]
 8002d60:	4770      	bx	lr
 8002d62:	bf00      	nop
 8002d64:	e000e100 	.word	0xe000e100

08002d68 <HAL_SYSTICK_Config>:
 8002d68:	3801      	subs	r0, #1
 8002d6a:	f1b0 7f80 	cmp.w	r0, #16777216	@ 0x1000000
 8002d6e:	bf3f      	itttt	cc
 8002d70:	f04f 23e0 	movcc.w	r3, #3758153728	@ 0xe000e000
 8002d74:	6158      	strcc	r0, [r3, #20]
 8002d76:	2000      	movcc	r0, #0
 8002d78:	6198      	strcc	r0, [r3, #24]
 8002d7a:	bf37      	itett	cc
 8002d7c:	691a      	ldrcc	r2, [r3, #16]
 8002d7e:	2001      	movcs	r0, #1
 8002d80:	f042 0203 	orrcc.w	r2, r2, #3
 8002d84:	611a      	strcc	r2, [r3, #16]
 8002d86:	4770      	bx	lr

08002d88 <HAL_SYSTICK_CLKSourceConfig>:
 8002d88:	2804      	cmp	r0, #4
 8002d8a:	d818      	bhi.n	8002dbe <HAL_SYSTICK_CLKSourceConfig+0x36>
 8002d8c:	e8df f000 	tbb	[pc, r0]
 8002d90:	1726180a 	.word	0x1726180a
 8002d94:	03          	.byte	0x03
 8002d95:	00          	.byte	0x00
 8002d96:	f04f 22e0 	mov.w	r2, #3758153728	@ 0xe000e000
 8002d9a:	6913      	ldr	r3, [r2, #16]
 8002d9c:	f043 0304 	orr.w	r3, r3, #4
 8002da0:	6113      	str	r3, [r2, #16]
 8002da2:	4770      	bx	lr
 8002da4:	f04f 22e0 	mov.w	r2, #3758153728	@ 0xe000e000
 8002da8:	6913      	ldr	r3, [r2, #16]
 8002daa:	f023 0304 	bic.w	r3, r3, #4
 8002dae:	6113      	str	r3, [r2, #16]
 8002db0:	4a11      	ldr	r2, [pc, #68]	@ (8002df8 <HAL_SYSTICK_CLKSourceConfig+0x70>)
 8002db2:	f8d2 30e0 	ldr.w	r3, [r2, #224]	@ 0xe0
 8002db6:	f423 0340 	bic.w	r3, r3, #12582912	@ 0xc00000
 8002dba:	f8c2 30e0 	str.w	r3, [r2, #224]	@ 0xe0
 8002dbe:	4770      	bx	lr
 8002dc0:	f04f 22e0 	mov.w	r2, #3758153728	@ 0xe000e000
 8002dc4:	6913      	ldr	r3, [r2, #16]
 8002dc6:	f023 0304 	bic.w	r3, r3, #4
 8002dca:	6113      	str	r3, [r2, #16]
 8002dcc:	4a0a      	ldr	r2, [pc, #40]	@ (8002df8 <HAL_SYSTICK_CLKSourceConfig+0x70>)
 8002dce:	f8d2 30e0 	ldr.w	r3, [r2, #224]	@ 0xe0
 8002dd2:	f423 0340 	bic.w	r3, r3, #12582912	@ 0xc00000
 8002dd6:	f443 0380 	orr.w	r3, r3, #4194304	@ 0x400000
 8002dda:	e7ee      	b.n	8002dba <HAL_SYSTICK_CLKSourceConfig+0x32>
 8002ddc:	f04f 22e0 	mov.w	r2, #3758153728	@ 0xe000e000
 8002de0:	6913      	ldr	r3, [r2, #16]
 8002de2:	f023 0304 	bic.w	r3, r3, #4
 8002de6:	6113      	str	r3, [r2, #16]
 8002de8:	4a03      	ldr	r2, [pc, #12]	@ (8002df8 <HAL_SYSTICK_CLKSourceConfig+0x70>)
 8002dea:	f8d2 30e0 	ldr.w	r3, [r2, #224]	@ 0xe0
 8002dee:	f423 0340 	bic.w	r3, r3, #12582912	@ 0xc00000
 8002df2:	f443 0300 	orr.w	r3, r3, #8388608	@ 0x800000
 8002df6:	e7e0      	b.n	8002dba <HAL_SYSTICK_CLKSourceConfig+0x32>
 8002df8:	46020c00 	.word	0x46020c00

08002dfc <HAL_SYSTICK_GetCLKSourceConfig>:
 8002dfc:	f04f 23e0 	mov.w	r3, #3758153728	@ 0xe000e000
 8002e00:	691b      	ldr	r3, [r3, #16]
 8002e02:	075a      	lsls	r2, r3, #29
 8002e04:	d40d      	bmi.n	8002e22 <HAL_SYSTICK_GetCLKSourceConfig+0x26>
 8002e06:	4b09      	ldr	r3, [pc, #36]	@ (8002e2c <HAL_SYSTICK_GetCLKSourceConfig+0x30>)
 8002e08:	f8d3 00e0 	ldr.w	r0, [r3, #224]	@ 0xe0
 8002e0c:	f400 0040 	and.w	r0, r0, #12582912	@ 0xc00000
 8002e10:	f5b0 0f80 	cmp.w	r0, #4194304	@ 0x400000
 8002e14:	d007      	beq.n	8002e26 <HAL_SYSTICK_GetCLKSourceConfig+0x2a>
 8002e16:	f5a0 0300 	sub.w	r3, r0, #8388608	@ 0x800000
 8002e1a:	4258      	negs	r0, r3
 8002e1c:	4158      	adcs	r0, r3
 8002e1e:	0040      	lsls	r0, r0, #1
 8002e20:	4770      	bx	lr
 8002e22:	2004      	movs	r0, #4
 8002e24:	4770      	bx	lr
 8002e26:	2001      	movs	r0, #1
 8002e28:	4770      	bx	lr
 8002e2a:	bf00      	nop
 8002e2c:	46020c00 	.word	0x46020c00

08002e30 <HAL_DMA_Init>:
 8002e30:	b538      	push	{r3, r4, r5, lr}
 8002e32:	4604      	mov	r4, r0
 8002e34:	f7ff ff30 	bl	8002c98 <HAL_GetTick>
 8002e38:	4605      	mov	r5, r0
 8002e3a:	2c00      	cmp	r4, #0
 8002e3c:	f000 81a6 	beq.w	800318c <HAL_DMA_Init+0x35c>
 8002e40:	2300      	movs	r3, #0
 8002e42:	f884 304c 	strb.w	r3, [r4, #76]	@ 0x4c
 8002e46:	2302      	movs	r3, #2
 8002e48:	6822      	ldr	r2, [r4, #0]
 8002e4a:	f884 3054 	strb.w	r3, [r4, #84]	@ 0x54
 8002e4e:	6953      	ldr	r3, [r2, #20]
 8002e50:	f043 0306 	orr.w	r3, r3, #6
 8002e54:	6153      	str	r3, [r2, #20]
 8002e56:	6823      	ldr	r3, [r4, #0]
 8002e58:	695a      	ldr	r2, [r3, #20]
 8002e5a:	07d2      	lsls	r2, r2, #31
 8002e5c:	f100 818b 	bmi.w	8003176 <HAL_DMA_Init+0x346>
 8002e60:	695a      	ldr	r2, [r3, #20]
 8002e62:	6a21      	ldr	r1, [r4, #32]
 8002e64:	f422 0243 	bic.w	r2, r2, #12779520	@ 0xc30000
 8002e68:	430a      	orrs	r2, r1
 8002e6a:	615a      	str	r2, [r3, #20]
 8002e6c:	69e1      	ldr	r1, [r4, #28]
 8002e6e:	6962      	ldr	r2, [r4, #20]
 8002e70:	4db0      	ldr	r5, [pc, #704]	@ (8003134 <HAL_DMA_Init+0x304>)
 8002e72:	430a      	orrs	r2, r1
 8002e74:	6921      	ldr	r1, [r4, #16]
 8002e76:	42ab      	cmp	r3, r5
 8002e78:	ea42 0201 	orr.w	r2, r2, r1
 8002e7c:	69a1      	ldr	r1, [r4, #24]
 8002e7e:	48ae      	ldr	r0, [pc, #696]	@ (8003138 <HAL_DMA_Init+0x308>)
 8002e80:	ea42 0201 	orr.w	r2, r2, r1
 8002e84:	f000 8087 	beq.w	8002f96 <HAL_DMA_Init+0x166>
 8002e88:	49ac      	ldr	r1, [pc, #688]	@ (800313c <HAL_DMA_Init+0x30c>)
 8002e8a:	428b      	cmp	r3, r1
 8002e8c:	f000 8083 	beq.w	8002f96 <HAL_DMA_Init+0x166>
 8002e90:	f101 4170 	add.w	r1, r1, #4026531840	@ 0xf0000000
 8002e94:	3180      	adds	r1, #128	@ 0x80
 8002e96:	428b      	cmp	r3, r1
 8002e98:	d07d      	beq.n	8002f96 <HAL_DMA_Init+0x166>
 8002e9a:	f101 5180 	add.w	r1, r1, #268435456	@ 0x10000000
 8002e9e:	428b      	cmp	r3, r1
 8002ea0:	d079      	beq.n	8002f96 <HAL_DMA_Init+0x166>
 8002ea2:	f101 4170 	add.w	r1, r1, #4026531840	@ 0xf0000000
 8002ea6:	3180      	adds	r1, #128	@ 0x80
 8002ea8:	428b      	cmp	r3, r1
 8002eaa:	d074      	beq.n	8002f96 <HAL_DMA_Init+0x166>
 8002eac:	f101 5180 	add.w	r1, r1, #268435456	@ 0x10000000
 8002eb0:	428b      	cmp	r3, r1
 8002eb2:	d070      	beq.n	8002f96 <HAL_DMA_Init+0x166>
 8002eb4:	f101 4170 	add.w	r1, r1, #4026531840	@ 0xf0000000
 8002eb8:	3180      	adds	r1, #128	@ 0x80
 8002eba:	428b      	cmp	r3, r1
 8002ebc:	d06b      	beq.n	8002f96 <HAL_DMA_Init+0x166>
 8002ebe:	f101 5180 	add.w	r1, r1, #268435456	@ 0x10000000
 8002ec2:	428b      	cmp	r3, r1
 8002ec4:	d067      	beq.n	8002f96 <HAL_DMA_Init+0x166>
 8002ec6:	f101 4170 	add.w	r1, r1, #4026531840	@ 0xf0000000
 8002eca:	3180      	adds	r1, #128	@ 0x80
 8002ecc:	428b      	cmp	r3, r1
 8002ece:	d062      	beq.n	8002f96 <HAL_DMA_Init+0x166>
 8002ed0:	f101 5180 	add.w	r1, r1, #268435456	@ 0x10000000
 8002ed4:	428b      	cmp	r3, r1
 8002ed6:	d05e      	beq.n	8002f96 <HAL_DMA_Init+0x166>
 8002ed8:	f101 4170 	add.w	r1, r1, #4026531840	@ 0xf0000000
 8002edc:	3180      	adds	r1, #128	@ 0x80
 8002ede:	428b      	cmp	r3, r1
 8002ee0:	d059      	beq.n	8002f96 <HAL_DMA_Init+0x166>
 8002ee2:	f101 5180 	add.w	r1, r1, #268435456	@ 0x10000000
 8002ee6:	428b      	cmp	r3, r1
 8002ee8:	d055      	beq.n	8002f96 <HAL_DMA_Init+0x166>
 8002eea:	f101 4170 	add.w	r1, r1, #4026531840	@ 0xf0000000
 8002eee:	3180      	adds	r1, #128	@ 0x80
 8002ef0:	428b      	cmp	r3, r1
 8002ef2:	d050      	beq.n	8002f96 <HAL_DMA_Init+0x166>
 8002ef4:	f101 5180 	add.w	r1, r1, #268435456	@ 0x10000000
 8002ef8:	428b      	cmp	r3, r1
 8002efa:	d04c      	beq.n	8002f96 <HAL_DMA_Init+0x166>
 8002efc:	f101 4170 	add.w	r1, r1, #4026531840	@ 0xf0000000
 8002f00:	3180      	adds	r1, #128	@ 0x80
 8002f02:	428b      	cmp	r3, r1
 8002f04:	d047      	beq.n	8002f96 <HAL_DMA_Init+0x166>
 8002f06:	f101 5180 	add.w	r1, r1, #268435456	@ 0x10000000
 8002f0a:	428b      	cmp	r3, r1
 8002f0c:	d043      	beq.n	8002f96 <HAL_DMA_Init+0x166>
 8002f0e:	f101 4170 	add.w	r1, r1, #4026531840	@ 0xf0000000
 8002f12:	3180      	adds	r1, #128	@ 0x80
 8002f14:	428b      	cmp	r3, r1
 8002f16:	d03e      	beq.n	8002f96 <HAL_DMA_Init+0x166>
 8002f18:	f101 5180 	add.w	r1, r1, #268435456	@ 0x10000000
 8002f1c:	428b      	cmp	r3, r1
 8002f1e:	d03a      	beq.n	8002f96 <HAL_DMA_Init+0x166>
 8002f20:	f101 4170 	add.w	r1, r1, #4026531840	@ 0xf0000000
 8002f24:	3180      	adds	r1, #128	@ 0x80
 8002f26:	428b      	cmp	r3, r1
 8002f28:	d035      	beq.n	8002f96 <HAL_DMA_Init+0x166>
 8002f2a:	f101 5180 	add.w	r1, r1, #268435456	@ 0x10000000
 8002f2e:	428b      	cmp	r3, r1
 8002f30:	d031      	beq.n	8002f96 <HAL_DMA_Init+0x166>
 8002f32:	f101 4170 	add.w	r1, r1, #4026531840	@ 0xf0000000
 8002f36:	3180      	adds	r1, #128	@ 0x80
 8002f38:	428b      	cmp	r3, r1
 8002f3a:	d02c      	beq.n	8002f96 <HAL_DMA_Init+0x166>
 8002f3c:	f101 5180 	add.w	r1, r1, #268435456	@ 0x10000000
 8002f40:	428b      	cmp	r3, r1
 8002f42:	d028      	beq.n	8002f96 <HAL_DMA_Init+0x166>
 8002f44:	f101 4170 	add.w	r1, r1, #4026531840	@ 0xf0000000
 8002f48:	3180      	adds	r1, #128	@ 0x80
 8002f4a:	428b      	cmp	r3, r1
 8002f4c:	d023      	beq.n	8002f96 <HAL_DMA_Init+0x166>
 8002f4e:	f101 5180 	add.w	r1, r1, #268435456	@ 0x10000000
 8002f52:	428b      	cmp	r3, r1
 8002f54:	d01f      	beq.n	8002f96 <HAL_DMA_Init+0x166>
 8002f56:	4283      	cmp	r3, r0
 8002f58:	d01d      	beq.n	8002f96 <HAL_DMA_Init+0x166>
 8002f5a:	3180      	adds	r1, #128	@ 0x80
 8002f5c:	428b      	cmp	r3, r1
 8002f5e:	d01a      	beq.n	8002f96 <HAL_DMA_Init+0x166>
 8002f60:	f101 4170 	add.w	r1, r1, #4026531840	@ 0xf0000000
 8002f64:	3180      	adds	r1, #128	@ 0x80
 8002f66:	428b      	cmp	r3, r1
 8002f68:	d015      	beq.n	8002f96 <HAL_DMA_Init+0x166>
 8002f6a:	f101 5180 	add.w	r1, r1, #268435456	@ 0x10000000
 8002f6e:	428b      	cmp	r3, r1
 8002f70:	d011      	beq.n	8002f96 <HAL_DMA_Init+0x166>
 8002f72:	f101 4170 	add.w	r1, r1, #4026531840	@ 0xf0000000
 8002f76:	3180      	adds	r1, #128	@ 0x80
 8002f78:	428b      	cmp	r3, r1
 8002f7a:	d00c      	beq.n	8002f96 <HAL_DMA_Init+0x166>
 8002f7c:	f101 5180 	add.w	r1, r1, #268435456	@ 0x10000000
 8002f80:	428b      	cmp	r3, r1
 8002f82:	d008      	beq.n	8002f96 <HAL_DMA_Init+0x166>
 8002f84:	f101 4170 	add.w	r1, r1, #4026531840	@ 0xf0000000
 8002f88:	3180      	adds	r1, #128	@ 0x80
 8002f8a:	428b      	cmp	r3, r1
 8002f8c:	d003      	beq.n	8002f96 <HAL_DMA_Init+0x166>
 8002f8e:	f101 5180 	add.w	r1, r1, #268435456	@ 0x10000000
 8002f92:	428b      	cmp	r3, r1
 8002f94:	d10d      	bne.n	8002fb2 <HAL_DMA_Init+0x182>
 8002f96:	6aa1      	ldr	r1, [r4, #40]	@ 0x28
 8002f98:	3901      	subs	r1, #1
 8002f9a:	0509      	lsls	r1, r1, #20
 8002f9c:	f001 717c 	and.w	r1, r1, #66060288	@ 0x3f00000
 8002fa0:	4311      	orrs	r1, r2
 8002fa2:	6ae2      	ldr	r2, [r4, #44]	@ 0x2c
 8002fa4:	4311      	orrs	r1, r2
 8002fa6:	6a62      	ldr	r2, [r4, #36]	@ 0x24
 8002fa8:	3a01      	subs	r2, #1
 8002faa:	0112      	lsls	r2, r2, #4
 8002fac:	f402 727c 	and.w	r2, r2, #1008	@ 0x3f0
 8002fb0:	430a      	orrs	r2, r1
 8002fb2:	6c19      	ldr	r1, [r3, #64]	@ 0x40
 8002fb4:	f001 2180 	and.w	r1, r1, #2147516416	@ 0x80008000
 8002fb8:	430a      	orrs	r2, r1
 8002fba:	641a      	str	r2, [r3, #64]	@ 0x40
 8002fbc:	68a1      	ldr	r1, [r4, #8]
 8002fbe:	6b22      	ldr	r2, [r4, #48]	@ 0x30
 8002fc0:	4311      	orrs	r1, r2
 8002fc2:	6862      	ldr	r2, [r4, #4]
 8002fc4:	f002 027f 	and.w	r2, r2, #127	@ 0x7f
 8002fc8:	4311      	orrs	r1, r2
 8002fca:	68e2      	ldr	r2, [r4, #12]
 8002fcc:	f5b2 6f80 	cmp.w	r2, #1024	@ 0x400
 8002fd0:	f040 80de 	bne.w	8003190 <HAL_DMA_Init+0x360>
 8002fd4:	42ab      	cmp	r3, r5
 8002fd6:	f000 8087 	beq.w	80030e8 <HAL_DMA_Init+0x2b8>
 8002fda:	4a58      	ldr	r2, [pc, #352]	@ (800313c <HAL_DMA_Init+0x30c>)
 8002fdc:	4293      	cmp	r3, r2
 8002fde:	f000 8083 	beq.w	80030e8 <HAL_DMA_Init+0x2b8>
 8002fe2:	f102 4270 	add.w	r2, r2, #4026531840	@ 0xf0000000
 8002fe6:	3280      	adds	r2, #128	@ 0x80
 8002fe8:	4293      	cmp	r3, r2
 8002fea:	d07d      	beq.n	80030e8 <HAL_DMA_Init+0x2b8>
 8002fec:	f102 5280 	add.w	r2, r2, #268435456	@ 0x10000000
 8002ff0:	4293      	cmp	r3, r2
 8002ff2:	d079      	beq.n	80030e8 <HAL_DMA_Init+0x2b8>
 8002ff4:	f102 4270 	add.w	r2, r2, #4026531840	@ 0xf0000000
 8002ff8:	3280      	adds	r2, #128	@ 0x80
 8002ffa:	4293      	cmp	r3, r2
 8002ffc:	d074      	beq.n	80030e8 <HAL_DMA_Init+0x2b8>
 8002ffe:	f102 5280 	add.w	r2, r2, #268435456	@ 0x10000000
 8003002:	4293      	cmp	r3, r2
 8003004:	d070      	beq.n	80030e8 <HAL_DMA_Init+0x2b8>
 8003006:	f102 4270 	add.w	r2, r2, #4026531840	@ 0xf0000000
 800300a:	3280      	adds	r2, #128	@ 0x80
 800300c:	4293      	cmp	r3, r2
 800300e:	d06b      	beq.n	80030e8 <HAL_DMA_Init+0x2b8>
 8003010:	f102 5280 	add.w	r2, r2, #268435456	@ 0x10000000
 8003014:	4293      	cmp	r3, r2
 8003016:	d067      	beq.n	80030e8 <HAL_DMA_Init+0x2b8>
 8003018:	f102 4270 	add.w	r2, r2, #4026531840	@ 0xf0000000
 800301c:	3280      	adds	r2, #128	@ 0x80
 800301e:	4293      	cmp	r3, r2
 8003020:	d062      	beq.n	80030e8 <HAL_DMA_Init+0x2b8>
 8003022:	f102 5280 	add.w	r2, r2, #268435456	@ 0x10000000
 8003026:	4293      	cmp	r3, r2
 8003028:	d05e      	beq.n	80030e8 <HAL_DMA_Init+0x2b8>
 800302a:	f102 4270 	add.w	r2, r2, #4026531840	@ 0xf0000000
 800302e:	3280      	adds	r2, #128	@ 0x80
 8003030:	4293      	cmp	r3, r2
 8003032:	d059      	beq.n	80030e8 <HAL_DMA_Init+0x2b8>
 8003034:	f102 5280 	add.w	r2, r2, #268435456	@ 0x10000000
 8003038:	4293      	cmp	r3, r2
 800303a:	d055      	beq.n	80030e8 <HAL_DMA_Init+0x2b8>
 800303c:	f102 4270 	add.w	r2, r2, #4026531840	@ 0xf0000000
 8003040:	3280      	adds	r2, #128	@ 0x80
 8003042:	4293      	cmp	r3, r2
 8003044:	d050      	beq.n	80030e8 <HAL_DMA_Init+0x2b8>
 8003046:	f102 5280 	add.w	r2, r2, #268435456	@ 0x10000000
 800304a:	4293      	cmp	r3, r2
 800304c:	d04c      	beq.n	80030e8 <HAL_DMA_Init+0x2b8>
 800304e:	f102 4270 	add.w	r2, r2, #4026531840	@ 0xf0000000
 8003052:	3280      	adds	r2, #128	@ 0x80
 8003054:	4293      	cmp	r3, r2
 8003056:	d047      	beq.n	80030e8 <HAL_DMA_Init+0x2b8>
 8003058:	f102 5280 	add.w	r2, r2, #268435456	@ 0x10000000
 800305c:	4293      	cmp	r3, r2
 800305e:	d043      	beq.n	80030e8 <HAL_DMA_Init+0x2b8>
 8003060:	f102 4270 	add.w	r2, r2, #4026531840	@ 0xf0000000
 8003064:	3280      	adds	r2, #128	@ 0x80
 8003066:	4293      	cmp	r3, r2
 8003068:	d03e      	beq.n	80030e8 <HAL_DMA_Init+0x2b8>
 800306a:	f102 5280 	add.w	r2, r2, #268435456	@ 0x10000000
 800306e:	4293      	cmp	r3, r2
 8003070:	d03a      	beq.n	80030e8 <HAL_DMA_Init+0x2b8>
 8003072:	f102 4270 	add.w	r2, r2, #4026531840	@ 0xf0000000
 8003076:	3280      	adds	r2, #128	@ 0x80
 8003078:	4293      	cmp	r3, r2
 800307a:	d035      	beq.n	80030e8 <HAL_DMA_Init+0x2b8>
 800307c:	f102 5280 	add.w	r2, r2, #268435456	@ 0x10000000
 8003080:	4293      	cmp	r3, r2
 8003082:	d031      	beq.n	80030e8 <HAL_DMA_Init+0x2b8>
 8003084:	f102 4270 	add.w	r2, r2, #4026531840	@ 0xf0000000
 8003088:	3280      	adds	r2, #128	@ 0x80
 800308a:	4293      	cmp	r3, r2
 800308c:	d02c      	beq.n	80030e8 <HAL_DMA_Init+0x2b8>
 800308e:	f102 5280 	add.w	r2, r2, #268435456	@ 0x10000000
 8003092:	4293      	cmp	r3, r2
 8003094:	d028      	beq.n	80030e8 <HAL_DMA_Init+0x2b8>
 8003096:	f102 4270 	add.w	r2, r2, #4026531840	@ 0xf0000000
 800309a:	3280      	adds	r2, #128	@ 0x80
 800309c:	4293      	cmp	r3, r2
 800309e:	d023      	beq.n	80030e8 <HAL_DMA_Init+0x2b8>
 80030a0:	f102 5280 	add.w	r2, r2, #268435456	@ 0x10000000
 80030a4:	4293      	cmp	r3, r2
 80030a6:	d01f      	beq.n	80030e8 <HAL_DMA_Init+0x2b8>
 80030a8:	4283      	cmp	r3, r0
 80030aa:	d01d      	beq.n	80030e8 <HAL_DMA_Init+0x2b8>
 80030ac:	3280      	adds	r2, #128	@ 0x80
 80030ae:	4293      	cmp	r3, r2
 80030b0:	d01a      	beq.n	80030e8 <HAL_DMA_Init+0x2b8>
 80030b2:	f102 4270 	add.w	r2, r2, #4026531840	@ 0xf0000000
 80030b6:	3280      	adds	r2, #128	@ 0x80
 80030b8:	4293      	cmp	r3, r2
 80030ba:	d015      	beq.n	80030e8 <HAL_DMA_Init+0x2b8>
 80030bc:	f102 5280 	add.w	r2, r2, #268435456	@ 0x10000000
 80030c0:	4293      	cmp	r3, r2
 80030c2:	d011      	beq.n	80030e8 <HAL_DMA_Init+0x2b8>
 80030c4:	f102 4270 	add.w	r2, r2, #4026531840	@ 0xf0000000
 80030c8:	3280      	adds	r2, #128	@ 0x80
 80030ca:	4293      	cmp	r3, r2
 80030cc:	d00c      	beq.n	80030e8 <HAL_DMA_Init+0x2b8>
 80030ce:	f102 5280 	add.w	r2, r2, #268435456	@ 0x10000000
 80030d2:	4293      	cmp	r3, r2
 80030d4:	d008      	beq.n	80030e8 <HAL_DMA_Init+0x2b8>
 80030d6:	f102 4270 	add.w	r2, r2, #4026531840	@ 0xf0000000
 80030da:	3280      	adds	r2, #128	@ 0x80
 80030dc:	4293      	cmp	r3, r2
 80030de:	d003      	beq.n	80030e8 <HAL_DMA_Init+0x2b8>
 80030e0:	f102 5280 	add.w	r2, r2, #268435456	@ 0x10000000
 80030e4:	4293      	cmp	r3, r2
 80030e6:	d101      	bne.n	80030ec <HAL_DMA_Init+0x2bc>
 80030e8:	f441 6180 	orr.w	r1, r1, #1024	@ 0x400
 80030ec:	6c5a      	ldr	r2, [r3, #68]	@ 0x44
 80030ee:	4283      	cmp	r3, r0
 80030f0:	f022 4243 	bic.w	r2, r2, #3271557120	@ 0xc3000000
 80030f4:	f422 127f 	bic.w	r2, r2, #4177920	@ 0x3fc000
 80030f8:	f422 6267 	bic.w	r2, r2, #3696	@ 0xe70
 80030fc:	f022 020f 	bic.w	r2, r2, #15
 8003100:	ea42 0201 	orr.w	r2, r2, r1
 8003104:	645a      	str	r2, [r3, #68]	@ 0x44
 8003106:	f04f 0200 	mov.w	r2, #0
 800310a:	649a      	str	r2, [r3, #72]	@ 0x48
 800310c:	d027      	beq.n	800315e <HAL_DMA_Init+0x32e>
 800310e:	4a0c      	ldr	r2, [pc, #48]	@ (8003140 <HAL_DMA_Init+0x310>)
 8003110:	4293      	cmp	r3, r2
 8003112:	d024      	beq.n	800315e <HAL_DMA_Init+0x32e>
 8003114:	f102 4270 	add.w	r2, r2, #4026531840	@ 0xf0000000
 8003118:	3280      	adds	r2, #128	@ 0x80
 800311a:	4293      	cmp	r3, r2
 800311c:	d01f      	beq.n	800315e <HAL_DMA_Init+0x32e>
 800311e:	f102 5280 	add.w	r2, r2, #268435456	@ 0x10000000
 8003122:	4293      	cmp	r3, r2
 8003124:	d01b      	beq.n	800315e <HAL_DMA_Init+0x32e>
 8003126:	f102 4270 	add.w	r2, r2, #4026531840	@ 0xf0000000
 800312a:	3280      	adds	r2, #128	@ 0x80
 800312c:	4293      	cmp	r3, r2
 800312e:	d016      	beq.n	800315e <HAL_DMA_Init+0x32e>
 8003130:	e008      	b.n	8003144 <HAL_DMA_Init+0x314>
 8003132:	bf00      	nop
 8003134:	40020050 	.word	0x40020050
 8003138:	40020650 	.word	0x40020650
 800313c:	50020050 	.word	0x50020050
 8003140:	50020650 	.word	0x50020650
 8003144:	f102 5280 	add.w	r2, r2, #268435456	@ 0x10000000
 8003148:	4293      	cmp	r3, r2
 800314a:	d008      	beq.n	800315e <HAL_DMA_Init+0x32e>
 800314c:	f102 4270 	add.w	r2, r2, #4026531840	@ 0xf0000000
 8003150:	3280      	adds	r2, #128	@ 0x80
 8003152:	4293      	cmp	r3, r2
 8003154:	d003      	beq.n	800315e <HAL_DMA_Init+0x32e>
 8003156:	f102 5280 	add.w	r2, r2, #268435456	@ 0x10000000
 800315a:	4293      	cmp	r3, r2
 800315c:	d102      	bne.n	8003164 <HAL_DMA_Init+0x334>
 800315e:	2200      	movs	r2, #0
 8003160:	655a      	str	r2, [r3, #84]	@ 0x54
 8003162:	659a      	str	r2, [r3, #88]	@ 0x58
 8003164:	2000      	movs	r0, #0
 8003166:	67d8      	str	r0, [r3, #124]	@ 0x7c
 8003168:	6b63      	ldr	r3, [r4, #52]	@ 0x34
 800316a:	65a0      	str	r0, [r4, #88]	@ 0x58
 800316c:	6523      	str	r3, [r4, #80]	@ 0x50
 800316e:	2301      	movs	r3, #1
 8003170:	f884 3054 	strb.w	r3, [r4, #84]	@ 0x54
 8003174:	e00b      	b.n	800318e <HAL_DMA_Init+0x35e>
 8003176:	f7ff fd8f 	bl	8002c98 <HAL_GetTick>
 800317a:	1b40      	subs	r0, r0, r5
 800317c:	2805      	cmp	r0, #5
 800317e:	f67f ae6a 	bls.w	8002e56 <HAL_DMA_Init+0x26>
 8003182:	2310      	movs	r3, #16
 8003184:	65a3      	str	r3, [r4, #88]	@ 0x58
 8003186:	2303      	movs	r3, #3
 8003188:	f884 3054 	strb.w	r3, [r4, #84]	@ 0x54
 800318c:	2001      	movs	r0, #1
 800318e:	bd38      	pop	{r3, r4, r5, pc}
 8003190:	f5b2 7f00 	cmp.w	r2, #512	@ 0x200
 8003194:	bf08      	it	eq
 8003196:	f441 7100 	orreq.w	r1, r1, #512	@ 0x200
 800319a:	e7a7      	b.n	80030ec <HAL_DMA_Init+0x2bc>

0800319c <HAL_DMA_Start_IT>:
 800319c:	b530      	push	{r4, r5, lr}
 800319e:	2800      	cmp	r0, #0
 80031a0:	d036      	beq.n	8003210 <HAL_DMA_Start_IT+0x74>
 80031a2:	f890 404c 	ldrb.w	r4, [r0, #76]	@ 0x4c
 80031a6:	2c01      	cmp	r4, #1
 80031a8:	d034      	beq.n	8003214 <HAL_DMA_Start_IT+0x78>
 80031aa:	2401      	movs	r4, #1
 80031ac:	f880 404c 	strb.w	r4, [r0, #76]	@ 0x4c
 80031b0:	f890 4054 	ldrb.w	r4, [r0, #84]	@ 0x54
 80031b4:	2c01      	cmp	r4, #1
 80031b6:	f04f 0400 	mov.w	r4, #0
 80031ba:	d125      	bne.n	8003208 <HAL_DMA_Start_IT+0x6c>
 80031bc:	2502      	movs	r5, #2
 80031be:	f880 5054 	strb.w	r5, [r0, #84]	@ 0x54
 80031c2:	6584      	str	r4, [r0, #88]	@ 0x58
 80031c4:	6804      	ldr	r4, [r0, #0]
 80031c6:	b29b      	uxth	r3, r3
 80031c8:	6ca5      	ldr	r5, [r4, #72]	@ 0x48
 80031ca:	0c2d      	lsrs	r5, r5, #16
 80031cc:	042d      	lsls	r5, r5, #16
 80031ce:	431d      	orrs	r5, r3
 80031d0:	f44f 43fe 	mov.w	r3, #32512	@ 0x7f00
 80031d4:	64a5      	str	r5, [r4, #72]	@ 0x48
 80031d6:	60e3      	str	r3, [r4, #12]
 80031d8:	64e1      	str	r1, [r4, #76]	@ 0x4c
 80031da:	6522      	str	r2, [r4, #80]	@ 0x50
 80031dc:	6963      	ldr	r3, [r4, #20]
 80031de:	f443 43ba 	orr.w	r3, r3, #23808	@ 0x5d00
 80031e2:	6163      	str	r3, [r4, #20]
 80031e4:	6e43      	ldr	r3, [r0, #100]	@ 0x64
 80031e6:	b11b      	cbz	r3, 80031f0 <HAL_DMA_Start_IT+0x54>
 80031e8:	6963      	ldr	r3, [r4, #20]
 80031ea:	f443 7300 	orr.w	r3, r3, #512	@ 0x200
 80031ee:	6163      	str	r3, [r4, #20]
 80031f0:	6f03      	ldr	r3, [r0, #112]	@ 0x70
 80031f2:	b11b      	cbz	r3, 80031fc <HAL_DMA_Start_IT+0x60>
 80031f4:	6963      	ldr	r3, [r4, #20]
 80031f6:	f443 5300 	orr.w	r3, r3, #8192	@ 0x2000
 80031fa:	6163      	str	r3, [r4, #20]
 80031fc:	2000      	movs	r0, #0
 80031fe:	6963      	ldr	r3, [r4, #20]
 8003200:	f043 0301 	orr.w	r3, r3, #1
 8003204:	6163      	str	r3, [r4, #20]
 8003206:	bd30      	pop	{r4, r5, pc}
 8003208:	2340      	movs	r3, #64	@ 0x40
 800320a:	f880 404c 	strb.w	r4, [r0, #76]	@ 0x4c
 800320e:	6583      	str	r3, [r0, #88]	@ 0x58
 8003210:	2001      	movs	r0, #1
 8003212:	e7f8      	b.n	8003206 <HAL_DMA_Start_IT+0x6a>
 8003214:	2002      	movs	r0, #2
 8003216:	e7f6      	b.n	8003206 <HAL_DMA_Start_IT+0x6a>

08003218 <HAL_DMA_Abort>:
 8003218:	b538      	push	{r3, r4, r5, lr}
 800321a:	4604      	mov	r4, r0
 800321c:	f7ff fd3c 	bl	8002c98 <HAL_GetTick>
 8003220:	4605      	mov	r5, r0
 8003222:	b144      	cbz	r4, 8003236 <HAL_DMA_Abort+0x1e>
 8003224:	f894 3054 	ldrb.w	r3, [r4, #84]	@ 0x54
 8003228:	2b02      	cmp	r3, #2
 800322a:	d006      	beq.n	800323a <HAL_DMA_Abort+0x22>
 800322c:	2320      	movs	r3, #32
 800322e:	65a3      	str	r3, [r4, #88]	@ 0x58
 8003230:	2300      	movs	r3, #0
 8003232:	f884 304c 	strb.w	r3, [r4, #76]	@ 0x4c
 8003236:	2001      	movs	r0, #1
 8003238:	bd38      	pop	{r3, r4, r5, pc}
 800323a:	6822      	ldr	r2, [r4, #0]
 800323c:	6953      	ldr	r3, [r2, #20]
 800323e:	f043 0304 	orr.w	r3, r3, #4
 8003242:	6153      	str	r3, [r2, #20]
 8003244:	2305      	movs	r3, #5
 8003246:	f884 3054 	strb.w	r3, [r4, #84]	@ 0x54
 800324a:	6823      	ldr	r3, [r4, #0]
 800324c:	691a      	ldr	r2, [r3, #16]
 800324e:	0490      	lsls	r0, r2, #18
 8003250:	d519      	bpl.n	8003286 <HAL_DMA_Abort+0x6e>
 8003252:	695a      	ldr	r2, [r3, #20]
 8003254:	6d21      	ldr	r1, [r4, #80]	@ 0x50
 8003256:	f042 0202 	orr.w	r2, r2, #2
 800325a:	615a      	str	r2, [r3, #20]
 800325c:	2204      	movs	r2, #4
 800325e:	f884 2054 	strb.w	r2, [r4, #84]	@ 0x54
 8003262:	f44f 42fe 	mov.w	r2, #32512	@ 0x7f00
 8003266:	60da      	str	r2, [r3, #12]
 8003268:	2201      	movs	r2, #1
 800326a:	0609      	lsls	r1, r1, #24
 800326c:	bf48      	it	mi
 800326e:	6f61      	ldrmi	r1, [r4, #116]	@ 0x74
 8003270:	f884 2054 	strb.w	r2, [r4, #84]	@ 0x54
 8003274:	f04f 0000 	mov.w	r0, #0
 8003278:	bf42      	ittt	mi
 800327a:	730a      	strbmi	r2, [r1, #12]
 800327c:	2200      	movmi	r2, #0
 800327e:	649a      	strmi	r2, [r3, #72]	@ 0x48
 8003280:	f884 004c 	strb.w	r0, [r4, #76]	@ 0x4c
 8003284:	e7d8      	b.n	8003238 <HAL_DMA_Abort+0x20>
 8003286:	f7ff fd07 	bl	8002c98 <HAL_GetTick>
 800328a:	1b40      	subs	r0, r0, r5
 800328c:	2805      	cmp	r0, #5
 800328e:	d9dc      	bls.n	800324a <HAL_DMA_Abort+0x32>
 8003290:	6da3      	ldr	r3, [r4, #88]	@ 0x58
 8003292:	f043 0310 	orr.w	r3, r3, #16
 8003296:	65a3      	str	r3, [r4, #88]	@ 0x58
 8003298:	2303      	movs	r3, #3
 800329a:	f884 3054 	strb.w	r3, [r4, #84]	@ 0x54
 800329e:	6d23      	ldr	r3, [r4, #80]	@ 0x50
 80032a0:	061d      	lsls	r5, r3, #24
 80032a2:	d5c5      	bpl.n	8003230 <HAL_DMA_Abort+0x18>
 80032a4:	2201      	movs	r2, #1
 80032a6:	6f63      	ldr	r3, [r4, #116]	@ 0x74
 80032a8:	731a      	strb	r2, [r3, #12]
 80032aa:	e7c1      	b.n	8003230 <HAL_DMA_Abort+0x18>

080032ac <HAL_DMA_Abort_IT>:
 80032ac:	b128      	cbz	r0, 80032ba <HAL_DMA_Abort_IT+0xe>
 80032ae:	f890 3054 	ldrb.w	r3, [r0, #84]	@ 0x54
 80032b2:	2b02      	cmp	r3, #2
 80032b4:	d003      	beq.n	80032be <HAL_DMA_Abort_IT+0x12>
 80032b6:	2320      	movs	r3, #32
 80032b8:	6583      	str	r3, [r0, #88]	@ 0x58
 80032ba:	2001      	movs	r0, #1
 80032bc:	4770      	bx	lr
 80032be:	2304      	movs	r3, #4
 80032c0:	6802      	ldr	r2, [r0, #0]
 80032c2:	f880 3054 	strb.w	r3, [r0, #84]	@ 0x54
 80032c6:	6953      	ldr	r3, [r2, #20]
 80032c8:	2000      	movs	r0, #0
 80032ca:	f443 5300 	orr.w	r3, r3, #8192	@ 0x2000
 80032ce:	f043 0304 	orr.w	r3, r3, #4
 80032d2:	6153      	str	r3, [r2, #20]
 80032d4:	4770      	bx	lr

080032d6 <HAL_DMA_IRQHandler>:
 80032d6:	2101      	movs	r1, #1
 80032d8:	6803      	ldr	r3, [r0, #0]
 80032da:	b510      	push	{r4, lr}
 80032dc:	f423 627f 	bic.w	r2, r3, #4080	@ 0xff0
 80032e0:	f022 020f 	bic.w	r2, r2, #15
 80032e4:	4604      	mov	r4, r0
 80032e6:	68d0      	ldr	r0, [r2, #12]
 80032e8:	f3c3 020b 	ubfx	r2, r3, #0, #12
 80032ec:	3a50      	subs	r2, #80	@ 0x50
 80032ee:	f3c2 12c4 	ubfx	r2, r2, #7, #5
 80032f2:	fa01 f202 	lsl.w	r2, r1, r2
 80032f6:	4202      	tst	r2, r0
 80032f8:	f000 80ab 	beq.w	8003452 <HAL_DMA_IRQHandler+0x17c>
 80032fc:	691a      	ldr	r2, [r3, #16]
 80032fe:	0550      	lsls	r0, r2, #21
 8003300:	d508      	bpl.n	8003314 <HAL_DMA_IRQHandler+0x3e>
 8003302:	695a      	ldr	r2, [r3, #20]
 8003304:	0552      	lsls	r2, r2, #21
 8003306:	d505      	bpl.n	8003314 <HAL_DMA_IRQHandler+0x3e>
 8003308:	f44f 6280 	mov.w	r2, #1024	@ 0x400
 800330c:	60da      	str	r2, [r3, #12]
 800330e:	6da2      	ldr	r2, [r4, #88]	@ 0x58
 8003310:	430a      	orrs	r2, r1
 8003312:	65a2      	str	r2, [r4, #88]	@ 0x58
 8003314:	691a      	ldr	r2, [r3, #16]
 8003316:	0510      	lsls	r0, r2, #20
 8003318:	d509      	bpl.n	800332e <HAL_DMA_IRQHandler+0x58>
 800331a:	695a      	ldr	r2, [r3, #20]
 800331c:	0511      	lsls	r1, r2, #20
 800331e:	d506      	bpl.n	800332e <HAL_DMA_IRQHandler+0x58>
 8003320:	f44f 6200 	mov.w	r2, #2048	@ 0x800
 8003324:	60da      	str	r2, [r3, #12]
 8003326:	6da2      	ldr	r2, [r4, #88]	@ 0x58
 8003328:	f042 0202 	orr.w	r2, r2, #2
 800332c:	65a2      	str	r2, [r4, #88]	@ 0x58
 800332e:	691a      	ldr	r2, [r3, #16]
 8003330:	04d2      	lsls	r2, r2, #19
 8003332:	d509      	bpl.n	8003348 <HAL_DMA_IRQHandler+0x72>
 8003334:	695a      	ldr	r2, [r3, #20]
 8003336:	04d0      	lsls	r0, r2, #19
 8003338:	d506      	bpl.n	8003348 <HAL_DMA_IRQHandler+0x72>
 800333a:	f44f 5280 	mov.w	r2, #4096	@ 0x1000
 800333e:	60da      	str	r2, [r3, #12]
 8003340:	6da2      	ldr	r2, [r4, #88]	@ 0x58
 8003342:	f042 0204 	orr.w	r2, r2, #4
 8003346:	65a2      	str	r2, [r4, #88]	@ 0x58
 8003348:	691a      	ldr	r2, [r3, #16]
 800334a:	0451      	lsls	r1, r2, #17
 800334c:	d509      	bpl.n	8003362 <HAL_DMA_IRQHandler+0x8c>
 800334e:	695a      	ldr	r2, [r3, #20]
 8003350:	0452      	lsls	r2, r2, #17
 8003352:	d506      	bpl.n	8003362 <HAL_DMA_IRQHandler+0x8c>
 8003354:	f44f 4280 	mov.w	r2, #16384	@ 0x4000
 8003358:	60da      	str	r2, [r3, #12]
 800335a:	6da2      	ldr	r2, [r4, #88]	@ 0x58
 800335c:	f042 0208 	orr.w	r2, r2, #8
 8003360:	65a2      	str	r2, [r4, #88]	@ 0x58
 8003362:	691a      	ldr	r2, [r3, #16]
 8003364:	0590      	lsls	r0, r2, #22
 8003366:	d509      	bpl.n	800337c <HAL_DMA_IRQHandler+0xa6>
 8003368:	695a      	ldr	r2, [r3, #20]
 800336a:	0591      	lsls	r1, r2, #22
 800336c:	d506      	bpl.n	800337c <HAL_DMA_IRQHandler+0xa6>
 800336e:	f44f 7200 	mov.w	r2, #512	@ 0x200
 8003372:	60da      	str	r2, [r3, #12]
 8003374:	6e63      	ldr	r3, [r4, #100]	@ 0x64
 8003376:	b10b      	cbz	r3, 800337c <HAL_DMA_IRQHandler+0xa6>
 8003378:	4620      	mov	r0, r4
 800337a:	4798      	blx	r3
 800337c:	6823      	ldr	r3, [r4, #0]
 800337e:	691a      	ldr	r2, [r3, #16]
 8003380:	0492      	lsls	r2, r2, #18
 8003382:	d52e      	bpl.n	80033e2 <HAL_DMA_IRQHandler+0x10c>
 8003384:	695a      	ldr	r2, [r3, #20]
 8003386:	0490      	lsls	r0, r2, #18
 8003388:	d52b      	bpl.n	80033e2 <HAL_DMA_IRQHandler+0x10c>
 800338a:	f44f 5200 	mov.w	r2, #8192	@ 0x2000
 800338e:	60da      	str	r2, [r3, #12]
 8003390:	f894 2054 	ldrb.w	r2, [r4, #84]	@ 0x54
 8003394:	2a04      	cmp	r2, #4
 8003396:	d11d      	bne.n	80033d4 <HAL_DMA_IRQHandler+0xfe>
 8003398:	695a      	ldr	r2, [r3, #20]
 800339a:	6d21      	ldr	r1, [r4, #80]	@ 0x50
 800339c:	f422 5200 	bic.w	r2, r2, #8192	@ 0x2000
 80033a0:	615a      	str	r2, [r3, #20]
 80033a2:	695a      	ldr	r2, [r3, #20]
 80033a4:	0609      	lsls	r1, r1, #24
 80033a6:	f042 0202 	orr.w	r2, r2, #2
 80033aa:	615a      	str	r2, [r3, #20]
 80033ac:	f04f 0201 	mov.w	r2, #1
 80033b0:	bf48      	it	mi
 80033b2:	6f61      	ldrmi	r1, [r4, #116]	@ 0x74
 80033b4:	f884 2054 	strb.w	r2, [r4, #84]	@ 0x54
 80033b8:	bf42      	ittt	mi
 80033ba:	730a      	strbmi	r2, [r1, #12]
 80033bc:	2200      	movmi	r2, #0
 80033be:	649a      	strmi	r2, [r3, #72]	@ 0x48
 80033c0:	2300      	movs	r3, #0
 80033c2:	f884 304c 	strb.w	r3, [r4, #76]	@ 0x4c
 80033c6:	6ee3      	ldr	r3, [r4, #108]	@ 0x6c
 80033c8:	2b00      	cmp	r3, #0
 80033ca:	d042      	beq.n	8003452 <HAL_DMA_IRQHandler+0x17c>
 80033cc:	4620      	mov	r0, r4
 80033ce:	e8bd 4010 	ldmia.w	sp!, {r4, lr}
 80033d2:	4718      	bx	r3
 80033d4:	2305      	movs	r3, #5
 80033d6:	f884 3054 	strb.w	r3, [r4, #84]	@ 0x54
 80033da:	6f23      	ldr	r3, [r4, #112]	@ 0x70
 80033dc:	b10b      	cbz	r3, 80033e2 <HAL_DMA_IRQHandler+0x10c>
 80033de:	4620      	mov	r0, r4
 80033e0:	4798      	blx	r3
 80033e2:	6823      	ldr	r3, [r4, #0]
 80033e4:	691a      	ldr	r2, [r3, #16]
 80033e6:	05d2      	lsls	r2, r2, #23
 80033e8:	d518      	bpl.n	800341c <HAL_DMA_IRQHandler+0x146>
 80033ea:	695a      	ldr	r2, [r3, #20]
 80033ec:	05d0      	lsls	r0, r2, #23
 80033ee:	d515      	bpl.n	800341c <HAL_DMA_IRQHandler+0x146>
 80033f0:	6d22      	ldr	r2, [r4, #80]	@ 0x50
 80033f2:	0611      	lsls	r1, r2, #24
 80033f4:	d526      	bpl.n	8003444 <HAL_DMA_IRQHandler+0x16e>
 80033f6:	6fda      	ldr	r2, [r3, #124]	@ 0x7c
 80033f8:	b932      	cbnz	r2, 8003408 <HAL_DMA_IRQHandler+0x132>
 80033fa:	6c9a      	ldr	r2, [r3, #72]	@ 0x48
 80033fc:	b922      	cbnz	r2, 8003408 <HAL_DMA_IRQHandler+0x132>
 80033fe:	2201      	movs	r2, #1
 8003400:	6f61      	ldr	r1, [r4, #116]	@ 0x74
 8003402:	f884 2054 	strb.w	r2, [r4, #84]	@ 0x54
 8003406:	730a      	strb	r2, [r1, #12]
 8003408:	f44f 7240 	mov.w	r2, #768	@ 0x300
 800340c:	60da      	str	r2, [r3, #12]
 800340e:	2300      	movs	r3, #0
 8003410:	f884 304c 	strb.w	r3, [r4, #76]	@ 0x4c
 8003414:	6e23      	ldr	r3, [r4, #96]	@ 0x60
 8003416:	b10b      	cbz	r3, 800341c <HAL_DMA_IRQHandler+0x146>
 8003418:	4620      	mov	r0, r4
 800341a:	4798      	blx	r3
 800341c:	6da3      	ldr	r3, [r4, #88]	@ 0x58
 800341e:	b1c3      	cbz	r3, 8003452 <HAL_DMA_IRQHandler+0x17c>
 8003420:	6822      	ldr	r2, [r4, #0]
 8003422:	6953      	ldr	r3, [r2, #20]
 8003424:	f043 0302 	orr.w	r3, r3, #2
 8003428:	6153      	str	r3, [r2, #20]
 800342a:	2301      	movs	r3, #1
 800342c:	6d22      	ldr	r2, [r4, #80]	@ 0x50
 800342e:	f884 3054 	strb.w	r3, [r4, #84]	@ 0x54
 8003432:	0612      	lsls	r2, r2, #24
 8003434:	bf44      	itt	mi
 8003436:	6f62      	ldrmi	r2, [r4, #116]	@ 0x74
 8003438:	7313      	strbmi	r3, [r2, #12]
 800343a:	2300      	movs	r3, #0
 800343c:	f884 304c 	strb.w	r3, [r4, #76]	@ 0x4c
 8003440:	6ea3      	ldr	r3, [r4, #104]	@ 0x68
 8003442:	e7c1      	b.n	80033c8 <HAL_DMA_IRQHandler+0xf2>
 8003444:	6c9a      	ldr	r2, [r3, #72]	@ 0x48
 8003446:	2a00      	cmp	r2, #0
 8003448:	d1de      	bne.n	8003408 <HAL_DMA_IRQHandler+0x132>
 800344a:	2201      	movs	r2, #1
 800344c:	f884 2054 	strb.w	r2, [r4, #84]	@ 0x54
 8003450:	e7da      	b.n	8003408 <HAL_DMA_IRQHandler+0x132>
 8003452:	bd10      	pop	{r4, pc}

08003454 <HAL_DMA_GetError>:
 8003454:	6d80      	ldr	r0, [r0, #88]	@ 0x58
 8003456:	4770      	bx	lr

08003458 <HAL_DMA_ConfigChannelAttributes>:
 8003458:	b1d0      	cbz	r0, 8003490 <HAL_DMA_ConfigChannelAttributes+0x38>
 800345a:	06cb      	lsls	r3, r1, #27
 800345c:	d401      	bmi.n	8003462 <HAL_DMA_ConfigChannelAttributes+0xa>
 800345e:	2000      	movs	r0, #0
 8003460:	4770      	bx	lr
 8003462:	6803      	ldr	r3, [r0, #0]
 8003464:	2001      	movs	r0, #1
 8003466:	f423 627f 	bic.w	r2, r3, #4080	@ 0xff0
 800346a:	f3c3 030b 	ubfx	r3, r3, #0, #12
 800346e:	f022 020f 	bic.w	r2, r2, #15
 8003472:	f001 0111 	and.w	r1, r1, #17
 8003476:	3b50      	subs	r3, #80	@ 0x50
 8003478:	2911      	cmp	r1, #17
 800347a:	f3c3 13c4 	ubfx	r3, r3, #7, #5
 800347e:	6851      	ldr	r1, [r2, #4]
 8003480:	fa00 f303 	lsl.w	r3, r0, r3
 8003484:	bf0c      	ite	eq
 8003486:	430b      	orreq	r3, r1
 8003488:	ea21 0303 	bicne.w	r3, r1, r3
 800348c:	6053      	str	r3, [r2, #4]
 800348e:	e7e6      	b.n	800345e <HAL_DMA_ConfigChannelAttributes+0x6>
 8003490:	2001      	movs	r0, #1
 8003492:	4770      	bx	lr

08003494 <DMA_List_GetCLLRNodeInfo.isra.0>:
 8003494:	0783      	lsls	r3, r0, #30
 8003496:	d506      	bpl.n	80034a6 <DMA_List_GetCLLRNodeInfo.isra.0+0x12>
 8003498:	b109      	cbz	r1, 800349e <DMA_List_GetCLLRNodeInfo.isra.0+0xa>
 800349a:	4b06      	ldr	r3, [pc, #24]	@ (80034b4 <DMA_List_GetCLLRNodeInfo.isra.0+0x20>)
 800349c:	600b      	str	r3, [r1, #0]
 800349e:	b10a      	cbz	r2, 80034a4 <DMA_List_GetCLLRNodeInfo.isra.0+0x10>
 80034a0:	2307      	movs	r3, #7
 80034a2:	6013      	str	r3, [r2, #0]
 80034a4:	4770      	bx	lr
 80034a6:	b109      	cbz	r1, 80034ac <DMA_List_GetCLLRNodeInfo.isra.0+0x18>
 80034a8:	4b03      	ldr	r3, [pc, #12]	@ (80034b8 <DMA_List_GetCLLRNodeInfo.isra.0+0x24>)
 80034aa:	600b      	str	r3, [r1, #0]
 80034ac:	2a00      	cmp	r2, #0
 80034ae:	d0f9      	beq.n	80034a4 <DMA_List_GetCLLRNodeInfo.isra.0+0x10>
 80034b0:	2305      	movs	r3, #5
 80034b2:	e7f6      	b.n	80034a2 <DMA_List_GetCLLRNodeInfo.isra.0+0xe>
 80034b4:	fe010000 	.word	0xfe010000
 80034b8:	f8010000 	.word	0xf8010000

080034bc <HAL_DMAEx_List_Start_IT>:
 80034bc:	4603      	mov	r3, r0
 80034be:	b537      	push	{r0, r1, r2, r4, r5, lr}
 80034c0:	2800      	cmp	r0, #0
 80034c2:	d04b      	beq.n	800355c <HAL_DMAEx_List_Start_IT+0xa0>
 80034c4:	6f42      	ldr	r2, [r0, #116]	@ 0x74
 80034c6:	2a00      	cmp	r2, #0
 80034c8:	d048      	beq.n	800355c <HAL_DMAEx_List_Start_IT+0xa0>
 80034ca:	f890 1054 	ldrb.w	r1, [r0, #84]	@ 0x54
 80034ce:	6804      	ldr	r4, [r0, #0]
 80034d0:	2901      	cmp	r1, #1
 80034d2:	6960      	ldr	r0, [r4, #20]
 80034d4:	b2cd      	uxtb	r5, r1
 80034d6:	d003      	beq.n	80034e0 <HAL_DMAEx_List_Start_IT+0x24>
 80034d8:	2d02      	cmp	r5, #2
 80034da:	d13a      	bne.n	8003552 <HAL_DMAEx_List_Start_IT+0x96>
 80034dc:	03c1      	lsls	r1, r0, #15
 80034de:	d538      	bpl.n	8003552 <HAL_DMAEx_List_Start_IT+0x96>
 80034e0:	f893 1054 	ldrb.w	r1, [r3, #84]	@ 0x54
 80034e4:	2901      	cmp	r1, #1
 80034e6:	b2cd      	uxtb	r5, r1
 80034e8:	d12c      	bne.n	8003544 <HAL_DMAEx_List_Start_IT+0x88>
 80034ea:	f893 104c 	ldrb.w	r1, [r3, #76]	@ 0x4c
 80034ee:	2002      	movs	r0, #2
 80034f0:	2901      	cmp	r1, #1
 80034f2:	d02c      	beq.n	800354e <HAL_DMAEx_List_Start_IT+0x92>
 80034f4:	2100      	movs	r1, #0
 80034f6:	f883 0054 	strb.w	r0, [r3, #84]	@ 0x54
 80034fa:	f883 504c 	strb.w	r5, [r3, #76]	@ 0x4c
 80034fe:	7310      	strb	r0, [r2, #12]
 8003500:	6599      	str	r1, [r3, #88]	@ 0x58
 8003502:	6111      	str	r1, [r2, #16]
 8003504:	6961      	ldr	r1, [r4, #20]
 8003506:	f441 41ba 	orr.w	r1, r1, #23808	@ 0x5d00
 800350a:	6161      	str	r1, [r4, #20]
 800350c:	6e59      	ldr	r1, [r3, #100]	@ 0x64
 800350e:	b119      	cbz	r1, 8003518 <HAL_DMAEx_List_Start_IT+0x5c>
 8003510:	6961      	ldr	r1, [r4, #20]
 8003512:	f441 7100 	orr.w	r1, r1, #512	@ 0x200
 8003516:	6161      	str	r1, [r4, #20]
 8003518:	6f1b      	ldr	r3, [r3, #112]	@ 0x70
 800351a:	b11b      	cbz	r3, 8003524 <HAL_DMAEx_List_Start_IT+0x68>
 800351c:	6963      	ldr	r3, [r4, #20]
 800351e:	f443 5300 	orr.w	r3, r3, #8192	@ 0x2000
 8003522:	6163      	str	r3, [r4, #20]
 8003524:	6815      	ldr	r5, [r2, #0]
 8003526:	a901      	add	r1, sp, #4
 8003528:	6a28      	ldr	r0, [r5, #32]
 800352a:	2200      	movs	r2, #0
 800352c:	f7ff ffb2 	bl	8003494 <DMA_List_GetCLLRNodeInfo.isra.0>
 8003530:	0c2b      	lsrs	r3, r5, #16
 8003532:	041b      	lsls	r3, r3, #16
 8003534:	f025 0503 	bic.w	r5, r5, #3
 8003538:	6023      	str	r3, [r4, #0]
 800353a:	042d      	lsls	r5, r5, #16
 800353c:	9b01      	ldr	r3, [sp, #4]
 800353e:	0c2d      	lsrs	r5, r5, #16
 8003540:	431d      	orrs	r5, r3
 8003542:	67e5      	str	r5, [r4, #124]	@ 0x7c
 8003544:	2000      	movs	r0, #0
 8003546:	6963      	ldr	r3, [r4, #20]
 8003548:	f043 0301 	orr.w	r3, r3, #1
 800354c:	6163      	str	r3, [r4, #20]
 800354e:	b003      	add	sp, #12
 8003550:	bd30      	pop	{r4, r5, pc}
 8003552:	2240      	movs	r2, #64	@ 0x40
 8003554:	659a      	str	r2, [r3, #88]	@ 0x58
 8003556:	2200      	movs	r2, #0
 8003558:	f883 204c 	strb.w	r2, [r3, #76]	@ 0x4c
 800355c:	2001      	movs	r0, #1
 800355e:	e7f6      	b.n	800354e <HAL_DMAEx_List_Start_IT+0x92>

08003560 <HAL_GPIO_Init>:
 8003560:	e92d 4ff0 	stmdb	sp!, {r4, r5, r6, r7, r8, r9, sl, fp, lr}
 8003564:	4b81      	ldr	r3, [pc, #516]	@ (800376c <HAL_GPIO_Init+0x20c>)
 8003566:	b085      	sub	sp, #20
 8003568:	ea03 2390 	and.w	r3, r3, r0, lsr #10
 800356c:	9303      	str	r3, [sp, #12]
 800356e:	4b80      	ldr	r3, [pc, #512]	@ (8003770 <HAL_GPIO_Init+0x210>)
 8003570:	2200      	movs	r2, #0
 8003572:	9302      	str	r3, [sp, #8]
 8003574:	f04f 0e03 	mov.w	lr, #3
 8003578:	4603      	mov	r3, r0
 800357a:	4f7e      	ldr	r7, [pc, #504]	@ (8003774 <HAL_GPIO_Init+0x214>)
 800357c:	680e      	ldr	r6, [r1, #0]
 800357e:	fa36 f402 	lsrs.w	r4, r6, r2
 8003582:	d102      	bne.n	800358a <HAL_GPIO_Init+0x2a>
 8003584:	b005      	add	sp, #20
 8003586:	e8bd 8ff0 	ldmia.w	sp!, {r4, r5, r6, r7, r8, r9, sl, fp, pc}
 800358a:	2401      	movs	r4, #1
 800358c:	fa04 fc02 	lsl.w	ip, r4, r2
 8003590:	ea1c 0406 	ands.w	r4, ip, r6
 8003594:	9401      	str	r4, [sp, #4]
 8003596:	f000 808e 	beq.w	80036b6 <HAL_GPIO_Init+0x156>
 800359a:	4c77      	ldr	r4, [pc, #476]	@ (8003778 <HAL_GPIO_Init+0x218>)
 800359c:	684d      	ldr	r5, [r1, #4]
 800359e:	42a0      	cmp	r0, r4
 80035a0:	f025 0810 	bic.w	r8, r5, #16
 80035a4:	f040 808c 	bne.w	80036c0 <HAL_GPIO_Init+0x160>
 80035a8:	260f      	movs	r6, #15
 80035aa:	6804      	ldr	r4, [r0, #0]
 80035ac:	f005 0301 	and.w	r3, r5, #1
 80035b0:	ea24 040c 	bic.w	r4, r4, ip
 80035b4:	4093      	lsls	r3, r2
 80035b6:	4323      	orrs	r3, r4
 80035b8:	9c02      	ldr	r4, [sp, #8]
 80035ba:	6003      	str	r3, [r0, #0]
 80035bc:	6864      	ldr	r4, [r4, #4]
 80035be:	9b02      	ldr	r3, [sp, #8]
 80035c0:	f004 0c07 	and.w	ip, r4, #7
 80035c4:	ea4f 0c8c 	mov.w	ip, ip, lsl #2
 80035c8:	fa06 fa0c 	lsl.w	sl, r6, ip
 80035cc:	260b      	movs	r6, #11
 80035ce:	fa06 fc0c 	lsl.w	ip, r6, ip
 80035d2:	2602      	movs	r6, #2
 80035d4:	681b      	ldr	r3, [r3, #0]
 80035d6:	ea4f 09d4 	mov.w	r9, r4, lsr #3
 80035da:	eb03 0989 	add.w	r9, r3, r9, lsl #2
 80035de:	f8d9 b020 	ldr.w	fp, [r9, #32]
 80035e2:	ea2b 0a0a 	bic.w	sl, fp, sl
 80035e6:	ea4c 0c0a 	orr.w	ip, ip, sl
 80035ea:	f8c9 c020 	str.w	ip, [r9, #32]
 80035ee:	f8d3 9000 	ldr.w	r9, [r3]
 80035f2:	ea4f 0c44 	mov.w	ip, r4, lsl #1
 80035f6:	fa0e fa0c 	lsl.w	sl, lr, ip
 80035fa:	ea29 090a 	bic.w	r9, r9, sl
 80035fe:	fa06 fc0c 	lsl.w	ip, r6, ip
 8003602:	ea4c 0c09 	orr.w	ip, ip, r9
 8003606:	f8c3 c000 	str.w	ip, [r3]
 800360a:	f108 38ff 	add.w	r8, r8, #4294967295
 800360e:	f1b8 0f01 	cmp.w	r8, #1
 8003612:	f240 8082 	bls.w	800371a <HAL_GPIO_Init+0x1ba>
 8003616:	2d03      	cmp	r5, #3
 8003618:	d04d      	beq.n	80036b6 <HAL_GPIO_Init+0x156>
 800361a:	f8d3 800c 	ldr.w	r8, [r3, #12]
 800361e:	688e      	ldr	r6, [r1, #8]
 8003620:	0064      	lsls	r4, r4, #1
 8003622:	fa0e fc04 	lsl.w	ip, lr, r4
 8003626:	ea28 0c0c 	bic.w	ip, r8, ip
 800362a:	fa06 f404 	lsl.w	r4, r6, r4
 800362e:	ea44 040c 	orr.w	r4, r4, ip
 8003632:	60dc      	str	r4, [r3, #12]
 8003634:	00ec      	lsls	r4, r5, #3
 8003636:	d53e      	bpl.n	80036b6 <HAL_GPIO_Init+0x156>
 8003638:	260f      	movs	r6, #15
 800363a:	f022 0c03 	bic.w	ip, r2, #3
 800363e:	f10c 4c8c 	add.w	ip, ip, #1174405120	@ 0x46000000
 8003642:	f002 0403 	and.w	r4, r2, #3
 8003646:	f50c 3c08 	add.w	ip, ip, #139264	@ 0x22000
 800364a:	00e4      	lsls	r4, r4, #3
 800364c:	f8dc 9060 	ldr.w	r9, [ip, #96]	@ 0x60
 8003650:	fa06 f804 	lsl.w	r8, r6, r4
 8003654:	9e03      	ldr	r6, [sp, #12]
 8003656:	ea29 0808 	bic.w	r8, r9, r8
 800365a:	fa06 f404 	lsl.w	r4, r6, r4
 800365e:	9e01      	ldr	r6, [sp, #4]
 8003660:	ea44 0408 	orr.w	r4, r4, r8
 8003664:	f8cc 4060 	str.w	r4, [ip, #96]	@ 0x60
 8003668:	ea6f 0c06 	mvn.w	ip, r6
 800366c:	02ee      	lsls	r6, r5, #11
 800366e:	bf48      	it	mi
 8003670:	9e01      	ldrmi	r6, [sp, #4]
 8003672:	683c      	ldr	r4, [r7, #0]
 8003674:	bf4c      	ite	mi
 8003676:	4334      	orrmi	r4, r6
 8003678:	ea0c 0404 	andpl.w	r4, ip, r4
 800367c:	603c      	str	r4, [r7, #0]
 800367e:	02ae      	lsls	r6, r5, #10
 8003680:	687c      	ldr	r4, [r7, #4]
 8003682:	bf4a      	itet	mi
 8003684:	9e01      	ldrmi	r6, [sp, #4]
 8003686:	ea0c 0404 	andpl.w	r4, ip, r4
 800368a:	4334      	orrmi	r4, r6
 800368c:	607c      	str	r4, [r7, #4]
 800368e:	03ae      	lsls	r6, r5, #14
 8003690:	f8d7 4084 	ldr.w	r4, [r7, #132]	@ 0x84
 8003694:	bf4a      	itet	mi
 8003696:	9e01      	ldrmi	r6, [sp, #4]
 8003698:	ea0c 0404 	andpl.w	r4, ip, r4
 800369c:	4334      	orrmi	r4, r6
 800369e:	f8c7 4084 	str.w	r4, [r7, #132]	@ 0x84
 80036a2:	03ed      	lsls	r5, r5, #15
 80036a4:	f8d7 4080 	ldr.w	r4, [r7, #128]	@ 0x80
 80036a8:	bf4a      	itet	mi
 80036aa:	9d01      	ldrmi	r5, [sp, #4]
 80036ac:	ea0c 0404 	andpl.w	r4, ip, r4
 80036b0:	432c      	orrmi	r4, r5
 80036b2:	f8c7 4080 	str.w	r4, [r7, #128]	@ 0x80
 80036b6:	9c02      	ldr	r4, [sp, #8]
 80036b8:	3201      	adds	r2, #1
 80036ba:	3408      	adds	r4, #8
 80036bc:	9402      	str	r4, [sp, #8]
 80036be:	e75d      	b.n	800357c <HAL_GPIO_Init+0x1c>
 80036c0:	ea4f 0942 	mov.w	r9, r2, lsl #1
 80036c4:	fa0e f409 	lsl.w	r4, lr, r9
 80036c8:	f005 0c03 	and.w	ip, r5, #3
 80036cc:	f1b8 0f02 	cmp.w	r8, #2
 80036d0:	ea6f 0404 	mvn.w	r4, r4
 80036d4:	fa0c fc09 	lsl.w	ip, ip, r9
 80036d8:	d13e      	bne.n	8003758 <HAL_GPIO_Init+0x1f8>
 80036da:	260f      	movs	r6, #15
 80036dc:	ea4f 08d2 	mov.w	r8, r2, lsr #3
 80036e0:	f002 0907 	and.w	r9, r2, #7
 80036e4:	eb00 0888 	add.w	r8, r0, r8, lsl #2
 80036e8:	ea4f 0989 	mov.w	r9, r9, lsl #2
 80036ec:	f8d8 a020 	ldr.w	sl, [r8, #32]
 80036f0:	fa06 fb09 	lsl.w	fp, r6, r9
 80036f4:	690e      	ldr	r6, [r1, #16]
 80036f6:	ea2a 0a0b 	bic.w	sl, sl, fp
 80036fa:	f006 0b0f 	and.w	fp, r6, #15
 80036fe:	fa0b fb09 	lsl.w	fp, fp, r9
 8003702:	ea4b 0b0a 	orr.w	fp, fp, sl
 8003706:	f8c8 b020 	str.w	fp, [r8, #32]
 800370a:	f8d3 8000 	ldr.w	r8, [r3]
 800370e:	ea04 0808 	and.w	r8, r4, r8
 8003712:	ea48 040c 	orr.w	r4, r8, ip
 8003716:	601c      	str	r4, [r3, #0]
 8003718:	4614      	mov	r4, r2
 800371a:	68ce      	ldr	r6, [r1, #12]
 800371c:	ea4f 0844 	mov.w	r8, r4, lsl #1
 8003720:	fa0e f908 	lsl.w	r9, lr, r8
 8003724:	fa06 f808 	lsl.w	r8, r6, r8
 8003728:	2601      	movs	r6, #1
 800372a:	f8d3 c008 	ldr.w	ip, [r3, #8]
 800372e:	ea2c 0c09 	bic.w	ip, ip, r9
 8003732:	ea48 080c 	orr.w	r8, r8, ip
 8003736:	f8c3 8008 	str.w	r8, [r3, #8]
 800373a:	f8d3 8004 	ldr.w	r8, [r3, #4]
 800373e:	fa06 fc04 	lsl.w	ip, r6, r4
 8003742:	ea28 080c 	bic.w	r8, r8, ip
 8003746:	f3c5 1c00 	ubfx	ip, r5, #4, #1
 800374a:	fa0c fc04 	lsl.w	ip, ip, r4
 800374e:	ea4c 0c08 	orr.w	ip, ip, r8
 8003752:	f8c3 c004 	str.w	ip, [r3, #4]
 8003756:	e75e      	b.n	8003616 <HAL_GPIO_Init+0xb6>
 8003758:	f8d3 9000 	ldr.w	r9, [r3]
 800375c:	ea04 0409 	and.w	r4, r4, r9
 8003760:	ea44 040c 	orr.w	r4, r4, ip
 8003764:	601c      	str	r4, [r3, #0]
 8003766:	4614      	mov	r4, r2
 8003768:	e74f      	b.n	800360a <HAL_GPIO_Init+0xaa>
 800376a:	bf00      	nop
 800376c:	002f7f7f 	.word	0x002f7f7f
 8003770:	08009410 	.word	0x08009410
 8003774:	46022000 	.word	0x46022000
 8003778:	46020000 	.word	0x46020000

0800377c <HAL_GPIO_WritePin>:
 800377c:	b10a      	cbz	r2, 8003782 <HAL_GPIO_WritePin+0x6>
 800377e:	6181      	str	r1, [r0, #24]
 8003780:	4770      	bx	lr
 8003782:	6281      	str	r1, [r0, #40]	@ 0x28
 8003784:	4770      	bx	lr
	...

08003788 <HAL_ICACHE_ConfigAssociativityMode>:
 8003788:	4601      	mov	r1, r0
 800378a:	4a06      	ldr	r2, [pc, #24]	@ (80037a4 <HAL_ICACHE_ConfigAssociativityMode+0x1c>)
 800378c:	6810      	ldr	r0, [r2, #0]
 800378e:	f010 0001 	ands.w	r0, r0, #1
 8003792:	bf09      	itett	eq
 8003794:	6813      	ldreq	r3, [r2, #0]
 8003796:	2001      	movne	r0, #1
 8003798:	f023 0304 	biceq.w	r3, r3, #4
 800379c:	430b      	orreq	r3, r1
 800379e:	bf08      	it	eq
 80037a0:	6013      	streq	r3, [r2, #0]
 80037a2:	4770      	bx	lr
 80037a4:	40030400 	.word	0x40030400

080037a8 <HAL_ICACHE_Enable>:
 80037a8:	4a03      	ldr	r2, [pc, #12]	@ (80037b8 <HAL_ICACHE_Enable+0x10>)
 80037aa:	2000      	movs	r0, #0
 80037ac:	6813      	ldr	r3, [r2, #0]
 80037ae:	f043 0301 	orr.w	r3, r3, #1
 80037b2:	6013      	str	r3, [r2, #0]
 80037b4:	4770      	bx	lr
 80037b6:	bf00      	nop
 80037b8:	40030400 	.word	0x40030400

080037bc <HAL_PWREx_ControlVoltageScaling>:
 80037bc:	4b1d      	ldr	r3, [pc, #116]	@ (8003834 <HAL_PWREx_ControlVoltageScaling+0x78>)
 80037be:	6bda      	ldr	r2, [r3, #60]	@ 0x3c
 80037c0:	f402 3240 	and.w	r2, r2, #196608	@ 0x30000
 80037c4:	4282      	cmp	r2, r0
 80037c6:	d108      	bne.n	80037da <HAL_PWREx_ControlVoltageScaling+0x1e>
 80037c8:	f5b2 3f80 	cmp.w	r2, #65536	@ 0x10000
 80037cc:	d903      	bls.n	80037d6 <HAL_PWREx_ControlVoltageScaling+0x1a>
 80037ce:	68da      	ldr	r2, [r3, #12]
 80037d0:	f442 2280 	orr.w	r2, r2, #262144	@ 0x40000
 80037d4:	60da      	str	r2, [r3, #12]
 80037d6:	2000      	movs	r0, #0
 80037d8:	4770      	bx	lr
 80037da:	68da      	ldr	r2, [r3, #12]
 80037dc:	f5b0 3f80 	cmp.w	r0, #65536	@ 0x10000
 80037e0:	f422 22e0 	bic.w	r2, r2, #458752	@ 0x70000
 80037e4:	ea42 0200 	orr.w	r2, r2, r0
 80037e8:	bf88      	it	hi
 80037ea:	f442 2280 	orrhi.w	r2, r2, #262144	@ 0x40000
 80037ee:	60da      	str	r2, [r3, #12]
 80037f0:	f44f 727a 	mov.w	r2, #1000	@ 0x3e8
 80037f4:	4b10      	ldr	r3, [pc, #64]	@ (8003838 <HAL_PWREx_ControlVoltageScaling+0x7c>)
 80037f6:	2132      	movs	r1, #50	@ 0x32
 80037f8:	681b      	ldr	r3, [r3, #0]
 80037fa:	fbb3 f3f2 	udiv	r3, r3, r2
 80037fe:	434b      	muls	r3, r1
 8003800:	fbb3 f3f2 	udiv	r3, r3, r2
 8003804:	3301      	adds	r3, #1
 8003806:	461a      	mov	r2, r3
 8003808:	490a      	ldr	r1, [pc, #40]	@ (8003834 <HAL_PWREx_ControlVoltageScaling+0x78>)
 800380a:	68c8      	ldr	r0, [r1, #12]
 800380c:	0400      	lsls	r0, r0, #16
 800380e:	d404      	bmi.n	800381a <HAL_PWREx_ControlVoltageScaling+0x5e>
 8003810:	b90a      	cbnz	r2, 8003816 <HAL_PWREx_ControlVoltageScaling+0x5a>
 8003812:	2003      	movs	r0, #3
 8003814:	4770      	bx	lr
 8003816:	3a01      	subs	r2, #1
 8003818:	e7f7      	b.n	800380a <HAL_PWREx_ControlVoltageScaling+0x4e>
 800381a:	2a00      	cmp	r2, #0
 800381c:	d0f9      	beq.n	8003812 <HAL_PWREx_ControlVoltageScaling+0x56>
 800381e:	4a05      	ldr	r2, [pc, #20]	@ (8003834 <HAL_PWREx_ControlVoltageScaling+0x78>)
 8003820:	6bd1      	ldr	r1, [r2, #60]	@ 0x3c
 8003822:	0409      	lsls	r1, r1, #16
 8003824:	d403      	bmi.n	800382e <HAL_PWREx_ControlVoltageScaling+0x72>
 8003826:	2b00      	cmp	r3, #0
 8003828:	d0f3      	beq.n	8003812 <HAL_PWREx_ControlVoltageScaling+0x56>
 800382a:	3b01      	subs	r3, #1
 800382c:	e7f8      	b.n	8003820 <HAL_PWREx_ControlVoltageScaling+0x64>
 800382e:	2b00      	cmp	r3, #0
 8003830:	d1d1      	bne.n	80037d6 <HAL_PWREx_ControlVoltageScaling+0x1a>
 8003832:	e7ee      	b.n	8003812 <HAL_PWREx_ControlVoltageScaling+0x56>
 8003834:	46020800 	.word	0x46020800
 8003838:	2000000c 	.word	0x2000000c

0800383c <HAL_PWREx_GetVoltageRange>:
 800383c:	4b02      	ldr	r3, [pc, #8]	@ (8003848 <HAL_PWREx_GetVoltageRange+0xc>)
 800383e:	6bd8      	ldr	r0, [r3, #60]	@ 0x3c
 8003840:	f400 3040 	and.w	r0, r0, #196608	@ 0x30000
 8003844:	4770      	bx	lr
 8003846:	bf00      	nop
 8003848:	46020800 	.word	0x46020800

0800384c <HAL_PWREx_ConfigSupply>:
 800384c:	f44f 727a 	mov.w	r2, #1000	@ 0x3e8
 8003850:	4b12      	ldr	r3, [pc, #72]	@ (800389c <HAL_PWREx_ConfigSupply+0x50>)
 8003852:	2132      	movs	r1, #50	@ 0x32
 8003854:	681b      	ldr	r3, [r3, #0]
 8003856:	fbb3 f3f2 	udiv	r3, r3, r2
 800385a:	434b      	muls	r3, r1
 800385c:	fbb3 f3f2 	udiv	r3, r3, r2
 8003860:	4a0f      	ldr	r2, [pc, #60]	@ (80038a0 <HAL_PWREx_ConfigSupply+0x54>)
 8003862:	3301      	adds	r3, #1
 8003864:	6891      	ldr	r1, [r2, #8]
 8003866:	b950      	cbnz	r0, 800387e <HAL_PWREx_ConfigSupply+0x32>
 8003868:	f021 0102 	bic.w	r1, r1, #2
 800386c:	6091      	str	r1, [r2, #8]
 800386e:	6bd1      	ldr	r1, [r2, #60]	@ 0x3c
 8003870:	0788      	lsls	r0, r1, #30
 8003872:	d50e      	bpl.n	8003892 <HAL_PWREx_ConfigSupply+0x46>
 8003874:	b90b      	cbnz	r3, 800387a <HAL_PWREx_ConfigSupply+0x2e>
 8003876:	2003      	movs	r0, #3
 8003878:	4770      	bx	lr
 800387a:	3b01      	subs	r3, #1
 800387c:	e7f7      	b.n	800386e <HAL_PWREx_ConfigSupply+0x22>
 800387e:	f041 0102 	orr.w	r1, r1, #2
 8003882:	6091      	str	r1, [r2, #8]
 8003884:	6bd1      	ldr	r1, [r2, #60]	@ 0x3c
 8003886:	0789      	lsls	r1, r1, #30
 8003888:	d403      	bmi.n	8003892 <HAL_PWREx_ConfigSupply+0x46>
 800388a:	2b00      	cmp	r3, #0
 800388c:	d0f3      	beq.n	8003876 <HAL_PWREx_ConfigSupply+0x2a>
 800388e:	3b01      	subs	r3, #1
 8003890:	e7f8      	b.n	8003884 <HAL_PWREx_ConfigSupply+0x38>
 8003892:	2b00      	cmp	r3, #0
 8003894:	d0ef      	beq.n	8003876 <HAL_PWREx_ConfigSupply+0x2a>
 8003896:	2000      	movs	r0, #0
 8003898:	4770      	bx	lr
 800389a:	bf00      	nop
 800389c:	2000000c 	.word	0x2000000c
 80038a0:	46020800 	.word	0x46020800

080038a4 <HAL_PWREx_EnableVddIO2>:
 80038a4:	4a02      	ldr	r2, [pc, #8]	@ (80038b0 <HAL_PWREx_EnableVddIO2+0xc>)
 80038a6:	6913      	ldr	r3, [r2, #16]
 80038a8:	f043 5300 	orr.w	r3, r3, #536870912	@ 0x20000000
 80038ac:	6113      	str	r3, [r2, #16]
 80038ae:	4770      	bx	lr
 80038b0:	46020800 	.word	0x46020800

080038b4 <HAL_PWREx_DisableUCPDDeadBattery>:
 80038b4:	4a02      	ldr	r2, [pc, #8]	@ (80038c0 <HAL_PWREx_DisableUCPDDeadBattery+0xc>)
 80038b6:	6ad3      	ldr	r3, [r2, #44]	@ 0x2c
 80038b8:	f043 0301 	orr.w	r3, r3, #1
 80038bc:	62d3      	str	r3, [r2, #44]	@ 0x2c
 80038be:	4770      	bx	lr
 80038c0:	46020800 	.word	0x46020800

080038c4 <RCC_SetFlashLatencyFromMSIRange>:
 80038c4:	b537      	push	{r0, r1, r2, r4, r5, lr}
 80038c6:	4d2b      	ldr	r5, [pc, #172]	@ (8003974 <RCC_SetFlashLatencyFromMSIRange+0xb0>)
 80038c8:	4604      	mov	r4, r0
 80038ca:	f8d5 3094 	ldr.w	r3, [r5, #148]	@ 0x94
 80038ce:	075b      	lsls	r3, r3, #29
 80038d0:	d518      	bpl.n	8003904 <RCC_SetFlashLatencyFromMSIRange+0x40>
 80038d2:	f7ff ffb3 	bl	800383c <HAL_PWREx_GetVoltageRange>
 80038d6:	f420 3380 	bic.w	r3, r0, #65536	@ 0x10000
 80038da:	f5b3 3f00 	cmp.w	r3, #131072	@ 0x20000
 80038de:	d126      	bne.n	800392e <RCC_SetFlashLatencyFromMSIRange+0x6a>
 80038e0:	f1b4 5f80 	cmp.w	r4, #268435456	@ 0x10000000
 80038e4:	bf2c      	ite	cs
 80038e6:	2000      	movcs	r0, #0
 80038e8:	2001      	movcc	r0, #1
 80038ea:	4a23      	ldr	r2, [pc, #140]	@ (8003978 <RCC_SetFlashLatencyFromMSIRange+0xb4>)
 80038ec:	6813      	ldr	r3, [r2, #0]
 80038ee:	f023 030f 	bic.w	r3, r3, #15
 80038f2:	4303      	orrs	r3, r0
 80038f4:	6013      	str	r3, [r2, #0]
 80038f6:	6813      	ldr	r3, [r2, #0]
 80038f8:	f003 030f 	and.w	r3, r3, #15
 80038fc:	1a18      	subs	r0, r3, r0
 80038fe:	bf18      	it	ne
 8003900:	2001      	movne	r0, #1
 8003902:	e01b      	b.n	800393c <RCC_SetFlashLatencyFromMSIRange+0x78>
 8003904:	f8d5 3094 	ldr.w	r3, [r5, #148]	@ 0x94
 8003908:	f043 0304 	orr.w	r3, r3, #4
 800390c:	f8c5 3094 	str.w	r3, [r5, #148]	@ 0x94
 8003910:	f8d5 3094 	ldr.w	r3, [r5, #148]	@ 0x94
 8003914:	f003 0304 	and.w	r3, r3, #4
 8003918:	9301      	str	r3, [sp, #4]
 800391a:	9b01      	ldr	r3, [sp, #4]
 800391c:	f7ff ff8e 	bl	800383c <HAL_PWREx_GetVoltageRange>
 8003920:	f8d5 3094 	ldr.w	r3, [r5, #148]	@ 0x94
 8003924:	f023 0304 	bic.w	r3, r3, #4
 8003928:	f8c5 3094 	str.w	r3, [r5, #148]	@ 0x94
 800392c:	e7d3      	b.n	80038d6 <RCC_SetFlashLatencyFromMSIRange+0x12>
 800392e:	f1b4 5f80 	cmp.w	r4, #268435456	@ 0x10000000
 8003932:	d205      	bcs.n	8003940 <RCC_SetFlashLatencyFromMSIRange+0x7c>
 8003934:	f5b0 3f80 	cmp.w	r0, #65536	@ 0x10000
 8003938:	d015      	beq.n	8003966 <RCC_SetFlashLatencyFromMSIRange+0xa2>
 800393a:	2001      	movs	r0, #1
 800393c:	b003      	add	sp, #12
 800393e:	bd30      	pop	{r4, r5, pc}
 8003940:	f1b4 5f00 	cmp.w	r4, #536870912	@ 0x20000000
 8003944:	d906      	bls.n	8003954 <RCC_SetFlashLatencyFromMSIRange+0x90>
 8003946:	b980      	cbnz	r0, 800396a <RCC_SetFlashLatencyFromMSIRange+0xa6>
 8003948:	f1b4 5f40 	cmp.w	r4, #805306368	@ 0x30000000
 800394c:	bf8c      	ite	hi
 800394e:	2000      	movhi	r0, #0
 8003950:	2001      	movls	r0, #1
 8003952:	e7ca      	b.n	80038ea <RCC_SetFlashLatencyFromMSIRange+0x26>
 8003954:	f1b4 5f80 	cmp.w	r4, #268435456	@ 0x10000000
 8003958:	d109      	bne.n	800396e <RCC_SetFlashLatencyFromMSIRange+0xaa>
 800395a:	f5b0 3f80 	cmp.w	r0, #65536	@ 0x10000
 800395e:	bf14      	ite	ne
 8003960:	2002      	movne	r0, #2
 8003962:	2001      	moveq	r0, #1
 8003964:	e7c1      	b.n	80038ea <RCC_SetFlashLatencyFromMSIRange+0x26>
 8003966:	2003      	movs	r0, #3
 8003968:	e7bf      	b.n	80038ea <RCC_SetFlashLatencyFromMSIRange+0x26>
 800396a:	2000      	movs	r0, #0
 800396c:	e7bd      	b.n	80038ea <RCC_SetFlashLatencyFromMSIRange+0x26>
 800396e:	2001      	movs	r0, #1
 8003970:	e7bb      	b.n	80038ea <RCC_SetFlashLatencyFromMSIRange+0x26>
 8003972:	bf00      	nop
 8003974:	46020c00 	.word	0x46020c00
 8003978:	40022000 	.word	0x40022000

0800397c <HAL_RCC_GetSysClockFreq>:
 800397c:	4a40      	ldr	r2, [pc, #256]	@ (8003a80 <HAL_RCC_GetSysClockFreq+0x104>)
 800397e:	b510      	push	{r4, lr}
 8003980:	69d3      	ldr	r3, [r2, #28]
 8003982:	6a91      	ldr	r1, [r2, #40]	@ 0x28
 8003984:	f013 030c 	ands.w	r3, r3, #12
 8003988:	d005      	beq.n	8003996 <HAL_RCC_GetSysClockFreq+0x1a>
 800398a:	2b0c      	cmp	r3, #12
 800398c:	d148      	bne.n	8003a20 <HAL_RCC_GetSysClockFreq+0xa4>
 800398e:	f001 0103 	and.w	r1, r1, #3
 8003992:	2901      	cmp	r1, #1
 8003994:	d144      	bne.n	8003a20 <HAL_RCC_GetSysClockFreq+0xa4>
 8003996:	6891      	ldr	r1, [r2, #8]
 8003998:	0209      	lsls	r1, r1, #8
 800399a:	bf54      	ite	pl
 800399c:	f8d2 20f4 	ldrpl.w	r2, [r2, #244]	@ 0xf4
 80039a0:	6892      	ldrmi	r2, [r2, #8]
 80039a2:	4938      	ldr	r1, [pc, #224]	@ (8003a84 <HAL_RCC_GetSysClockFreq+0x108>)
 80039a4:	bf54      	ite	pl
 80039a6:	f3c2 3203 	ubfxpl	r2, r2, #12, #4
 80039aa:	0f12      	lsrmi	r2, r2, #28
 80039ac:	f851 2022 	ldr.w	r2, [r1, r2, lsl #2]
 80039b0:	2b00      	cmp	r3, #0
 80039b2:	d063      	beq.n	8003a7c <HAL_RCC_GetSysClockFreq+0x100>
 80039b4:	2000      	movs	r0, #0
 80039b6:	2b0c      	cmp	r3, #12
 80039b8:	d15e      	bne.n	8003a78 <HAL_RCC_GetSysClockFreq+0xfc>
 80039ba:	4931      	ldr	r1, [pc, #196]	@ (8003a80 <HAL_RCC_GetSysClockFreq+0x104>)
 80039bc:	eddf 5a32 	vldr	s11, [pc, #200]	@ 8003a88 <HAL_RCC_GetSysClockFreq+0x10c>
 80039c0:	6a88      	ldr	r0, [r1, #40]	@ 0x28
 80039c2:	6a8b      	ldr	r3, [r1, #40]	@ 0x28
 80039c4:	6a8c      	ldr	r4, [r1, #40]	@ 0x28
 80039c6:	f3c3 2303 	ubfx	r3, r3, #8, #4
 80039ca:	3301      	adds	r3, #1
 80039cc:	ee07 3a90 	vmov	s15, r3
 80039d0:	6b8b      	ldr	r3, [r1, #56]	@ 0x38
 80039d2:	f3c4 1400 	ubfx	r4, r4, #4, #1
 80039d6:	f3c3 03cc 	ubfx	r3, r3, #3, #13
 80039da:	4363      	muls	r3, r4
 80039dc:	ee07 3a10 	vmov	s14, r3
 80039e0:	f000 0003 	and.w	r0, r0, #3
 80039e4:	2802      	cmp	r0, #2
 80039e6:	eeb8 7ac7 	vcvt.f32.s32	s14, s14
 80039ea:	eef8 7ae7 	vcvt.f32.s32	s15, s15
 80039ee:	eeb7 6a00 	vmov.f32	s12, #112	@ 0x3f800000  1.0
 80039f2:	d021      	beq.n	8003a38 <HAL_RCC_GetSysClockFreq+0xbc>
 80039f4:	2803      	cmp	r0, #3
 80039f6:	d01f      	beq.n	8003a38 <HAL_RCC_GetSysClockFreq+0xbc>
 80039f8:	ee06 2a90 	vmov	s13, r2
 80039fc:	eef8 6a66 	vcvt.f32.u32	s13, s13
 8003a00:	6b4b      	ldr	r3, [r1, #52]	@ 0x34
 8003a02:	ee86 5aa7 	vdiv.f32	s10, s13, s15
 8003a06:	f3c3 0308 	ubfx	r3, r3, #0, #9
 8003a0a:	ee07 3a90 	vmov	s15, r3
 8003a0e:	eef8 7ae7 	vcvt.f32.s32	s15, s15
 8003a12:	eee7 7a25 	vfma.f32	s15, s14, s11
 8003a16:	ee77 7a86 	vadd.f32	s15, s15, s12
 8003a1a:	ee67 7a85 	vmul.f32	s15, s15, s10
 8003a1e:	e01c      	b.n	8003a5a <HAL_RCC_GetSysClockFreq+0xde>
 8003a20:	69d2      	ldr	r2, [r2, #28]
 8003a22:	f002 020c 	and.w	r2, r2, #12
 8003a26:	2a04      	cmp	r2, #4
 8003a28:	d004      	beq.n	8003a34 <HAL_RCC_GetSysClockFreq+0xb8>
 8003a2a:	2b08      	cmp	r3, #8
 8003a2c:	d025      	beq.n	8003a7a <HAL_RCC_GetSysClockFreq+0xfe>
 8003a2e:	2000      	movs	r0, #0
 8003a30:	2200      	movs	r2, #0
 8003a32:	e7c0      	b.n	80039b6 <HAL_RCC_GetSysClockFreq+0x3a>
 8003a34:	4815      	ldr	r0, [pc, #84]	@ (8003a8c <HAL_RCC_GetSysClockFreq+0x110>)
 8003a36:	e7fb      	b.n	8003a30 <HAL_RCC_GetSysClockFreq+0xb4>
 8003a38:	ed9f 5a15 	vldr	s10, [pc, #84]	@ 8003a90 <HAL_RCC_GetSysClockFreq+0x114>
 8003a3c:	6b4b      	ldr	r3, [r1, #52]	@ 0x34
 8003a3e:	eec5 6a27 	vdiv.f32	s13, s10, s15
 8003a42:	f3c3 0308 	ubfx	r3, r3, #0, #9
 8003a46:	ee07 3a90 	vmov	s15, r3
 8003a4a:	eef8 7ae7 	vcvt.f32.s32	s15, s15
 8003a4e:	eee7 7a25 	vfma.f32	s15, s14, s11
 8003a52:	ee77 7a86 	vadd.f32	s15, s15, s12
 8003a56:	ee67 7aa6 	vmul.f32	s15, s15, s13
 8003a5a:	4b09      	ldr	r3, [pc, #36]	@ (8003a80 <HAL_RCC_GetSysClockFreq+0x104>)
 8003a5c:	6b5b      	ldr	r3, [r3, #52]	@ 0x34
 8003a5e:	f3c3 6306 	ubfx	r3, r3, #24, #7
 8003a62:	3301      	adds	r3, #1
 8003a64:	ee07 3a10 	vmov	s14, r3
 8003a68:	eef8 6ac7 	vcvt.f32.s32	s13, s14
 8003a6c:	ee87 7aa6 	vdiv.f32	s14, s15, s13
 8003a70:	eefc 7ac7 	vcvt.u32.f32	s15, s14
 8003a74:	ee17 0a90 	vmov	r0, s15
 8003a78:	bd10      	pop	{r4, pc}
 8003a7a:	4a04      	ldr	r2, [pc, #16]	@ (8003a8c <HAL_RCC_GetSysClockFreq+0x110>)
 8003a7c:	4610      	mov	r0, r2
 8003a7e:	e7fb      	b.n	8003a78 <HAL_RCC_GetSysClockFreq+0xfc>
 8003a80:	46020c00 	.word	0x46020c00
 8003a84:	080093b8 	.word	0x080093b8
 8003a88:	39000000 	.word	0x39000000
 8003a8c:	00f42400 	.word	0x00f42400
 8003a90:	4b742400 	.word	0x4b742400

08003a94 <HAL_RCC_ClockConfig>:
 8003a94:	e92d 41f3 	stmdb	sp!, {r0, r1, r4, r5, r6, r7, r8, lr}
 8003a98:	460d      	mov	r5, r1
 8003a9a:	4604      	mov	r4, r0
 8003a9c:	b918      	cbnz	r0, 8003aa6 <HAL_RCC_ClockConfig+0x12>
 8003a9e:	2001      	movs	r0, #1
 8003aa0:	b002      	add	sp, #8
 8003aa2:	e8bd 81f0 	ldmia.w	sp!, {r4, r5, r6, r7, r8, pc}
 8003aa6:	4a9c      	ldr	r2, [pc, #624]	@ (8003d18 <HAL_RCC_ClockConfig+0x284>)
 8003aa8:	6813      	ldr	r3, [r2, #0]
 8003aaa:	f003 030f 	and.w	r3, r3, #15
 8003aae:	428b      	cmp	r3, r1
 8003ab0:	d36e      	bcc.n	8003b90 <HAL_RCC_ClockConfig+0xfc>
 8003ab2:	6823      	ldr	r3, [r4, #0]
 8003ab4:	06d8      	lsls	r0, r3, #27
 8003ab6:	d477      	bmi.n	8003ba8 <HAL_RCC_ClockConfig+0x114>
 8003ab8:	0719      	lsls	r1, r3, #28
 8003aba:	d50d      	bpl.n	8003ad8 <HAL_RCC_ClockConfig+0x44>
 8003abc:	4997      	ldr	r1, [pc, #604]	@ (8003d1c <HAL_RCC_ClockConfig+0x288>)
 8003abe:	6920      	ldr	r0, [r4, #16]
 8003ac0:	6a0a      	ldr	r2, [r1, #32]
 8003ac2:	0912      	lsrs	r2, r2, #4
 8003ac4:	f002 0270 	and.w	r2, r2, #112	@ 0x70
 8003ac8:	4290      	cmp	r0, r2
 8003aca:	bf81      	itttt	hi
 8003acc:	6a0a      	ldrhi	r2, [r1, #32]
 8003ace:	f422 62e0 	bichi.w	r2, r2, #1792	@ 0x700
 8003ad2:	ea42 1200 	orrhi.w	r2, r2, r0, lsl #4
 8003ad6:	620a      	strhi	r2, [r1, #32]
 8003ad8:	075a      	lsls	r2, r3, #29
 8003ada:	d50b      	bpl.n	8003af4 <HAL_RCC_ClockConfig+0x60>
 8003adc:	498f      	ldr	r1, [pc, #572]	@ (8003d1c <HAL_RCC_ClockConfig+0x288>)
 8003ade:	68e0      	ldr	r0, [r4, #12]
 8003ae0:	6a0a      	ldr	r2, [r1, #32]
 8003ae2:	f002 0270 	and.w	r2, r2, #112	@ 0x70
 8003ae6:	4290      	cmp	r0, r2
 8003ae8:	bf81      	itttt	hi
 8003aea:	6a0a      	ldrhi	r2, [r1, #32]
 8003aec:	f022 0270 	bichi.w	r2, r2, #112	@ 0x70
 8003af0:	4302      	orrhi	r2, r0
 8003af2:	620a      	strhi	r2, [r1, #32]
 8003af4:	079f      	lsls	r7, r3, #30
 8003af6:	d50b      	bpl.n	8003b10 <HAL_RCC_ClockConfig+0x7c>
 8003af8:	4988      	ldr	r1, [pc, #544]	@ (8003d1c <HAL_RCC_ClockConfig+0x288>)
 8003afa:	68a0      	ldr	r0, [r4, #8]
 8003afc:	6a0a      	ldr	r2, [r1, #32]
 8003afe:	f002 020f 	and.w	r2, r2, #15
 8003b02:	4290      	cmp	r0, r2
 8003b04:	bf81      	itttt	hi
 8003b06:	6a0a      	ldrhi	r2, [r1, #32]
 8003b08:	f022 020f 	bichi.w	r2, r2, #15
 8003b0c:	4302      	orrhi	r2, r0
 8003b0e:	620a      	strhi	r2, [r1, #32]
 8003b10:	07de      	lsls	r6, r3, #31
 8003b12:	d456      	bmi.n	8003bc2 <HAL_RCC_ClockConfig+0x12e>
 8003b14:	6822      	ldr	r2, [r4, #0]
 8003b16:	0790      	lsls	r0, r2, #30
 8003b18:	f100 80d8 	bmi.w	8003ccc <HAL_RCC_ClockConfig+0x238>
 8003b1c:	497e      	ldr	r1, [pc, #504]	@ (8003d18 <HAL_RCC_ClockConfig+0x284>)
 8003b1e:	680b      	ldr	r3, [r1, #0]
 8003b20:	f003 030f 	and.w	r3, r3, #15
 8003b24:	42ab      	cmp	r3, r5
 8003b26:	f200 80de 	bhi.w	8003ce6 <HAL_RCC_ClockConfig+0x252>
 8003b2a:	0750      	lsls	r0, r2, #29
 8003b2c:	f100 80e7 	bmi.w	8003cfe <HAL_RCC_ClockConfig+0x26a>
 8003b30:	0711      	lsls	r1, r2, #28
 8003b32:	d50d      	bpl.n	8003b50 <HAL_RCC_ClockConfig+0xbc>
 8003b34:	4979      	ldr	r1, [pc, #484]	@ (8003d1c <HAL_RCC_ClockConfig+0x288>)
 8003b36:	6920      	ldr	r0, [r4, #16]
 8003b38:	6a0b      	ldr	r3, [r1, #32]
 8003b3a:	091b      	lsrs	r3, r3, #4
 8003b3c:	f003 0370 	and.w	r3, r3, #112	@ 0x70
 8003b40:	4298      	cmp	r0, r3
 8003b42:	bf3f      	itttt	cc
 8003b44:	6a0b      	ldrcc	r3, [r1, #32]
 8003b46:	f423 63e0 	biccc.w	r3, r3, #1792	@ 0x700
 8003b4a:	ea43 1300 	orrcc.w	r3, r3, r0, lsl #4
 8003b4e:	620b      	strcc	r3, [r1, #32]
 8003b50:	06d3      	lsls	r3, r2, #27
 8003b52:	d50b      	bpl.n	8003b6c <HAL_RCC_ClockConfig+0xd8>
 8003b54:	4a71      	ldr	r2, [pc, #452]	@ (8003d1c <HAL_RCC_ClockConfig+0x288>)
 8003b56:	6961      	ldr	r1, [r4, #20]
 8003b58:	6a53      	ldr	r3, [r2, #36]	@ 0x24
 8003b5a:	f003 0370 	and.w	r3, r3, #112	@ 0x70
 8003b5e:	4299      	cmp	r1, r3
 8003b60:	bf3f      	itttt	cc
 8003b62:	6a53      	ldrcc	r3, [r2, #36]	@ 0x24
 8003b64:	f023 0370 	biccc.w	r3, r3, #112	@ 0x70
 8003b68:	430b      	orrcc	r3, r1
 8003b6a:	6253      	strcc	r3, [r2, #36]	@ 0x24
 8003b6c:	f7ff ff06 	bl	800397c <HAL_RCC_GetSysClockFreq>
 8003b70:	4b6a      	ldr	r3, [pc, #424]	@ (8003d1c <HAL_RCC_ClockConfig+0x288>)
 8003b72:	4a6b      	ldr	r2, [pc, #428]	@ (8003d20 <HAL_RCC_ClockConfig+0x28c>)
 8003b74:	6a1b      	ldr	r3, [r3, #32]
 8003b76:	f003 030f 	and.w	r3, r3, #15
 8003b7a:	5cd3      	ldrb	r3, [r2, r3]
 8003b7c:	40d8      	lsrs	r0, r3
 8003b7e:	4b69      	ldr	r3, [pc, #420]	@ (8003d24 <HAL_RCC_ClockConfig+0x290>)
 8003b80:	6018      	str	r0, [r3, #0]
 8003b82:	4b69      	ldr	r3, [pc, #420]	@ (8003d28 <HAL_RCC_ClockConfig+0x294>)
 8003b84:	6818      	ldr	r0, [r3, #0]
 8003b86:	b002      	add	sp, #8
 8003b88:	e8bd 41f0 	ldmia.w	sp!, {r4, r5, r6, r7, r8, lr}
 8003b8c:	f7ff b806 	b.w	8002b9c <HAL_InitTick>
 8003b90:	6813      	ldr	r3, [r2, #0]
 8003b92:	f023 030f 	bic.w	r3, r3, #15
 8003b96:	430b      	orrs	r3, r1
 8003b98:	6013      	str	r3, [r2, #0]
 8003b9a:	6813      	ldr	r3, [r2, #0]
 8003b9c:	f003 030f 	and.w	r3, r3, #15
 8003ba0:	428b      	cmp	r3, r1
 8003ba2:	f47f af7c 	bne.w	8003a9e <HAL_RCC_ClockConfig+0xa>
 8003ba6:	e784      	b.n	8003ab2 <HAL_RCC_ClockConfig+0x1e>
 8003ba8:	495c      	ldr	r1, [pc, #368]	@ (8003d1c <HAL_RCC_ClockConfig+0x288>)
 8003baa:	6960      	ldr	r0, [r4, #20]
 8003bac:	6a4a      	ldr	r2, [r1, #36]	@ 0x24
 8003bae:	f002 0270 	and.w	r2, r2, #112	@ 0x70
 8003bb2:	4290      	cmp	r0, r2
 8003bb4:	bf81      	itttt	hi
 8003bb6:	6a4a      	ldrhi	r2, [r1, #36]	@ 0x24
 8003bb8:	f022 0270 	bichi.w	r2, r2, #112	@ 0x70
 8003bbc:	4302      	orrhi	r2, r0
 8003bbe:	624a      	strhi	r2, [r1, #36]	@ 0x24
 8003bc0:	e77a      	b.n	8003ab8 <HAL_RCC_ClockConfig+0x24>
 8003bc2:	6862      	ldr	r2, [r4, #4]
 8003bc4:	4b55      	ldr	r3, [pc, #340]	@ (8003d1c <HAL_RCC_ClockConfig+0x288>)
 8003bc6:	2a03      	cmp	r2, #3
 8003bc8:	d14e      	bne.n	8003c68 <HAL_RCC_ClockConfig+0x1d4>
 8003bca:	f8d3 2094 	ldr.w	r2, [r3, #148]	@ 0x94
 8003bce:	0751      	lsls	r1, r2, #29
 8003bd0:	d43d      	bmi.n	8003c4e <HAL_RCC_ClockConfig+0x1ba>
 8003bd2:	2701      	movs	r7, #1
 8003bd4:	f8d3 2094 	ldr.w	r2, [r3, #148]	@ 0x94
 8003bd8:	f042 0204 	orr.w	r2, r2, #4
 8003bdc:	f8c3 2094 	str.w	r2, [r3, #148]	@ 0x94
 8003be0:	f8d3 3094 	ldr.w	r3, [r3, #148]	@ 0x94
 8003be4:	f003 0304 	and.w	r3, r3, #4
 8003be8:	9301      	str	r3, [sp, #4]
 8003bea:	9b01      	ldr	r3, [sp, #4]
 8003bec:	f7ff f854 	bl	8002c98 <HAL_GetTick>
 8003bf0:	f8df 8138 	ldr.w	r8, [pc, #312]	@ 8003d2c <HAL_RCC_ClockConfig+0x298>
 8003bf4:	4606      	mov	r6, r0
 8003bf6:	f8d8 300c 	ldr.w	r3, [r8, #12]
 8003bfa:	035a      	lsls	r2, r3, #13
 8003bfc:	d429      	bmi.n	8003c52 <HAL_RCC_ClockConfig+0x1be>
 8003bfe:	4b47      	ldr	r3, [pc, #284]	@ (8003d1c <HAL_RCC_ClockConfig+0x288>)
 8003c00:	b12f      	cbz	r7, 8003c0e <HAL_RCC_ClockConfig+0x17a>
 8003c02:	f8d3 2094 	ldr.w	r2, [r3, #148]	@ 0x94
 8003c06:	f022 0204 	bic.w	r2, r2, #4
 8003c0a:	f8c3 2094 	str.w	r2, [r3, #148]	@ 0x94
 8003c0e:	681b      	ldr	r3, [r3, #0]
 8003c10:	f013 7f00 	tst.w	r3, #33554432	@ 0x2000000
 8003c14:	f43f af43 	beq.w	8003a9e <HAL_RCC_ClockConfig+0xa>
 8003c18:	4e40      	ldr	r6, [pc, #256]	@ (8003d1c <HAL_RCC_ClockConfig+0x288>)
 8003c1a:	6862      	ldr	r2, [r4, #4]
 8003c1c:	69f3      	ldr	r3, [r6, #28]
 8003c1e:	f241 3888 	movw	r8, #5000	@ 0x1388
 8003c22:	f023 0303 	bic.w	r3, r3, #3
 8003c26:	4313      	orrs	r3, r2
 8003c28:	61f3      	str	r3, [r6, #28]
 8003c2a:	f7ff f835 	bl	8002c98 <HAL_GetTick>
 8003c2e:	6863      	ldr	r3, [r4, #4]
 8003c30:	4607      	mov	r7, r0
 8003c32:	2b03      	cmp	r3, #3
 8003c34:	d125      	bne.n	8003c82 <HAL_RCC_ClockConfig+0x1ee>
 8003c36:	69f3      	ldr	r3, [r6, #28]
 8003c38:	f003 030c 	and.w	r3, r3, #12
 8003c3c:	2b0c      	cmp	r3, #12
 8003c3e:	f43f af69 	beq.w	8003b14 <HAL_RCC_ClockConfig+0x80>
 8003c42:	f7ff f829 	bl	8002c98 <HAL_GetTick>
 8003c46:	1bc0      	subs	r0, r0, r7
 8003c48:	4540      	cmp	r0, r8
 8003c4a:	d9f4      	bls.n	8003c36 <HAL_RCC_ClockConfig+0x1a2>
 8003c4c:	e00a      	b.n	8003c64 <HAL_RCC_ClockConfig+0x1d0>
 8003c4e:	2700      	movs	r7, #0
 8003c50:	e7cc      	b.n	8003bec <HAL_RCC_ClockConfig+0x158>
 8003c52:	f8d8 300c 	ldr.w	r3, [r8, #12]
 8003c56:	045b      	lsls	r3, r3, #17
 8003c58:	d4d1      	bmi.n	8003bfe <HAL_RCC_ClockConfig+0x16a>
 8003c5a:	f7ff f81d 	bl	8002c98 <HAL_GetTick>
 8003c5e:	1b80      	subs	r0, r0, r6
 8003c60:	2802      	cmp	r0, #2
 8003c62:	d9f6      	bls.n	8003c52 <HAL_RCC_ClockConfig+0x1be>
 8003c64:	2003      	movs	r0, #3
 8003c66:	e71b      	b.n	8003aa0 <HAL_RCC_ClockConfig+0xc>
 8003c68:	2a02      	cmp	r2, #2
 8003c6a:	681b      	ldr	r3, [r3, #0]
 8003c6c:	d102      	bne.n	8003c74 <HAL_RCC_ClockConfig+0x1e0>
 8003c6e:	f413 3f00 	tst.w	r3, #131072	@ 0x20000
 8003c72:	e7cf      	b.n	8003c14 <HAL_RCC_ClockConfig+0x180>
 8003c74:	b912      	cbnz	r2, 8003c7c <HAL_RCC_ClockConfig+0x1e8>
 8003c76:	f013 0f04 	tst.w	r3, #4
 8003c7a:	e7cb      	b.n	8003c14 <HAL_RCC_ClockConfig+0x180>
 8003c7c:	f413 6f80 	tst.w	r3, #1024	@ 0x400
 8003c80:	e7c8      	b.n	8003c14 <HAL_RCC_ClockConfig+0x180>
 8003c82:	2b02      	cmp	r3, #2
 8003c84:	d10b      	bne.n	8003c9e <HAL_RCC_ClockConfig+0x20a>
 8003c86:	69f3      	ldr	r3, [r6, #28]
 8003c88:	f003 030c 	and.w	r3, r3, #12
 8003c8c:	2b08      	cmp	r3, #8
 8003c8e:	f43f af41 	beq.w	8003b14 <HAL_RCC_ClockConfig+0x80>
 8003c92:	f7ff f801 	bl	8002c98 <HAL_GetTick>
 8003c96:	1bc0      	subs	r0, r0, r7
 8003c98:	4540      	cmp	r0, r8
 8003c9a:	d9f4      	bls.n	8003c86 <HAL_RCC_ClockConfig+0x1f2>
 8003c9c:	e7e2      	b.n	8003c64 <HAL_RCC_ClockConfig+0x1d0>
 8003c9e:	b97b      	cbnz	r3, 8003cc0 <HAL_RCC_ClockConfig+0x22c>
 8003ca0:	69f3      	ldr	r3, [r6, #28]
 8003ca2:	f013 0f0c 	tst.w	r3, #12
 8003ca6:	f43f af35 	beq.w	8003b14 <HAL_RCC_ClockConfig+0x80>
 8003caa:	f7fe fff5 	bl	8002c98 <HAL_GetTick>
 8003cae:	1bc0      	subs	r0, r0, r7
 8003cb0:	4540      	cmp	r0, r8
 8003cb2:	d9f5      	bls.n	8003ca0 <HAL_RCC_ClockConfig+0x20c>
 8003cb4:	e7d6      	b.n	8003c64 <HAL_RCC_ClockConfig+0x1d0>
 8003cb6:	f7fe ffef 	bl	8002c98 <HAL_GetTick>
 8003cba:	1bc0      	subs	r0, r0, r7
 8003cbc:	4540      	cmp	r0, r8
 8003cbe:	d8d1      	bhi.n	8003c64 <HAL_RCC_ClockConfig+0x1d0>
 8003cc0:	69f3      	ldr	r3, [r6, #28]
 8003cc2:	f003 030c 	and.w	r3, r3, #12
 8003cc6:	2b04      	cmp	r3, #4
 8003cc8:	d1f5      	bne.n	8003cb6 <HAL_RCC_ClockConfig+0x222>
 8003cca:	e723      	b.n	8003b14 <HAL_RCC_ClockConfig+0x80>
 8003ccc:	4913      	ldr	r1, [pc, #76]	@ (8003d1c <HAL_RCC_ClockConfig+0x288>)
 8003cce:	68a0      	ldr	r0, [r4, #8]
 8003cd0:	6a0b      	ldr	r3, [r1, #32]
 8003cd2:	f003 030f 	and.w	r3, r3, #15
 8003cd6:	4298      	cmp	r0, r3
 8003cd8:	bf3f      	itttt	cc
 8003cda:	6a0b      	ldrcc	r3, [r1, #32]
 8003cdc:	f023 030f 	biccc.w	r3, r3, #15
 8003ce0:	4303      	orrcc	r3, r0
 8003ce2:	620b      	strcc	r3, [r1, #32]
 8003ce4:	e71a      	b.n	8003b1c <HAL_RCC_ClockConfig+0x88>
 8003ce6:	680b      	ldr	r3, [r1, #0]
 8003ce8:	f023 030f 	bic.w	r3, r3, #15
 8003cec:	432b      	orrs	r3, r5
 8003cee:	600b      	str	r3, [r1, #0]
 8003cf0:	680b      	ldr	r3, [r1, #0]
 8003cf2:	f003 030f 	and.w	r3, r3, #15
 8003cf6:	42ab      	cmp	r3, r5
 8003cf8:	f47f aed1 	bne.w	8003a9e <HAL_RCC_ClockConfig+0xa>
 8003cfc:	e715      	b.n	8003b2a <HAL_RCC_ClockConfig+0x96>
 8003cfe:	4907      	ldr	r1, [pc, #28]	@ (8003d1c <HAL_RCC_ClockConfig+0x288>)
 8003d00:	68e0      	ldr	r0, [r4, #12]
 8003d02:	6a0b      	ldr	r3, [r1, #32]
 8003d04:	f003 0370 	and.w	r3, r3, #112	@ 0x70
 8003d08:	4298      	cmp	r0, r3
 8003d0a:	bf3f      	itttt	cc
 8003d0c:	6a0b      	ldrcc	r3, [r1, #32]
 8003d0e:	f023 0370 	biccc.w	r3, r3, #112	@ 0x70
 8003d12:	4303      	orrcc	r3, r0
 8003d14:	620b      	strcc	r3, [r1, #32]
 8003d16:	e70b      	b.n	8003b30 <HAL_RCC_ClockConfig+0x9c>
 8003d18:	40022000 	.word	0x40022000
 8003d1c:	46020c00 	.word	0x46020c00
 8003d20:	08009400 	.word	0x08009400
 8003d24:	2000000c 	.word	0x2000000c
 8003d28:	20000014 	.word	0x20000014
 8003d2c:	46020800 	.word	0x46020800

08003d30 <HAL_RCC_GetHCLKFreq>:
 8003d30:	b508      	push	{r3, lr}
 8003d32:	f7ff fe23 	bl	800397c <HAL_RCC_GetSysClockFreq>
 8003d36:	4b05      	ldr	r3, [pc, #20]	@ (8003d4c <HAL_RCC_GetHCLKFreq+0x1c>)
 8003d38:	4a05      	ldr	r2, [pc, #20]	@ (8003d50 <HAL_RCC_GetHCLKFreq+0x20>)
 8003d3a:	6a1b      	ldr	r3, [r3, #32]
 8003d3c:	f003 030f 	and.w	r3, r3, #15
 8003d40:	5cd3      	ldrb	r3, [r2, r3]
 8003d42:	40d8      	lsrs	r0, r3
 8003d44:	4b03      	ldr	r3, [pc, #12]	@ (8003d54 <HAL_RCC_GetHCLKFreq+0x24>)
 8003d46:	6018      	str	r0, [r3, #0]
 8003d48:	bd08      	pop	{r3, pc}
 8003d4a:	bf00      	nop
 8003d4c:	46020c00 	.word	0x46020c00
 8003d50:	08009400 	.word	0x08009400
 8003d54:	2000000c 	.word	0x2000000c

08003d58 <HAL_RCC_OscConfig>:
 8003d58:	e92d 41ff 	stmdb	sp!, {r0, r1, r2, r3, r4, r5, r6, r7, r8, lr}
 8003d5c:	4604      	mov	r4, r0
 8003d5e:	2800      	cmp	r0, #0
 8003d60:	d039      	beq.n	8003dd6 <HAL_RCC_OscConfig+0x7e>
 8003d62:	4ba3      	ldr	r3, [pc, #652]	@ (8003ff0 <HAL_RCC_OscConfig+0x298>)
 8003d64:	69de      	ldr	r6, [r3, #28]
 8003d66:	6a9f      	ldr	r7, [r3, #40]	@ 0x28
 8003d68:	6803      	ldr	r3, [r0, #0]
 8003d6a:	f006 060c 	and.w	r6, r6, #12
 8003d6e:	06d8      	lsls	r0, r3, #27
 8003d70:	f007 0703 	and.w	r7, r7, #3
 8003d74:	f140 809a 	bpl.w	8003eac <HAL_RCC_OscConfig+0x154>
 8003d78:	69e3      	ldr	r3, [r4, #28]
 8003d7a:	b11e      	cbz	r6, 8003d84 <HAL_RCC_OscConfig+0x2c>
 8003d7c:	2e0c      	cmp	r6, #12
 8003d7e:	d175      	bne.n	8003e6c <HAL_RCC_OscConfig+0x114>
 8003d80:	2f01      	cmp	r7, #1
 8003d82:	d173      	bne.n	8003e6c <HAL_RCC_OscConfig+0x114>
 8003d84:	b33b      	cbz	r3, 8003dd6 <HAL_RCC_OscConfig+0x7e>
 8003d86:	4d9a      	ldr	r5, [pc, #616]	@ (8003ff0 <HAL_RCC_OscConfig+0x298>)
 8003d88:	6a60      	ldr	r0, [r4, #36]	@ 0x24
 8003d8a:	68ab      	ldr	r3, [r5, #8]
 8003d8c:	0219      	lsls	r1, r3, #8
 8003d8e:	bf56      	itet	pl
 8003d90:	f8d5 30f4 	ldrpl.w	r3, [r5, #244]	@ 0xf4
 8003d94:	68ab      	ldrmi	r3, [r5, #8]
 8003d96:	041b      	lslpl	r3, r3, #16
 8003d98:	f003 4370 	and.w	r3, r3, #4026531840	@ 0xf0000000
 8003d9c:	4298      	cmp	r0, r3
 8003d9e:	d938      	bls.n	8003e12 <HAL_RCC_OscConfig+0xba>
 8003da0:	b1ae      	cbz	r6, 8003dce <HAL_RCC_OscConfig+0x76>
 8003da2:	68ab      	ldr	r3, [r5, #8]
 8003da4:	f443 0300 	orr.w	r3, r3, #8388608	@ 0x800000
 8003da8:	60ab      	str	r3, [r5, #8]
 8003daa:	68ab      	ldr	r3, [r5, #8]
 8003dac:	6a61      	ldr	r1, [r4, #36]	@ 0x24
 8003dae:	f023 4370 	bic.w	r3, r3, #4026531840	@ 0xf0000000
 8003db2:	430b      	orrs	r3, r1
 8003db4:	60ab      	str	r3, [r5, #8]
 8003db6:	f1b1 4f40 	cmp.w	r1, #3221225472	@ 0xc0000000
 8003dba:	6a22      	ldr	r2, [r4, #32]
 8003dbc:	d20d      	bcs.n	8003dda <HAL_RCC_OscConfig+0x82>
 8003dbe:	2900      	cmp	r1, #0
 8003dc0:	68eb      	ldr	r3, [r5, #12]
 8003dc2:	da1a      	bge.n	8003dfa <HAL_RCC_OscConfig+0xa2>
 8003dc4:	f423 7378 	bic.w	r3, r3, #992	@ 0x3e0
 8003dc8:	ea43 1342 	orr.w	r3, r3, r2, lsl #5
 8003dcc:	e009      	b.n	8003de2 <HAL_RCC_OscConfig+0x8a>
 8003dce:	f7ff fd79 	bl	80038c4 <RCC_SetFlashLatencyFromMSIRange>
 8003dd2:	2800      	cmp	r0, #0
 8003dd4:	d0e5      	beq.n	8003da2 <HAL_RCC_OscConfig+0x4a>
 8003dd6:	2001      	movs	r0, #1
 8003dd8:	e00c      	b.n	8003df4 <HAL_RCC_OscConfig+0x9c>
 8003dda:	68eb      	ldr	r3, [r5, #12]
 8003ddc:	f023 031f 	bic.w	r3, r3, #31
 8003de0:	4313      	orrs	r3, r2
 8003de2:	60eb      	str	r3, [r5, #12]
 8003de4:	f7ff ffa4 	bl	8003d30 <HAL_RCC_GetHCLKFreq>
 8003de8:	4b82      	ldr	r3, [pc, #520]	@ (8003ff4 <HAL_RCC_OscConfig+0x29c>)
 8003dea:	6818      	ldr	r0, [r3, #0]
 8003dec:	f7fe fed6 	bl	8002b9c <HAL_InitTick>
 8003df0:	2800      	cmp	r0, #0
 8003df2:	d05b      	beq.n	8003eac <HAL_RCC_OscConfig+0x154>
 8003df4:	b004      	add	sp, #16
 8003df6:	e8bd 81f0 	ldmia.w	sp!, {r4, r5, r6, r7, r8, pc}
 8003dfa:	f1b1 4f80 	cmp.w	r1, #1073741824	@ 0x40000000
 8003dfe:	bf2b      	itete	cs
 8003e00:	f423 43f8 	biccs.w	r3, r3, #31744	@ 0x7c00
 8003e04:	f423 2378 	biccc.w	r3, r3, #1015808	@ 0xf8000
 8003e08:	ea43 2382 	orrcs.w	r3, r3, r2, lsl #10
 8003e0c:	ea43 33c2 	orrcc.w	r3, r3, r2, lsl #15
 8003e10:	e7e7      	b.n	8003de2 <HAL_RCC_OscConfig+0x8a>
 8003e12:	68ab      	ldr	r3, [r5, #8]
 8003e14:	f1b0 4f40 	cmp.w	r0, #3221225472	@ 0xc0000000
 8003e18:	f443 0300 	orr.w	r3, r3, #8388608	@ 0x800000
 8003e1c:	60ab      	str	r3, [r5, #8]
 8003e1e:	68ab      	ldr	r3, [r5, #8]
 8003e20:	f023 4370 	bic.w	r3, r3, #4026531840	@ 0xf0000000
 8003e24:	ea43 0300 	orr.w	r3, r3, r0
 8003e28:	60ab      	str	r3, [r5, #8]
 8003e2a:	6a22      	ldr	r2, [r4, #32]
 8003e2c:	68eb      	ldr	r3, [r5, #12]
 8003e2e:	d30a      	bcc.n	8003e46 <HAL_RCC_OscConfig+0xee>
 8003e30:	f023 031f 	bic.w	r3, r3, #31
 8003e34:	4313      	orrs	r3, r2
 8003e36:	60eb      	str	r3, [r5, #12]
 8003e38:	2e00      	cmp	r6, #0
 8003e3a:	d1d3      	bne.n	8003de4 <HAL_RCC_OscConfig+0x8c>
 8003e3c:	f7ff fd42 	bl	80038c4 <RCC_SetFlashLatencyFromMSIRange>
 8003e40:	2800      	cmp	r0, #0
 8003e42:	d0cf      	beq.n	8003de4 <HAL_RCC_OscConfig+0x8c>
 8003e44:	e7c7      	b.n	8003dd6 <HAL_RCC_OscConfig+0x7e>
 8003e46:	2800      	cmp	r0, #0
 8003e48:	da04      	bge.n	8003e54 <HAL_RCC_OscConfig+0xfc>
 8003e4a:	f423 7378 	bic.w	r3, r3, #992	@ 0x3e0
 8003e4e:	ea43 1342 	orr.w	r3, r3, r2, lsl #5
 8003e52:	e7f0      	b.n	8003e36 <HAL_RCC_OscConfig+0xde>
 8003e54:	f1b0 4f80 	cmp.w	r0, #1073741824	@ 0x40000000
 8003e58:	bf2b      	itete	cs
 8003e5a:	f423 43f8 	biccs.w	r3, r3, #31744	@ 0x7c00
 8003e5e:	f423 2378 	biccc.w	r3, r3, #1015808	@ 0xf8000
 8003e62:	ea43 2382 	orrcs.w	r3, r3, r2, lsl #10
 8003e66:	ea43 33c2 	orrcc.w	r3, r3, r2, lsl #15
 8003e6a:	e7e4      	b.n	8003e36 <HAL_RCC_OscConfig+0xde>
 8003e6c:	4d60      	ldr	r5, [pc, #384]	@ (8003ff0 <HAL_RCC_OscConfig+0x298>)
 8003e6e:	2b00      	cmp	r3, #0
 8003e70:	d074      	beq.n	8003f5c <HAL_RCC_OscConfig+0x204>
 8003e72:	682b      	ldr	r3, [r5, #0]
 8003e74:	f043 0301 	orr.w	r3, r3, #1
 8003e78:	602b      	str	r3, [r5, #0]
 8003e7a:	f7fe ff0d 	bl	8002c98 <HAL_GetTick>
 8003e7e:	4680      	mov	r8, r0
 8003e80:	682b      	ldr	r3, [r5, #0]
 8003e82:	075a      	lsls	r2, r3, #29
 8003e84:	d54e      	bpl.n	8003f24 <HAL_RCC_OscConfig+0x1cc>
 8003e86:	68ab      	ldr	r3, [r5, #8]
 8003e88:	f443 0300 	orr.w	r3, r3, #8388608	@ 0x800000
 8003e8c:	60ab      	str	r3, [r5, #8]
 8003e8e:	68ab      	ldr	r3, [r5, #8]
 8003e90:	6a61      	ldr	r1, [r4, #36]	@ 0x24
 8003e92:	f023 4370 	bic.w	r3, r3, #4026531840	@ 0xf0000000
 8003e96:	430b      	orrs	r3, r1
 8003e98:	60ab      	str	r3, [r5, #8]
 8003e9a:	f1b1 4f40 	cmp.w	r1, #3221225472	@ 0xc0000000
 8003e9e:	6a22      	ldr	r2, [r4, #32]
 8003ea0:	68eb      	ldr	r3, [r5, #12]
 8003ea2:	d347      	bcc.n	8003f34 <HAL_RCC_OscConfig+0x1dc>
 8003ea4:	f023 031f 	bic.w	r3, r3, #31
 8003ea8:	4313      	orrs	r3, r2
 8003eaa:	60eb      	str	r3, [r5, #12]
 8003eac:	6823      	ldr	r3, [r4, #0]
 8003eae:	07dd      	lsls	r5, r3, #31
 8003eb0:	d465      	bmi.n	8003f7e <HAL_RCC_OscConfig+0x226>
 8003eb2:	6823      	ldr	r3, [r4, #0]
 8003eb4:	0798      	lsls	r0, r3, #30
 8003eb6:	f100 80bd 	bmi.w	8004034 <HAL_RCC_OscConfig+0x2dc>
 8003eba:	6823      	ldr	r3, [r4, #0]
 8003ebc:	0718      	lsls	r0, r3, #28
 8003ebe:	f140 8138 	bpl.w	8004132 <HAL_RCC_OscConfig+0x3da>
 8003ec2:	4b4b      	ldr	r3, [pc, #300]	@ (8003ff0 <HAL_RCC_OscConfig+0x298>)
 8003ec4:	f8d3 2094 	ldr.w	r2, [r3, #148]	@ 0x94
 8003ec8:	0751      	lsls	r1, r2, #29
 8003eca:	f100 80f1 	bmi.w	80040b0 <HAL_RCC_OscConfig+0x358>
 8003ece:	2701      	movs	r7, #1
 8003ed0:	f8d3 2094 	ldr.w	r2, [r3, #148]	@ 0x94
 8003ed4:	f042 0204 	orr.w	r2, r2, #4
 8003ed8:	f8c3 2094 	str.w	r2, [r3, #148]	@ 0x94
 8003edc:	f8d3 3094 	ldr.w	r3, [r3, #148]	@ 0x94
 8003ee0:	f003 0304 	and.w	r3, r3, #4
 8003ee4:	9301      	str	r3, [sp, #4]
 8003ee6:	9b01      	ldr	r3, [sp, #4]
 8003ee8:	4d43      	ldr	r5, [pc, #268]	@ (8003ff8 <HAL_RCC_OscConfig+0x2a0>)
 8003eea:	6aab      	ldr	r3, [r5, #40]	@ 0x28
 8003eec:	07da      	lsls	r2, r3, #31
 8003eee:	f140 80e1 	bpl.w	80040b4 <HAL_RCC_OscConfig+0x35c>
 8003ef2:	6963      	ldr	r3, [r4, #20]
 8003ef4:	4d3e      	ldr	r5, [pc, #248]	@ (8003ff0 <HAL_RCC_OscConfig+0x298>)
 8003ef6:	2b00      	cmp	r3, #0
 8003ef8:	f040 80ed 	bne.w	80040d6 <HAL_RCC_OscConfig+0x37e>
 8003efc:	f8d5 30f0 	ldr.w	r3, [r5, #240]	@ 0xf0
 8003f00:	f023 53a0 	bic.w	r3, r3, #335544320	@ 0x14000000
 8003f04:	f8c5 30f0 	str.w	r3, [r5, #240]	@ 0xf0
 8003f08:	f7fe fec6 	bl	8002c98 <HAL_GetTick>
 8003f0c:	4606      	mov	r6, r0
 8003f0e:	f8d5 30f0 	ldr.w	r3, [r5, #240]	@ 0xf0
 8003f12:	011b      	lsls	r3, r3, #4
 8003f14:	f140 8105 	bpl.w	8004122 <HAL_RCC_OscConfig+0x3ca>
 8003f18:	f7fe febe 	bl	8002c98 <HAL_GetTick>
 8003f1c:	1b80      	subs	r0, r0, r6
 8003f1e:	2805      	cmp	r0, #5
 8003f20:	d9f5      	bls.n	8003f0e <HAL_RCC_OscConfig+0x1b6>
 8003f22:	e005      	b.n	8003f30 <HAL_RCC_OscConfig+0x1d8>
 8003f24:	f7fe feb8 	bl	8002c98 <HAL_GetTick>
 8003f28:	eba0 0008 	sub.w	r0, r0, r8
 8003f2c:	2802      	cmp	r0, #2
 8003f2e:	d9a7      	bls.n	8003e80 <HAL_RCC_OscConfig+0x128>
 8003f30:	2003      	movs	r0, #3
 8003f32:	e75f      	b.n	8003df4 <HAL_RCC_OscConfig+0x9c>
 8003f34:	2900      	cmp	r1, #0
 8003f36:	da04      	bge.n	8003f42 <HAL_RCC_OscConfig+0x1ea>
 8003f38:	f423 7378 	bic.w	r3, r3, #992	@ 0x3e0
 8003f3c:	ea43 1342 	orr.w	r3, r3, r2, lsl #5
 8003f40:	e7b3      	b.n	8003eaa <HAL_RCC_OscConfig+0x152>
 8003f42:	f1b1 4f80 	cmp.w	r1, #1073741824	@ 0x40000000
 8003f46:	d304      	bcc.n	8003f52 <HAL_RCC_OscConfig+0x1fa>
 8003f48:	f423 43f8 	bic.w	r3, r3, #31744	@ 0x7c00
 8003f4c:	ea43 2382 	orr.w	r3, r3, r2, lsl #10
 8003f50:	e7ab      	b.n	8003eaa <HAL_RCC_OscConfig+0x152>
 8003f52:	f423 2378 	bic.w	r3, r3, #1015808	@ 0xf8000
 8003f56:	ea43 33c2 	orr.w	r3, r3, r2, lsl #15
 8003f5a:	e7a6      	b.n	8003eaa <HAL_RCC_OscConfig+0x152>
 8003f5c:	682b      	ldr	r3, [r5, #0]
 8003f5e:	f023 0301 	bic.w	r3, r3, #1
 8003f62:	602b      	str	r3, [r5, #0]
 8003f64:	f7fe fe98 	bl	8002c98 <HAL_GetTick>
 8003f68:	4680      	mov	r8, r0
 8003f6a:	682b      	ldr	r3, [r5, #0]
 8003f6c:	075b      	lsls	r3, r3, #29
 8003f6e:	d59d      	bpl.n	8003eac <HAL_RCC_OscConfig+0x154>
 8003f70:	f7fe fe92 	bl	8002c98 <HAL_GetTick>
 8003f74:	eba0 0008 	sub.w	r0, r0, r8
 8003f78:	2802      	cmp	r0, #2
 8003f7a:	d9f6      	bls.n	8003f6a <HAL_RCC_OscConfig+0x212>
 8003f7c:	e7d8      	b.n	8003f30 <HAL_RCC_OscConfig+0x1d8>
 8003f7e:	2e08      	cmp	r6, #8
 8003f80:	6863      	ldr	r3, [r4, #4]
 8003f82:	d003      	beq.n	8003f8c <HAL_RCC_OscConfig+0x234>
 8003f84:	2e0c      	cmp	r6, #12
 8003f86:	d104      	bne.n	8003f92 <HAL_RCC_OscConfig+0x23a>
 8003f88:	2f03      	cmp	r7, #3
 8003f8a:	d102      	bne.n	8003f92 <HAL_RCC_OscConfig+0x23a>
 8003f8c:	2b00      	cmp	r3, #0
 8003f8e:	d190      	bne.n	8003eb2 <HAL_RCC_OscConfig+0x15a>
 8003f90:	e721      	b.n	8003dd6 <HAL_RCC_OscConfig+0x7e>
 8003f92:	f5b3 3f80 	cmp.w	r3, #65536	@ 0x10000
 8003f96:	4d16      	ldr	r5, [pc, #88]	@ (8003ff0 <HAL_RCC_OscConfig+0x298>)
 8003f98:	d113      	bne.n	8003fc2 <HAL_RCC_OscConfig+0x26a>
 8003f9a:	682b      	ldr	r3, [r5, #0]
 8003f9c:	f443 3380 	orr.w	r3, r3, #65536	@ 0x10000
 8003fa0:	602b      	str	r3, [r5, #0]
 8003fa2:	f7fe fe79 	bl	8002c98 <HAL_GetTick>
 8003fa6:	4605      	mov	r5, r0
 8003fa8:	f8df 8044 	ldr.w	r8, [pc, #68]	@ 8003ff0 <HAL_RCC_OscConfig+0x298>
 8003fac:	f8d8 3000 	ldr.w	r3, [r8]
 8003fb0:	0399      	lsls	r1, r3, #14
 8003fb2:	f53f af7e 	bmi.w	8003eb2 <HAL_RCC_OscConfig+0x15a>
 8003fb6:	f7fe fe6f 	bl	8002c98 <HAL_GetTick>
 8003fba:	1b40      	subs	r0, r0, r5
 8003fbc:	2864      	cmp	r0, #100	@ 0x64
 8003fbe:	d9f5      	bls.n	8003fac <HAL_RCC_OscConfig+0x254>
 8003fc0:	e7b6      	b.n	8003f30 <HAL_RCC_OscConfig+0x1d8>
 8003fc2:	f5b3 2fa0 	cmp.w	r3, #327680	@ 0x50000
 8003fc6:	d108      	bne.n	8003fda <HAL_RCC_OscConfig+0x282>
 8003fc8:	682b      	ldr	r3, [r5, #0]
 8003fca:	f443 2380 	orr.w	r3, r3, #262144	@ 0x40000
 8003fce:	602b      	str	r3, [r5, #0]
 8003fd0:	682b      	ldr	r3, [r5, #0]
 8003fd2:	f423 1380 	bic.w	r3, r3, #1048576	@ 0x100000
 8003fd6:	602b      	str	r3, [r5, #0]
 8003fd8:	e7df      	b.n	8003f9a <HAL_RCC_OscConfig+0x242>
 8003fda:	f5b3 1fa8 	cmp.w	r3, #1376256	@ 0x150000
 8003fde:	d10d      	bne.n	8003ffc <HAL_RCC_OscConfig+0x2a4>
 8003fe0:	682b      	ldr	r3, [r5, #0]
 8003fe2:	f443 2380 	orr.w	r3, r3, #262144	@ 0x40000
 8003fe6:	602b      	str	r3, [r5, #0]
 8003fe8:	682b      	ldr	r3, [r5, #0]
 8003fea:	f443 1380 	orr.w	r3, r3, #1048576	@ 0x100000
 8003fee:	e7f2      	b.n	8003fd6 <HAL_RCC_OscConfig+0x27e>
 8003ff0:	46020c00 	.word	0x46020c00
 8003ff4:	20000014 	.word	0x20000014
 8003ff8:	46020800 	.word	0x46020800
 8003ffc:	682a      	ldr	r2, [r5, #0]
 8003ffe:	f422 3280 	bic.w	r2, r2, #65536	@ 0x10000
 8004002:	602a      	str	r2, [r5, #0]
 8004004:	682a      	ldr	r2, [r5, #0]
 8004006:	f422 2280 	bic.w	r2, r2, #262144	@ 0x40000
 800400a:	602a      	str	r2, [r5, #0]
 800400c:	682a      	ldr	r2, [r5, #0]
 800400e:	f422 1280 	bic.w	r2, r2, #1048576	@ 0x100000
 8004012:	602a      	str	r2, [r5, #0]
 8004014:	2b00      	cmp	r3, #0
 8004016:	d1c4      	bne.n	8003fa2 <HAL_RCC_OscConfig+0x24a>
 8004018:	f7fe fe3e 	bl	8002c98 <HAL_GetTick>
 800401c:	4680      	mov	r8, r0
 800401e:	682b      	ldr	r3, [r5, #0]
 8004020:	039a      	lsls	r2, r3, #14
 8004022:	f57f af46 	bpl.w	8003eb2 <HAL_RCC_OscConfig+0x15a>
 8004026:	f7fe fe37 	bl	8002c98 <HAL_GetTick>
 800402a:	eba0 0008 	sub.w	r0, r0, r8
 800402e:	2864      	cmp	r0, #100	@ 0x64
 8004030:	d9f5      	bls.n	800401e <HAL_RCC_OscConfig+0x2c6>
 8004032:	e77d      	b.n	8003f30 <HAL_RCC_OscConfig+0x1d8>
 8004034:	2e04      	cmp	r6, #4
 8004036:	68e3      	ldr	r3, [r4, #12]
 8004038:	d003      	beq.n	8004042 <HAL_RCC_OscConfig+0x2ea>
 800403a:	2e0c      	cmp	r6, #12
 800403c:	d10d      	bne.n	800405a <HAL_RCC_OscConfig+0x302>
 800403e:	2f02      	cmp	r7, #2
 8004040:	d10b      	bne.n	800405a <HAL_RCC_OscConfig+0x302>
 8004042:	2b00      	cmp	r3, #0
 8004044:	f43f aec7 	beq.w	8003dd6 <HAL_RCC_OscConfig+0x7e>
 8004048:	4aa9      	ldr	r2, [pc, #676]	@ (80042f0 <HAL_RCC_OscConfig+0x598>)
 800404a:	6921      	ldr	r1, [r4, #16]
 800404c:	6913      	ldr	r3, [r2, #16]
 800404e:	f423 13f8 	bic.w	r3, r3, #2031616	@ 0x1f0000
 8004052:	ea43 4301 	orr.w	r3, r3, r1, lsl #16
 8004056:	6113      	str	r3, [r2, #16]
 8004058:	e72f      	b.n	8003eba <HAL_RCC_OscConfig+0x162>
 800405a:	4da5      	ldr	r5, [pc, #660]	@ (80042f0 <HAL_RCC_OscConfig+0x598>)
 800405c:	b1bb      	cbz	r3, 800408e <HAL_RCC_OscConfig+0x336>
 800405e:	682b      	ldr	r3, [r5, #0]
 8004060:	f443 7380 	orr.w	r3, r3, #256	@ 0x100
 8004064:	602b      	str	r3, [r5, #0]
 8004066:	f7fe fe17 	bl	8002c98 <HAL_GetTick>
 800406a:	4606      	mov	r6, r0
 800406c:	682b      	ldr	r3, [r5, #0]
 800406e:	055b      	lsls	r3, r3, #21
 8004070:	d507      	bpl.n	8004082 <HAL_RCC_OscConfig+0x32a>
 8004072:	692b      	ldr	r3, [r5, #16]
 8004074:	6922      	ldr	r2, [r4, #16]
 8004076:	f423 13f8 	bic.w	r3, r3, #2031616	@ 0x1f0000
 800407a:	ea43 4302 	orr.w	r3, r3, r2, lsl #16
 800407e:	612b      	str	r3, [r5, #16]
 8004080:	e71b      	b.n	8003eba <HAL_RCC_OscConfig+0x162>
 8004082:	f7fe fe09 	bl	8002c98 <HAL_GetTick>
 8004086:	1b80      	subs	r0, r0, r6
 8004088:	2802      	cmp	r0, #2
 800408a:	d9ef      	bls.n	800406c <HAL_RCC_OscConfig+0x314>
 800408c:	e750      	b.n	8003f30 <HAL_RCC_OscConfig+0x1d8>
 800408e:	682b      	ldr	r3, [r5, #0]
 8004090:	f423 7380 	bic.w	r3, r3, #256	@ 0x100
 8004094:	602b      	str	r3, [r5, #0]
 8004096:	f7fe fdff 	bl	8002c98 <HAL_GetTick>
 800409a:	4606      	mov	r6, r0
 800409c:	682b      	ldr	r3, [r5, #0]
 800409e:	055f      	lsls	r7, r3, #21
 80040a0:	f57f af0b 	bpl.w	8003eba <HAL_RCC_OscConfig+0x162>
 80040a4:	f7fe fdf8 	bl	8002c98 <HAL_GetTick>
 80040a8:	1b80      	subs	r0, r0, r6
 80040aa:	2802      	cmp	r0, #2
 80040ac:	d9f6      	bls.n	800409c <HAL_RCC_OscConfig+0x344>
 80040ae:	e73f      	b.n	8003f30 <HAL_RCC_OscConfig+0x1d8>
 80040b0:	2700      	movs	r7, #0
 80040b2:	e719      	b.n	8003ee8 <HAL_RCC_OscConfig+0x190>
 80040b4:	6aab      	ldr	r3, [r5, #40]	@ 0x28
 80040b6:	f043 0301 	orr.w	r3, r3, #1
 80040ba:	62ab      	str	r3, [r5, #40]	@ 0x28
 80040bc:	f7fe fdec 	bl	8002c98 <HAL_GetTick>
 80040c0:	4606      	mov	r6, r0
 80040c2:	6aab      	ldr	r3, [r5, #40]	@ 0x28
 80040c4:	07db      	lsls	r3, r3, #31
 80040c6:	f53f af14 	bmi.w	8003ef2 <HAL_RCC_OscConfig+0x19a>
 80040ca:	f7fe fde5 	bl	8002c98 <HAL_GetTick>
 80040ce:	1b80      	subs	r0, r0, r6
 80040d0:	2802      	cmp	r0, #2
 80040d2:	d9f6      	bls.n	80040c2 <HAL_RCC_OscConfig+0x36a>
 80040d4:	e72c      	b.n	8003f30 <HAL_RCC_OscConfig+0x1d8>
 80040d6:	f8d5 30f0 	ldr.w	r3, [r5, #240]	@ 0xf0
 80040da:	69a1      	ldr	r1, [r4, #24]
 80040dc:	f003 5280 	and.w	r2, r3, #268435456	@ 0x10000000
 80040e0:	4291      	cmp	r1, r2
 80040e2:	d010      	beq.n	8004106 <HAL_RCC_OscConfig+0x3ae>
 80040e4:	f003 6240 	and.w	r2, r3, #201326592	@ 0xc000000
 80040e8:	f1b2 6f00 	cmp.w	r2, #134217728	@ 0x8000000
 80040ec:	f43f ae73 	beq.w	8003dd6 <HAL_RCC_OscConfig+0x7e>
 80040f0:	0158      	lsls	r0, r3, #5
 80040f2:	d46c      	bmi.n	80041ce <HAL_RCC_OscConfig+0x476>
 80040f4:	4a7e      	ldr	r2, [pc, #504]	@ (80042f0 <HAL_RCC_OscConfig+0x598>)
 80040f6:	69a1      	ldr	r1, [r4, #24]
 80040f8:	f8d2 30f0 	ldr.w	r3, [r2, #240]	@ 0xf0
 80040fc:	f023 5380 	bic.w	r3, r3, #268435456	@ 0x10000000
 8004100:	430b      	orrs	r3, r1
 8004102:	f8c2 30f0 	str.w	r3, [r2, #240]	@ 0xf0
 8004106:	4d7a      	ldr	r5, [pc, #488]	@ (80042f0 <HAL_RCC_OscConfig+0x598>)
 8004108:	f8d5 30f0 	ldr.w	r3, [r5, #240]	@ 0xf0
 800410c:	f043 6380 	orr.w	r3, r3, #67108864	@ 0x4000000
 8004110:	f8c5 30f0 	str.w	r3, [r5, #240]	@ 0xf0
 8004114:	f7fe fdc0 	bl	8002c98 <HAL_GetTick>
 8004118:	4606      	mov	r6, r0
 800411a:	f8d5 30f0 	ldr.w	r3, [r5, #240]	@ 0xf0
 800411e:	011a      	lsls	r2, r3, #4
 8004120:	d568      	bpl.n	80041f4 <HAL_RCC_OscConfig+0x49c>
 8004122:	b137      	cbz	r7, 8004132 <HAL_RCC_OscConfig+0x3da>
 8004124:	4a72      	ldr	r2, [pc, #456]	@ (80042f0 <HAL_RCC_OscConfig+0x598>)
 8004126:	f8d2 3094 	ldr.w	r3, [r2, #148]	@ 0x94
 800412a:	f023 0304 	bic.w	r3, r3, #4
 800412e:	f8c2 3094 	str.w	r3, [r2, #148]	@ 0x94
 8004132:	6823      	ldr	r3, [r4, #0]
 8004134:	075d      	lsls	r5, r3, #29
 8004136:	f140 80a7 	bpl.w	8004288 <HAL_RCC_OscConfig+0x530>
 800413a:	4b6d      	ldr	r3, [pc, #436]	@ (80042f0 <HAL_RCC_OscConfig+0x598>)
 800413c:	f8d3 2094 	ldr.w	r2, [r3, #148]	@ 0x94
 8004140:	0750      	lsls	r0, r2, #29
 8004142:	d45d      	bmi.n	8004200 <HAL_RCC_OscConfig+0x4a8>
 8004144:	2701      	movs	r7, #1
 8004146:	f8d3 2094 	ldr.w	r2, [r3, #148]	@ 0x94
 800414a:	f042 0204 	orr.w	r2, r2, #4
 800414e:	f8c3 2094 	str.w	r2, [r3, #148]	@ 0x94
 8004152:	f8d3 3094 	ldr.w	r3, [r3, #148]	@ 0x94
 8004156:	f003 0304 	and.w	r3, r3, #4
 800415a:	9302      	str	r3, [sp, #8]
 800415c:	9b02      	ldr	r3, [sp, #8]
 800415e:	4d65      	ldr	r5, [pc, #404]	@ (80042f4 <HAL_RCC_OscConfig+0x59c>)
 8004160:	6aab      	ldr	r3, [r5, #40]	@ 0x28
 8004162:	07d9      	lsls	r1, r3, #31
 8004164:	d54e      	bpl.n	8004204 <HAL_RCC_OscConfig+0x4ac>
 8004166:	68a3      	ldr	r3, [r4, #8]
 8004168:	4d61      	ldr	r5, [pc, #388]	@ (80042f0 <HAL_RCC_OscConfig+0x598>)
 800416a:	f013 0f01 	tst.w	r3, #1
 800416e:	d159      	bne.n	8004224 <HAL_RCC_OscConfig+0x4cc>
 8004170:	f8d5 20f0 	ldr.w	r2, [r5, #240]	@ 0xf0
 8004174:	f022 0201 	bic.w	r2, r2, #1
 8004178:	f8c5 20f0 	str.w	r2, [r5, #240]	@ 0xf0
 800417c:	f8d5 20f0 	ldr.w	r2, [r5, #240]	@ 0xf0
 8004180:	f022 0204 	bic.w	r2, r2, #4
 8004184:	f8c5 20f0 	str.w	r2, [r5, #240]	@ 0xf0
 8004188:	2b00      	cmp	r3, #0
 800418a:	d15a      	bne.n	8004242 <HAL_RCC_OscConfig+0x4ea>
 800418c:	f7fe fd84 	bl	8002c98 <HAL_GetTick>
 8004190:	f241 3888 	movw	r8, #5000	@ 0x1388
 8004194:	4606      	mov	r6, r0
 8004196:	f8d5 30f0 	ldr.w	r3, [r5, #240]	@ 0xf0
 800419a:	079a      	lsls	r2, r3, #30
 800419c:	f100 80a0 	bmi.w	80042e0 <HAL_RCC_OscConfig+0x588>
 80041a0:	f8d5 30f0 	ldr.w	r3, [r5, #240]	@ 0xf0
 80041a4:	061b      	lsls	r3, r3, #24
 80041a6:	d567      	bpl.n	8004278 <HAL_RCC_OscConfig+0x520>
 80041a8:	f241 3888 	movw	r8, #5000	@ 0x1388
 80041ac:	f8d5 30f0 	ldr.w	r3, [r5, #240]	@ 0xf0
 80041b0:	f023 0380 	bic.w	r3, r3, #128	@ 0x80
 80041b4:	f8c5 30f0 	str.w	r3, [r5, #240]	@ 0xf0
 80041b8:	4d4d      	ldr	r5, [pc, #308]	@ (80042f0 <HAL_RCC_OscConfig+0x598>)
 80041ba:	f8d5 30f0 	ldr.w	r3, [r5, #240]	@ 0xf0
 80041be:	0518      	lsls	r0, r3, #20
 80041c0:	d55a      	bpl.n	8004278 <HAL_RCC_OscConfig+0x520>
 80041c2:	f7fe fd69 	bl	8002c98 <HAL_GetTick>
 80041c6:	1b80      	subs	r0, r0, r6
 80041c8:	4540      	cmp	r0, r8
 80041ca:	d9f6      	bls.n	80041ba <HAL_RCC_OscConfig+0x462>
 80041cc:	e6b0      	b.n	8003f30 <HAL_RCC_OscConfig+0x1d8>
 80041ce:	f8d5 30f0 	ldr.w	r3, [r5, #240]	@ 0xf0
 80041d2:	f023 53a0 	bic.w	r3, r3, #335544320	@ 0x14000000
 80041d6:	f8c5 30f0 	str.w	r3, [r5, #240]	@ 0xf0
 80041da:	f7fe fd5d 	bl	8002c98 <HAL_GetTick>
 80041de:	4606      	mov	r6, r0
 80041e0:	f8d5 30f0 	ldr.w	r3, [r5, #240]	@ 0xf0
 80041e4:	0119      	lsls	r1, r3, #4
 80041e6:	d585      	bpl.n	80040f4 <HAL_RCC_OscConfig+0x39c>
 80041e8:	f7fe fd56 	bl	8002c98 <HAL_GetTick>
 80041ec:	1b80      	subs	r0, r0, r6
 80041ee:	2805      	cmp	r0, #5
 80041f0:	d9f6      	bls.n	80041e0 <HAL_RCC_OscConfig+0x488>
 80041f2:	e69d      	b.n	8003f30 <HAL_RCC_OscConfig+0x1d8>
 80041f4:	f7fe fd50 	bl	8002c98 <HAL_GetTick>
 80041f8:	1b80      	subs	r0, r0, r6
 80041fa:	2805      	cmp	r0, #5
 80041fc:	d98d      	bls.n	800411a <HAL_RCC_OscConfig+0x3c2>
 80041fe:	e697      	b.n	8003f30 <HAL_RCC_OscConfig+0x1d8>
 8004200:	2700      	movs	r7, #0
 8004202:	e7ac      	b.n	800415e <HAL_RCC_OscConfig+0x406>
 8004204:	6aab      	ldr	r3, [r5, #40]	@ 0x28
 8004206:	f043 0301 	orr.w	r3, r3, #1
 800420a:	62ab      	str	r3, [r5, #40]	@ 0x28
 800420c:	f7fe fd44 	bl	8002c98 <HAL_GetTick>
 8004210:	4606      	mov	r6, r0
 8004212:	6aab      	ldr	r3, [r5, #40]	@ 0x28
 8004214:	07da      	lsls	r2, r3, #31
 8004216:	d4a6      	bmi.n	8004166 <HAL_RCC_OscConfig+0x40e>
 8004218:	f7fe fd3e 	bl	8002c98 <HAL_GetTick>
 800421c:	1b80      	subs	r0, r0, r6
 800421e:	2802      	cmp	r0, #2
 8004220:	d9f7      	bls.n	8004212 <HAL_RCC_OscConfig+0x4ba>
 8004222:	e685      	b.n	8003f30 <HAL_RCC_OscConfig+0x1d8>
 8004224:	f013 0f04 	tst.w	r3, #4
 8004228:	f8d5 30f0 	ldr.w	r3, [r5, #240]	@ 0xf0
 800422c:	bf1e      	ittt	ne
 800422e:	f043 0304 	orrne.w	r3, r3, #4
 8004232:	f8c5 30f0 	strne.w	r3, [r5, #240]	@ 0xf0
 8004236:	f8d5 30f0 	ldrne.w	r3, [r5, #240]	@ 0xf0
 800423a:	f043 0301 	orr.w	r3, r3, #1
 800423e:	f8c5 30f0 	str.w	r3, [r5, #240]	@ 0xf0
 8004242:	f7fe fd29 	bl	8002c98 <HAL_GetTick>
 8004246:	f241 3888 	movw	r8, #5000	@ 0x1388
 800424a:	4605      	mov	r5, r0
 800424c:	4e28      	ldr	r6, [pc, #160]	@ (80042f0 <HAL_RCC_OscConfig+0x598>)
 800424e:	f8d6 30f0 	ldr.w	r3, [r6, #240]	@ 0xf0
 8004252:	079b      	lsls	r3, r3, #30
 8004254:	d527      	bpl.n	80042a6 <HAL_RCC_OscConfig+0x54e>
 8004256:	68a3      	ldr	r3, [r4, #8]
 8004258:	f013 0f80 	tst.w	r3, #128	@ 0x80
 800425c:	f8d6 30f0 	ldr.w	r3, [r6, #240]	@ 0xf0
 8004260:	d02d      	beq.n	80042be <HAL_RCC_OscConfig+0x566>
 8004262:	f241 3888 	movw	r8, #5000	@ 0x1388
 8004266:	f043 0380 	orr.w	r3, r3, #128	@ 0x80
 800426a:	f8c6 30f0 	str.w	r3, [r6, #240]	@ 0xf0
 800426e:	4e20      	ldr	r6, [pc, #128]	@ (80042f0 <HAL_RCC_OscConfig+0x598>)
 8004270:	f8d6 30f0 	ldr.w	r3, [r6, #240]	@ 0xf0
 8004274:	0518      	lsls	r0, r3, #20
 8004276:	d51c      	bpl.n	80042b2 <HAL_RCC_OscConfig+0x55a>
 8004278:	b137      	cbz	r7, 8004288 <HAL_RCC_OscConfig+0x530>
 800427a:	4a1d      	ldr	r2, [pc, #116]	@ (80042f0 <HAL_RCC_OscConfig+0x598>)
 800427c:	f8d2 3094 	ldr.w	r3, [r2, #148]	@ 0x94
 8004280:	f023 0304 	bic.w	r3, r3, #4
 8004284:	f8c2 3094 	str.w	r3, [r2, #148]	@ 0x94
 8004288:	6823      	ldr	r3, [r4, #0]
 800428a:	0699      	lsls	r1, r3, #26
 800428c:	d434      	bmi.n	80042f8 <HAL_RCC_OscConfig+0x5a0>
 800428e:	6823      	ldr	r3, [r4, #0]
 8004290:	061a      	lsls	r2, r3, #24
 8004292:	d454      	bmi.n	800433e <HAL_RCC_OscConfig+0x5e6>
 8004294:	6823      	ldr	r3, [r4, #0]
 8004296:	0658      	lsls	r0, r3, #25
 8004298:	d474      	bmi.n	8004384 <HAL_RCC_OscConfig+0x62c>
 800429a:	6ba1      	ldr	r1, [r4, #56]	@ 0x38
 800429c:	2900      	cmp	r1, #0
 800429e:	f040 80c1 	bne.w	8004424 <HAL_RCC_OscConfig+0x6cc>
 80042a2:	2000      	movs	r0, #0
 80042a4:	e5a6      	b.n	8003df4 <HAL_RCC_OscConfig+0x9c>
 80042a6:	f7fe fcf7 	bl	8002c98 <HAL_GetTick>
 80042aa:	1b40      	subs	r0, r0, r5
 80042ac:	4540      	cmp	r0, r8
 80042ae:	d9ce      	bls.n	800424e <HAL_RCC_OscConfig+0x4f6>
 80042b0:	e63e      	b.n	8003f30 <HAL_RCC_OscConfig+0x1d8>
 80042b2:	f7fe fcf1 	bl	8002c98 <HAL_GetTick>
 80042b6:	1b40      	subs	r0, r0, r5
 80042b8:	4540      	cmp	r0, r8
 80042ba:	d9d9      	bls.n	8004270 <HAL_RCC_OscConfig+0x518>
 80042bc:	e638      	b.n	8003f30 <HAL_RCC_OscConfig+0x1d8>
 80042be:	f241 3888 	movw	r8, #5000	@ 0x1388
 80042c2:	f023 0380 	bic.w	r3, r3, #128	@ 0x80
 80042c6:	f8c6 30f0 	str.w	r3, [r6, #240]	@ 0xf0
 80042ca:	4e09      	ldr	r6, [pc, #36]	@ (80042f0 <HAL_RCC_OscConfig+0x598>)
 80042cc:	f8d6 30f0 	ldr.w	r3, [r6, #240]	@ 0xf0
 80042d0:	0519      	lsls	r1, r3, #20
 80042d2:	d5d1      	bpl.n	8004278 <HAL_RCC_OscConfig+0x520>
 80042d4:	f7fe fce0 	bl	8002c98 <HAL_GetTick>
 80042d8:	1b40      	subs	r0, r0, r5
 80042da:	4540      	cmp	r0, r8
 80042dc:	d9f6      	bls.n	80042cc <HAL_RCC_OscConfig+0x574>
 80042de:	e627      	b.n	8003f30 <HAL_RCC_OscConfig+0x1d8>
 80042e0:	f7fe fcda 	bl	8002c98 <HAL_GetTick>
 80042e4:	1b80      	subs	r0, r0, r6
 80042e6:	4540      	cmp	r0, r8
 80042e8:	f67f af55 	bls.w	8004196 <HAL_RCC_OscConfig+0x43e>
 80042ec:	e620      	b.n	8003f30 <HAL_RCC_OscConfig+0x1d8>
 80042ee:	bf00      	nop
 80042f0:	46020c00 	.word	0x46020c00
 80042f4:	46020800 	.word	0x46020800
 80042f8:	6ae3      	ldr	r3, [r4, #44]	@ 0x2c
 80042fa:	4d9b      	ldr	r5, [pc, #620]	@ (8004568 <HAL_RCC_OscConfig+0x810>)
 80042fc:	b17b      	cbz	r3, 800431e <HAL_RCC_OscConfig+0x5c6>
 80042fe:	682b      	ldr	r3, [r5, #0]
 8004300:	f443 5380 	orr.w	r3, r3, #4096	@ 0x1000
 8004304:	602b      	str	r3, [r5, #0]
 8004306:	f7fe fcc7 	bl	8002c98 <HAL_GetTick>
 800430a:	4606      	mov	r6, r0
 800430c:	682b      	ldr	r3, [r5, #0]
 800430e:	049b      	lsls	r3, r3, #18
 8004310:	d4bd      	bmi.n	800428e <HAL_RCC_OscConfig+0x536>
 8004312:	f7fe fcc1 	bl	8002c98 <HAL_GetTick>
 8004316:	1b80      	subs	r0, r0, r6
 8004318:	2802      	cmp	r0, #2
 800431a:	d9f7      	bls.n	800430c <HAL_RCC_OscConfig+0x5b4>
 800431c:	e608      	b.n	8003f30 <HAL_RCC_OscConfig+0x1d8>
 800431e:	682b      	ldr	r3, [r5, #0]
 8004320:	f423 5380 	bic.w	r3, r3, #4096	@ 0x1000
 8004324:	602b      	str	r3, [r5, #0]
 8004326:	f7fe fcb7 	bl	8002c98 <HAL_GetTick>
 800432a:	4606      	mov	r6, r0
 800432c:	682b      	ldr	r3, [r5, #0]
 800432e:	049f      	lsls	r7, r3, #18
 8004330:	d5ad      	bpl.n	800428e <HAL_RCC_OscConfig+0x536>
 8004332:	f7fe fcb1 	bl	8002c98 <HAL_GetTick>
 8004336:	1b80      	subs	r0, r0, r6
 8004338:	2802      	cmp	r0, #2
 800433a:	d9f7      	bls.n	800432c <HAL_RCC_OscConfig+0x5d4>
 800433c:	e5f8      	b.n	8003f30 <HAL_RCC_OscConfig+0x1d8>
 800433e:	6b23      	ldr	r3, [r4, #48]	@ 0x30
 8004340:	4d89      	ldr	r5, [pc, #548]	@ (8004568 <HAL_RCC_OscConfig+0x810>)
 8004342:	b17b      	cbz	r3, 8004364 <HAL_RCC_OscConfig+0x60c>
 8004344:	682b      	ldr	r3, [r5, #0]
 8004346:	f443 4380 	orr.w	r3, r3, #16384	@ 0x4000
 800434a:	602b      	str	r3, [r5, #0]
 800434c:	f7fe fca4 	bl	8002c98 <HAL_GetTick>
 8004350:	4606      	mov	r6, r0
 8004352:	682b      	ldr	r3, [r5, #0]
 8004354:	0419      	lsls	r1, r3, #16
 8004356:	d49d      	bmi.n	8004294 <HAL_RCC_OscConfig+0x53c>
 8004358:	f7fe fc9e 	bl	8002c98 <HAL_GetTick>
 800435c:	1b80      	subs	r0, r0, r6
 800435e:	2802      	cmp	r0, #2
 8004360:	d9f7      	bls.n	8004352 <HAL_RCC_OscConfig+0x5fa>
 8004362:	e5e5      	b.n	8003f30 <HAL_RCC_OscConfig+0x1d8>
 8004364:	682b      	ldr	r3, [r5, #0]
 8004366:	f423 4380 	bic.w	r3, r3, #16384	@ 0x4000
 800436a:	602b      	str	r3, [r5, #0]
 800436c:	f7fe fc94 	bl	8002c98 <HAL_GetTick>
 8004370:	4606      	mov	r6, r0
 8004372:	682b      	ldr	r3, [r5, #0]
 8004374:	041a      	lsls	r2, r3, #16
 8004376:	d58d      	bpl.n	8004294 <HAL_RCC_OscConfig+0x53c>
 8004378:	f7fe fc8e 	bl	8002c98 <HAL_GetTick>
 800437c:	1b80      	subs	r0, r0, r6
 800437e:	2802      	cmp	r0, #2
 8004380:	d9f7      	bls.n	8004372 <HAL_RCC_OscConfig+0x61a>
 8004382:	e5d5      	b.n	8003f30 <HAL_RCC_OscConfig+0x1d8>
 8004384:	6b63      	ldr	r3, [r4, #52]	@ 0x34
 8004386:	4d78      	ldr	r5, [pc, #480]	@ (8004568 <HAL_RCC_OscConfig+0x810>)
 8004388:	2b00      	cmp	r3, #0
 800438a:	d03a      	beq.n	8004402 <HAL_RCC_OscConfig+0x6aa>
 800438c:	68ab      	ldr	r3, [r5, #8]
 800438e:	f443 0300 	orr.w	r3, r3, #8388608	@ 0x800000
 8004392:	60ab      	str	r3, [r5, #8]
 8004394:	68ab      	ldr	r3, [r5, #8]
 8004396:	6aa2      	ldr	r2, [r4, #40]	@ 0x28
 8004398:	f023 6370 	bic.w	r3, r3, #251658240	@ 0xf000000
 800439c:	4313      	orrs	r3, r2
 800439e:	60ab      	str	r3, [r5, #8]
 80043a0:	e9d4 2308 	ldrd	r2, r3, [r4, #32]
 80043a4:	f1b3 4f40 	cmp.w	r3, #3221225472	@ 0xc0000000
 80043a8:	d316      	bcc.n	80043d8 <HAL_RCC_OscConfig+0x680>
 80043aa:	68eb      	ldr	r3, [r5, #12]
 80043ac:	f023 031f 	bic.w	r3, r3, #31
 80043b0:	4313      	orrs	r3, r2
 80043b2:	60eb      	str	r3, [r5, #12]
 80043b4:	4d6c      	ldr	r5, [pc, #432]	@ (8004568 <HAL_RCC_OscConfig+0x810>)
 80043b6:	682b      	ldr	r3, [r5, #0]
 80043b8:	f043 0310 	orr.w	r3, r3, #16
 80043bc:	602b      	str	r3, [r5, #0]
 80043be:	f7fe fc6b 	bl	8002c98 <HAL_GetTick>
 80043c2:	4606      	mov	r6, r0
 80043c4:	682b      	ldr	r3, [r5, #0]
 80043c6:	069b      	lsls	r3, r3, #26
 80043c8:	f53f af67 	bmi.w	800429a <HAL_RCC_OscConfig+0x542>
 80043cc:	f7fe fc64 	bl	8002c98 <HAL_GetTick>
 80043d0:	1b80      	subs	r0, r0, r6
 80043d2:	2802      	cmp	r0, #2
 80043d4:	d9f6      	bls.n	80043c4 <HAL_RCC_OscConfig+0x66c>
 80043d6:	e5ab      	b.n	8003f30 <HAL_RCC_OscConfig+0x1d8>
 80043d8:	2b00      	cmp	r3, #0
 80043da:	da05      	bge.n	80043e8 <HAL_RCC_OscConfig+0x690>
 80043dc:	68eb      	ldr	r3, [r5, #12]
 80043de:	f423 7378 	bic.w	r3, r3, #992	@ 0x3e0
 80043e2:	ea43 1342 	orr.w	r3, r3, r2, lsl #5
 80043e6:	e7e4      	b.n	80043b2 <HAL_RCC_OscConfig+0x65a>
 80043e8:	f1b3 4f80 	cmp.w	r3, #1073741824	@ 0x40000000
 80043ec:	68eb      	ldr	r3, [r5, #12]
 80043ee:	bf2b      	itete	cs
 80043f0:	f423 43f8 	biccs.w	r3, r3, #31744	@ 0x7c00
 80043f4:	f423 2378 	biccc.w	r3, r3, #1015808	@ 0xf8000
 80043f8:	ea43 2382 	orrcs.w	r3, r3, r2, lsl #10
 80043fc:	ea43 33c2 	orrcc.w	r3, r3, r2, lsl #15
 8004400:	e7d7      	b.n	80043b2 <HAL_RCC_OscConfig+0x65a>
 8004402:	682b      	ldr	r3, [r5, #0]
 8004404:	f023 0310 	bic.w	r3, r3, #16
 8004408:	602b      	str	r3, [r5, #0]
 800440a:	f7fe fc45 	bl	8002c98 <HAL_GetTick>
 800440e:	4606      	mov	r6, r0
 8004410:	682b      	ldr	r3, [r5, #0]
 8004412:	069f      	lsls	r7, r3, #26
 8004414:	f57f af41 	bpl.w	800429a <HAL_RCC_OscConfig+0x542>
 8004418:	f7fe fc3e 	bl	8002c98 <HAL_GetTick>
 800441c:	1b80      	subs	r0, r0, r6
 800441e:	2802      	cmp	r0, #2
 8004420:	d9f6      	bls.n	8004410 <HAL_RCC_OscConfig+0x6b8>
 8004422:	e585      	b.n	8003f30 <HAL_RCC_OscConfig+0x1d8>
 8004424:	4d50      	ldr	r5, [pc, #320]	@ (8004568 <HAL_RCC_OscConfig+0x810>)
 8004426:	69eb      	ldr	r3, [r5, #28]
 8004428:	f003 030c 	and.w	r3, r3, #12
 800442c:	2b0c      	cmp	r3, #12
 800442e:	f000 80a1 	beq.w	8004574 <HAL_RCC_OscConfig+0x81c>
 8004432:	682b      	ldr	r3, [r5, #0]
 8004434:	2902      	cmp	r1, #2
 8004436:	f023 7380 	bic.w	r3, r3, #16777216	@ 0x1000000
 800443a:	602b      	str	r3, [r5, #0]
 800443c:	f040 8081 	bne.w	8004542 <HAL_RCC_OscConfig+0x7ea>
 8004440:	f7fe fc2a 	bl	8002c98 <HAL_GetTick>
 8004444:	4606      	mov	r6, r0
 8004446:	6829      	ldr	r1, [r5, #0]
 8004448:	f011 7100 	ands.w	r1, r1, #33554432	@ 0x2000000
 800444c:	d16d      	bne.n	800452a <HAL_RCC_OscConfig+0x7d2>
 800444e:	f8d5 3094 	ldr.w	r3, [r5, #148]	@ 0x94
 8004452:	075e      	lsls	r6, r3, #29
 8004454:	d40c      	bmi.n	8004470 <HAL_RCC_OscConfig+0x718>
 8004456:	2101      	movs	r1, #1
 8004458:	f8d5 3094 	ldr.w	r3, [r5, #148]	@ 0x94
 800445c:	f043 0304 	orr.w	r3, r3, #4
 8004460:	f8c5 3094 	str.w	r3, [r5, #148]	@ 0x94
 8004464:	f8d5 3094 	ldr.w	r3, [r5, #148]	@ 0x94
 8004468:	f003 0304 	and.w	r3, r3, #4
 800446c:	9303      	str	r3, [sp, #12]
 800446e:	9b03      	ldr	r3, [sp, #12]
 8004470:	4d3e      	ldr	r5, [pc, #248]	@ (800456c <HAL_RCC_OscConfig+0x814>)
 8004472:	68ee      	ldr	r6, [r5, #12]
 8004474:	68eb      	ldr	r3, [r5, #12]
 8004476:	f423 2380 	bic.w	r3, r3, #262144	@ 0x40000
 800447a:	60eb      	str	r3, [r5, #12]
 800447c:	4b3a      	ldr	r3, [pc, #232]	@ (8004568 <HAL_RCC_OscConfig+0x810>)
 800447e:	6c67      	ldr	r7, [r4, #68]	@ 0x44
 8004480:	6a98      	ldr	r0, [r3, #40]	@ 0x28
 8004482:	6be2      	ldr	r2, [r4, #60]	@ 0x3c
 8004484:	f420 407f 	bic.w	r0, r0, #65280	@ 0xff00
 8004488:	433a      	orrs	r2, r7
 800448a:	f020 0003 	bic.w	r0, r0, #3
 800448e:	4302      	orrs	r2, r0
 8004490:	6c20      	ldr	r0, [r4, #64]	@ 0x40
 8004492:	3801      	subs	r0, #1
 8004494:	ea42 2200 	orr.w	r2, r2, r0, lsl #8
 8004498:	629a      	str	r2, [r3, #40]	@ 0x28
 800449a:	6ca2      	ldr	r2, [r4, #72]	@ 0x48
 800449c:	6b5f      	ldr	r7, [r3, #52]	@ 0x34
 800449e:	4834      	ldr	r0, [pc, #208]	@ (8004570 <HAL_RCC_OscConfig+0x818>)
 80044a0:	3a01      	subs	r2, #1
 80044a2:	4038      	ands	r0, r7
 80044a4:	f3c2 0208 	ubfx	r2, r2, #0, #9
 80044a8:	4302      	orrs	r2, r0
 80044aa:	6ce0      	ldr	r0, [r4, #76]	@ 0x4c
 80044ac:	3801      	subs	r0, #1
 80044ae:	0240      	lsls	r0, r0, #9
 80044b0:	b280      	uxth	r0, r0
 80044b2:	4302      	orrs	r2, r0
 80044b4:	6d20      	ldr	r0, [r4, #80]	@ 0x50
 80044b6:	3801      	subs	r0, #1
 80044b8:	0400      	lsls	r0, r0, #16
 80044ba:	f400 00fe 	and.w	r0, r0, #8323072	@ 0x7f0000
 80044be:	4302      	orrs	r2, r0
 80044c0:	6d60      	ldr	r0, [r4, #84]	@ 0x54
 80044c2:	3801      	subs	r0, #1
 80044c4:	0600      	lsls	r0, r0, #24
 80044c6:	f000 40fe 	and.w	r0, r0, #2130706432	@ 0x7f000000
 80044ca:	4302      	orrs	r2, r0
 80044cc:	635a      	str	r2, [r3, #52]	@ 0x34
 80044ce:	6a9a      	ldr	r2, [r3, #40]	@ 0x28
 80044d0:	f022 0210 	bic.w	r2, r2, #16
 80044d4:	629a      	str	r2, [r3, #40]	@ 0x28
 80044d6:	6de2      	ldr	r2, [r4, #92]	@ 0x5c
 80044d8:	00d2      	lsls	r2, r2, #3
 80044da:	639a      	str	r2, [r3, #56]	@ 0x38
 80044dc:	6a9a      	ldr	r2, [r3, #40]	@ 0x28
 80044de:	f042 0210 	orr.w	r2, r2, #16
 80044e2:	629a      	str	r2, [r3, #40]	@ 0x28
 80044e4:	6a9a      	ldr	r2, [r3, #40]	@ 0x28
 80044e6:	6da0      	ldr	r0, [r4, #88]	@ 0x58
 80044e8:	f022 020c 	bic.w	r2, r2, #12
 80044ec:	4302      	orrs	r2, r0
 80044ee:	629a      	str	r2, [r3, #40]	@ 0x28
 80044f0:	0370      	lsls	r0, r6, #13
 80044f2:	bf42      	ittt	mi
 80044f4:	68ea      	ldrmi	r2, [r5, #12]
 80044f6:	f442 2280 	orrmi.w	r2, r2, #262144	@ 0x40000
 80044fa:	60ea      	strmi	r2, [r5, #12]
 80044fc:	b129      	cbz	r1, 800450a <HAL_RCC_OscConfig+0x7b2>
 80044fe:	f8d3 2094 	ldr.w	r2, [r3, #148]	@ 0x94
 8004502:	f022 0204 	bic.w	r2, r2, #4
 8004506:	f8c3 2094 	str.w	r2, [r3, #148]	@ 0x94
 800450a:	681a      	ldr	r2, [r3, #0]
 800450c:	4c16      	ldr	r4, [pc, #88]	@ (8004568 <HAL_RCC_OscConfig+0x810>)
 800450e:	f042 7280 	orr.w	r2, r2, #16777216	@ 0x1000000
 8004512:	601a      	str	r2, [r3, #0]
 8004514:	f7fe fbc0 	bl	8002c98 <HAL_GetTick>
 8004518:	4605      	mov	r5, r0
 800451a:	6823      	ldr	r3, [r4, #0]
 800451c:	019a      	lsls	r2, r3, #6
 800451e:	d50a      	bpl.n	8004536 <HAL_RCC_OscConfig+0x7de>
 8004520:	6aa3      	ldr	r3, [r4, #40]	@ 0x28
 8004522:	f443 2380 	orr.w	r3, r3, #262144	@ 0x40000
 8004526:	62a3      	str	r3, [r4, #40]	@ 0x28
 8004528:	e6bb      	b.n	80042a2 <HAL_RCC_OscConfig+0x54a>
 800452a:	f7fe fbb5 	bl	8002c98 <HAL_GetTick>
 800452e:	1b80      	subs	r0, r0, r6
 8004530:	2802      	cmp	r0, #2
 8004532:	d988      	bls.n	8004446 <HAL_RCC_OscConfig+0x6ee>
 8004534:	e4fc      	b.n	8003f30 <HAL_RCC_OscConfig+0x1d8>
 8004536:	f7fe fbaf 	bl	8002c98 <HAL_GetTick>
 800453a:	1b40      	subs	r0, r0, r5
 800453c:	2802      	cmp	r0, #2
 800453e:	d9ec      	bls.n	800451a <HAL_RCC_OscConfig+0x7c2>
 8004540:	e4f6      	b.n	8003f30 <HAL_RCC_OscConfig+0x1d8>
 8004542:	f7fe fba9 	bl	8002c98 <HAL_GetTick>
 8004546:	4604      	mov	r4, r0
 8004548:	682b      	ldr	r3, [r5, #0]
 800454a:	019b      	lsls	r3, r3, #6
 800454c:	d406      	bmi.n	800455c <HAL_RCC_OscConfig+0x804>
 800454e:	6aab      	ldr	r3, [r5, #40]	@ 0x28
 8004550:	f423 23e0 	bic.w	r3, r3, #458752	@ 0x70000
 8004554:	f023 0303 	bic.w	r3, r3, #3
 8004558:	62ab      	str	r3, [r5, #40]	@ 0x28
 800455a:	e6a2      	b.n	80042a2 <HAL_RCC_OscConfig+0x54a>
 800455c:	f7fe fb9c 	bl	8002c98 <HAL_GetTick>
 8004560:	1b00      	subs	r0, r0, r4
 8004562:	2802      	cmp	r0, #2
 8004564:	d9f0      	bls.n	8004548 <HAL_RCC_OscConfig+0x7f0>
 8004566:	e4e3      	b.n	8003f30 <HAL_RCC_OscConfig+0x1d8>
 8004568:	46020c00 	.word	0x46020c00
 800456c:	46020800 	.word	0x46020800
 8004570:	80800000 	.word	0x80800000
 8004574:	2901      	cmp	r1, #1
 8004576:	6aaa      	ldr	r2, [r5, #40]	@ 0x28
 8004578:	6b6b      	ldr	r3, [r5, #52]	@ 0x34
 800457a:	f43f ac2c 	beq.w	8003dd6 <HAL_RCC_OscConfig+0x7e>
 800457e:	6be0      	ldr	r0, [r4, #60]	@ 0x3c
 8004580:	f002 0103 	and.w	r1, r2, #3
 8004584:	4281      	cmp	r1, r0
 8004586:	f47f ac26 	bne.w	8003dd6 <HAL_RCC_OscConfig+0x7e>
 800458a:	6c21      	ldr	r1, [r4, #64]	@ 0x40
 800458c:	f3c2 2003 	ubfx	r0, r2, #8, #4
 8004590:	3901      	subs	r1, #1
 8004592:	4288      	cmp	r0, r1
 8004594:	f47f ac1f 	bne.w	8003dd6 <HAL_RCC_OscConfig+0x7e>
 8004598:	6c61      	ldr	r1, [r4, #68]	@ 0x44
 800459a:	f402 4270 	and.w	r2, r2, #61440	@ 0xf000
 800459e:	428a      	cmp	r2, r1
 80045a0:	f47f ac19 	bne.w	8003dd6 <HAL_RCC_OscConfig+0x7e>
 80045a4:	6ca2      	ldr	r2, [r4, #72]	@ 0x48
 80045a6:	f3c3 0108 	ubfx	r1, r3, #0, #9
 80045aa:	3a01      	subs	r2, #1
 80045ac:	4291      	cmp	r1, r2
 80045ae:	f47f ac12 	bne.w	8003dd6 <HAL_RCC_OscConfig+0x7e>
 80045b2:	6ce2      	ldr	r2, [r4, #76]	@ 0x4c
 80045b4:	f3c3 2146 	ubfx	r1, r3, #9, #7
 80045b8:	3a01      	subs	r2, #1
 80045ba:	4291      	cmp	r1, r2
 80045bc:	f47f ac0b 	bne.w	8003dd6 <HAL_RCC_OscConfig+0x7e>
 80045c0:	6d22      	ldr	r2, [r4, #80]	@ 0x50
 80045c2:	f3c3 4106 	ubfx	r1, r3, #16, #7
 80045c6:	3a01      	subs	r2, #1
 80045c8:	4291      	cmp	r1, r2
 80045ca:	f47f ac04 	bne.w	8003dd6 <HAL_RCC_OscConfig+0x7e>
 80045ce:	6d62      	ldr	r2, [r4, #84]	@ 0x54
 80045d0:	f3c3 6306 	ubfx	r3, r3, #24, #7
 80045d4:	3a01      	subs	r2, #1
 80045d6:	4293      	cmp	r3, r2
 80045d8:	f47f abfd 	bne.w	8003dd6 <HAL_RCC_OscConfig+0x7e>
 80045dc:	4b0d      	ldr	r3, [pc, #52]	@ (8004614 <HAL_RCC_OscConfig+0x8bc>)
 80045de:	6de1      	ldr	r1, [r4, #92]	@ 0x5c
 80045e0:	6b9a      	ldr	r2, [r3, #56]	@ 0x38
 80045e2:	f3c2 02cc 	ubfx	r2, r2, #3, #13
 80045e6:	428a      	cmp	r2, r1
 80045e8:	f43f ae5b 	beq.w	80042a2 <HAL_RCC_OscConfig+0x54a>
 80045ec:	6a9a      	ldr	r2, [r3, #40]	@ 0x28
 80045ee:	f022 0210 	bic.w	r2, r2, #16
 80045f2:	629a      	str	r2, [r3, #40]	@ 0x28
 80045f4:	f7fe fb50 	bl	8002c98 <HAL_GetTick>
 80045f8:	4605      	mov	r5, r0
 80045fa:	f7fe fb4d 	bl	8002c98 <HAL_GetTick>
 80045fe:	42a8      	cmp	r0, r5
 8004600:	d0fb      	beq.n	80045fa <HAL_RCC_OscConfig+0x8a2>
 8004602:	6de2      	ldr	r2, [r4, #92]	@ 0x5c
 8004604:	4b03      	ldr	r3, [pc, #12]	@ (8004614 <HAL_RCC_OscConfig+0x8bc>)
 8004606:	00d2      	lsls	r2, r2, #3
 8004608:	639a      	str	r2, [r3, #56]	@ 0x38
 800460a:	6a9a      	ldr	r2, [r3, #40]	@ 0x28
 800460c:	f042 0210 	orr.w	r2, r2, #16
 8004610:	629a      	str	r2, [r3, #40]	@ 0x28
 8004612:	e646      	b.n	80042a2 <HAL_RCC_OscConfig+0x54a>
 8004614:	46020c00 	.word	0x46020c00

08004618 <HAL_RCC_GetPCLK1Freq>:
 8004618:	b508      	push	{r3, lr}
 800461a:	f7ff fb89 	bl	8003d30 <HAL_RCC_GetHCLKFreq>
 800461e:	4b04      	ldr	r3, [pc, #16]	@ (8004630 <HAL_RCC_GetPCLK1Freq+0x18>)
 8004620:	4a04      	ldr	r2, [pc, #16]	@ (8004634 <HAL_RCC_GetPCLK1Freq+0x1c>)
 8004622:	6a1b      	ldr	r3, [r3, #32]
 8004624:	f3c3 1302 	ubfx	r3, r3, #4, #3
 8004628:	5cd3      	ldrb	r3, [r2, r3]
 800462a:	40d8      	lsrs	r0, r3
 800462c:	bd08      	pop	{r3, pc}
 800462e:	bf00      	nop
 8004630:	46020c00 	.word	0x46020c00
 8004634:	080093f8 	.word	0x080093f8

08004638 <HAL_RCC_GetPCLK2Freq>:
 8004638:	b508      	push	{r3, lr}
 800463a:	f7ff fb79 	bl	8003d30 <HAL_RCC_GetHCLKFreq>
 800463e:	4b04      	ldr	r3, [pc, #16]	@ (8004650 <HAL_RCC_GetPCLK2Freq+0x18>)
 8004640:	4a04      	ldr	r2, [pc, #16]	@ (8004654 <HAL_RCC_GetPCLK2Freq+0x1c>)
 8004642:	6a1b      	ldr	r3, [r3, #32]
 8004644:	f3c3 2302 	ubfx	r3, r3, #8, #3
 8004648:	5cd3      	ldrb	r3, [r2, r3]
 800464a:	40d8      	lsrs	r0, r3
 800464c:	bd08      	pop	{r3, pc}
 800464e:	bf00      	nop
 8004650:	46020c00 	.word	0x46020c00
 8004654:	080093f8 	.word	0x080093f8

08004658 <HAL_RCC_GetPCLK3Freq>:
 8004658:	b508      	push	{r3, lr}
 800465a:	f7ff fb69 	bl	8003d30 <HAL_RCC_GetHCLKFreq>
 800465e:	4b04      	ldr	r3, [pc, #16]	@ (8004670 <HAL_RCC_GetPCLK3Freq+0x18>)
 8004660:	4a04      	ldr	r2, [pc, #16]	@ (8004674 <HAL_RCC_GetPCLK3Freq+0x1c>)
 8004662:	6a5b      	ldr	r3, [r3, #36]	@ 0x24
 8004664:	f3c3 1302 	ubfx	r3, r3, #4, #3
 8004668:	5cd3      	ldrb	r3, [r2, r3]
 800466a:	40d8      	lsrs	r0, r3
 800466c:	bd08      	pop	{r3, pc}
 800466e:	bf00      	nop
 8004670:	46020c00 	.word	0x46020c00
 8004674:	080093f8 	.word	0x080093f8

08004678 <RCCEx_PLL3_Config>:
 8004678:	b570      	push	{r4, r5, r6, lr}
 800467a:	4c33      	ldr	r4, [pc, #204]	@ (8004748 <RCCEx_PLL3_Config+0xd0>)
 800467c:	4605      	mov	r5, r0
 800467e:	6823      	ldr	r3, [r4, #0]
 8004680:	f023 5380 	bic.w	r3, r3, #268435456	@ 0x10000000
 8004684:	6023      	str	r3, [r4, #0]
 8004686:	f7fe fb07 	bl	8002c98 <HAL_GetTick>
 800468a:	4606      	mov	r6, r0
 800468c:	6823      	ldr	r3, [r4, #0]
 800468e:	009a      	lsls	r2, r3, #2
 8004690:	d44d      	bmi.n	800472e <RCCEx_PLL3_Config+0xb6>
 8004692:	6b23      	ldr	r3, [r4, #48]	@ 0x30
 8004694:	6829      	ldr	r1, [r5, #0]
 8004696:	686a      	ldr	r2, [r5, #4]
 8004698:	f423 6370 	bic.w	r3, r3, #3840	@ 0xf00
 800469c:	f023 0303 	bic.w	r3, r3, #3
 80046a0:	3a01      	subs	r2, #1
 80046a2:	430b      	orrs	r3, r1
 80046a4:	ea43 2302 	orr.w	r3, r3, r2, lsl #8
 80046a8:	6323      	str	r3, [r4, #48]	@ 0x30
 80046aa:	68ab      	ldr	r3, [r5, #8]
 80046ac:	6c61      	ldr	r1, [r4, #68]	@ 0x44
 80046ae:	4a27      	ldr	r2, [pc, #156]	@ (800474c <RCCEx_PLL3_Config+0xd4>)
 80046b0:	3b01      	subs	r3, #1
 80046b2:	400a      	ands	r2, r1
 80046b4:	f3c3 0308 	ubfx	r3, r3, #0, #9
 80046b8:	4313      	orrs	r3, r2
 80046ba:	68ea      	ldr	r2, [r5, #12]
 80046bc:	3a01      	subs	r2, #1
 80046be:	0252      	lsls	r2, r2, #9
 80046c0:	b292      	uxth	r2, r2
 80046c2:	4313      	orrs	r3, r2
 80046c4:	692a      	ldr	r2, [r5, #16]
 80046c6:	3a01      	subs	r2, #1
 80046c8:	0412      	lsls	r2, r2, #16
 80046ca:	f402 02fe 	and.w	r2, r2, #8323072	@ 0x7f0000
 80046ce:	4313      	orrs	r3, r2
 80046d0:	696a      	ldr	r2, [r5, #20]
 80046d2:	3a01      	subs	r2, #1
 80046d4:	0612      	lsls	r2, r2, #24
 80046d6:	f002 42fe 	and.w	r2, r2, #2130706432	@ 0x7f000000
 80046da:	4313      	orrs	r3, r2
 80046dc:	6463      	str	r3, [r4, #68]	@ 0x44
 80046de:	6b23      	ldr	r3, [r4, #48]	@ 0x30
 80046e0:	69aa      	ldr	r2, [r5, #24]
 80046e2:	f023 030c 	bic.w	r3, r3, #12
 80046e6:	4313      	orrs	r3, r2
 80046e8:	6323      	str	r3, [r4, #48]	@ 0x30
 80046ea:	6b23      	ldr	r3, [r4, #48]	@ 0x30
 80046ec:	6a2a      	ldr	r2, [r5, #32]
 80046ee:	4313      	orrs	r3, r2
 80046f0:	6323      	str	r3, [r4, #48]	@ 0x30
 80046f2:	6b23      	ldr	r3, [r4, #48]	@ 0x30
 80046f4:	f023 0310 	bic.w	r3, r3, #16
 80046f8:	6323      	str	r3, [r4, #48]	@ 0x30
 80046fa:	6ca3      	ldr	r3, [r4, #72]	@ 0x48
 80046fc:	69ea      	ldr	r2, [r5, #28]
 80046fe:	f423 437f 	bic.w	r3, r3, #65280	@ 0xff00
 8004702:	f023 03f8 	bic.w	r3, r3, #248	@ 0xf8
 8004706:	ea43 03c2 	orr.w	r3, r3, r2, lsl #3
 800470a:	64a3      	str	r3, [r4, #72]	@ 0x48
 800470c:	6b23      	ldr	r3, [r4, #48]	@ 0x30
 800470e:	4d0e      	ldr	r5, [pc, #56]	@ (8004748 <RCCEx_PLL3_Config+0xd0>)
 8004710:	f043 0310 	orr.w	r3, r3, #16
 8004714:	6323      	str	r3, [r4, #48]	@ 0x30
 8004716:	6823      	ldr	r3, [r4, #0]
 8004718:	f043 5380 	orr.w	r3, r3, #268435456	@ 0x10000000
 800471c:	6023      	str	r3, [r4, #0]
 800471e:	f7fe fabb 	bl	8002c98 <HAL_GetTick>
 8004722:	4604      	mov	r4, r0
 8004724:	682b      	ldr	r3, [r5, #0]
 8004726:	009b      	lsls	r3, r3, #2
 8004728:	d508      	bpl.n	800473c <RCCEx_PLL3_Config+0xc4>
 800472a:	2000      	movs	r0, #0
 800472c:	e005      	b.n	800473a <RCCEx_PLL3_Config+0xc2>
 800472e:	f7fe fab3 	bl	8002c98 <HAL_GetTick>
 8004732:	1b80      	subs	r0, r0, r6
 8004734:	2802      	cmp	r0, #2
 8004736:	d9a9      	bls.n	800468c <RCCEx_PLL3_Config+0x14>
 8004738:	2003      	movs	r0, #3
 800473a:	bd70      	pop	{r4, r5, r6, pc}
 800473c:	f7fe faac 	bl	8002c98 <HAL_GetTick>
 8004740:	1b00      	subs	r0, r0, r4
 8004742:	2802      	cmp	r0, #2
 8004744:	d9ee      	bls.n	8004724 <RCCEx_PLL3_Config+0xac>
 8004746:	e7f7      	b.n	8004738 <RCCEx_PLL3_Config+0xc0>
 8004748:	46020c00 	.word	0x46020c00
 800474c:	80800000 	.word	0x80800000

08004750 <RCCEx_PLL2_Config>:
 8004750:	b570      	push	{r4, r5, r6, lr}
 8004752:	4c33      	ldr	r4, [pc, #204]	@ (8004820 <RCCEx_PLL2_Config+0xd0>)
 8004754:	4605      	mov	r5, r0
 8004756:	6823      	ldr	r3, [r4, #0]
 8004758:	f023 6380 	bic.w	r3, r3, #67108864	@ 0x4000000
 800475c:	6023      	str	r3, [r4, #0]
 800475e:	f7fe fa9b 	bl	8002c98 <HAL_GetTick>
 8004762:	4606      	mov	r6, r0
 8004764:	6823      	ldr	r3, [r4, #0]
 8004766:	011a      	lsls	r2, r3, #4
 8004768:	d44d      	bmi.n	8004806 <RCCEx_PLL2_Config+0xb6>
 800476a:	6ae3      	ldr	r3, [r4, #44]	@ 0x2c
 800476c:	6829      	ldr	r1, [r5, #0]
 800476e:	686a      	ldr	r2, [r5, #4]
 8004770:	f423 6370 	bic.w	r3, r3, #3840	@ 0xf00
 8004774:	f023 0303 	bic.w	r3, r3, #3
 8004778:	3a01      	subs	r2, #1
 800477a:	430b      	orrs	r3, r1
 800477c:	ea43 2302 	orr.w	r3, r3, r2, lsl #8
 8004780:	62e3      	str	r3, [r4, #44]	@ 0x2c
 8004782:	68ab      	ldr	r3, [r5, #8]
 8004784:	6be1      	ldr	r1, [r4, #60]	@ 0x3c
 8004786:	4a27      	ldr	r2, [pc, #156]	@ (8004824 <RCCEx_PLL2_Config+0xd4>)
 8004788:	3b01      	subs	r3, #1
 800478a:	400a      	ands	r2, r1
 800478c:	f3c3 0308 	ubfx	r3, r3, #0, #9
 8004790:	4313      	orrs	r3, r2
 8004792:	68ea      	ldr	r2, [r5, #12]
 8004794:	3a01      	subs	r2, #1
 8004796:	0252      	lsls	r2, r2, #9
 8004798:	b292      	uxth	r2, r2
 800479a:	4313      	orrs	r3, r2
 800479c:	692a      	ldr	r2, [r5, #16]
 800479e:	3a01      	subs	r2, #1
 80047a0:	0412      	lsls	r2, r2, #16
 80047a2:	f402 02fe 	and.w	r2, r2, #8323072	@ 0x7f0000
 80047a6:	4313      	orrs	r3, r2
 80047a8:	696a      	ldr	r2, [r5, #20]
 80047aa:	3a01      	subs	r2, #1
 80047ac:	0612      	lsls	r2, r2, #24
 80047ae:	f002 42fe 	and.w	r2, r2, #2130706432	@ 0x7f000000
 80047b2:	4313      	orrs	r3, r2
 80047b4:	63e3      	str	r3, [r4, #60]	@ 0x3c
 80047b6:	6ae3      	ldr	r3, [r4, #44]	@ 0x2c
 80047b8:	69aa      	ldr	r2, [r5, #24]
 80047ba:	f023 030c 	bic.w	r3, r3, #12
 80047be:	4313      	orrs	r3, r2
 80047c0:	62e3      	str	r3, [r4, #44]	@ 0x2c
 80047c2:	6ae3      	ldr	r3, [r4, #44]	@ 0x2c
 80047c4:	6a2a      	ldr	r2, [r5, #32]
 80047c6:	4313      	orrs	r3, r2
 80047c8:	62e3      	str	r3, [r4, #44]	@ 0x2c
 80047ca:	6ae3      	ldr	r3, [r4, #44]	@ 0x2c
 80047cc:	f023 0310 	bic.w	r3, r3, #16
 80047d0:	62e3      	str	r3, [r4, #44]	@ 0x2c
 80047d2:	6c23      	ldr	r3, [r4, #64]	@ 0x40
 80047d4:	69ea      	ldr	r2, [r5, #28]
 80047d6:	f423 437f 	bic.w	r3, r3, #65280	@ 0xff00
 80047da:	f023 03f8 	bic.w	r3, r3, #248	@ 0xf8
 80047de:	ea43 03c2 	orr.w	r3, r3, r2, lsl #3
 80047e2:	6423      	str	r3, [r4, #64]	@ 0x40
 80047e4:	6ae3      	ldr	r3, [r4, #44]	@ 0x2c
 80047e6:	4d0e      	ldr	r5, [pc, #56]	@ (8004820 <RCCEx_PLL2_Config+0xd0>)
 80047e8:	f043 0310 	orr.w	r3, r3, #16
 80047ec:	62e3      	str	r3, [r4, #44]	@ 0x2c
 80047ee:	6823      	ldr	r3, [r4, #0]
 80047f0:	f043 6380 	orr.w	r3, r3, #67108864	@ 0x4000000
 80047f4:	6023      	str	r3, [r4, #0]
 80047f6:	f7fe fa4f 	bl	8002c98 <HAL_GetTick>
 80047fa:	4604      	mov	r4, r0
 80047fc:	682b      	ldr	r3, [r5, #0]
 80047fe:	011b      	lsls	r3, r3, #4
 8004800:	d508      	bpl.n	8004814 <RCCEx_PLL2_Config+0xc4>
 8004802:	2000      	movs	r0, #0
 8004804:	e005      	b.n	8004812 <RCCEx_PLL2_Config+0xc2>
 8004806:	f7fe fa47 	bl	8002c98 <HAL_GetTick>
 800480a:	1b80      	subs	r0, r0, r6
 800480c:	2802      	cmp	r0, #2
 800480e:	d9a9      	bls.n	8004764 <RCCEx_PLL2_Config+0x14>
 8004810:	2003      	movs	r0, #3
 8004812:	bd70      	pop	{r4, r5, r6, pc}
 8004814:	f7fe fa40 	bl	8002c98 <HAL_GetTick>
 8004818:	1b00      	subs	r0, r0, r4
 800481a:	2802      	cmp	r0, #2
 800481c:	d9ee      	bls.n	80047fc <RCCEx_PLL2_Config+0xac>
 800481e:	e7f7      	b.n	8004810 <RCCEx_PLL2_Config+0xc0>
 8004820:	46020c00 	.word	0x46020c00
 8004824:	80800000 	.word	0x80800000

08004828 <HAL_RCCEx_PeriphCLKConfig>:
 8004828:	6803      	ldr	r3, [r0, #0]
 800482a:	e92d 47f3 	stmdb	sp!, {r0, r1, r4, r5, r6, r7, r8, r9, sl, lr}
 800482e:	07da      	lsls	r2, r3, #31
 8004830:	4605      	mov	r5, r0
 8004832:	d508      	bpl.n	8004846 <HAL_RCCEx_PeriphCLKConfig+0x1e>
 8004834:	49a5      	ldr	r1, [pc, #660]	@ (8004acc <HAL_RCCEx_PeriphCLKConfig+0x2a4>)
 8004836:	6d00      	ldr	r0, [r0, #80]	@ 0x50
 8004838:	f8d1 20e0 	ldr.w	r2, [r1, #224]	@ 0xe0
 800483c:	f022 0203 	bic.w	r2, r2, #3
 8004840:	4302      	orrs	r2, r0
 8004842:	f8c1 20e0 	str.w	r2, [r1, #224]	@ 0xe0
 8004846:	079f      	lsls	r7, r3, #30
 8004848:	d508      	bpl.n	800485c <HAL_RCCEx_PeriphCLKConfig+0x34>
 800484a:	49a0      	ldr	r1, [pc, #640]	@ (8004acc <HAL_RCCEx_PeriphCLKConfig+0x2a4>)
 800484c:	6d68      	ldr	r0, [r5, #84]	@ 0x54
 800484e:	f8d1 20e0 	ldr.w	r2, [r1, #224]	@ 0xe0
 8004852:	f022 020c 	bic.w	r2, r2, #12
 8004856:	4302      	orrs	r2, r0
 8004858:	f8c1 20e0 	str.w	r2, [r1, #224]	@ 0xe0
 800485c:	075e      	lsls	r6, r3, #29
 800485e:	d508      	bpl.n	8004872 <HAL_RCCEx_PeriphCLKConfig+0x4a>
 8004860:	499a      	ldr	r1, [pc, #616]	@ (8004acc <HAL_RCCEx_PeriphCLKConfig+0x2a4>)
 8004862:	6da8      	ldr	r0, [r5, #88]	@ 0x58
 8004864:	f8d1 20e0 	ldr.w	r2, [r1, #224]	@ 0xe0
 8004868:	f022 0230 	bic.w	r2, r2, #48	@ 0x30
 800486c:	4302      	orrs	r2, r0
 800486e:	f8c1 20e0 	str.w	r2, [r1, #224]	@ 0xe0
 8004872:	071c      	lsls	r4, r3, #28
 8004874:	d508      	bpl.n	8004888 <HAL_RCCEx_PeriphCLKConfig+0x60>
 8004876:	4995      	ldr	r1, [pc, #596]	@ (8004acc <HAL_RCCEx_PeriphCLKConfig+0x2a4>)
 8004878:	6de8      	ldr	r0, [r5, #92]	@ 0x5c
 800487a:	f8d1 20e0 	ldr.w	r2, [r1, #224]	@ 0xe0
 800487e:	f022 02c0 	bic.w	r2, r2, #192	@ 0xc0
 8004882:	4302      	orrs	r2, r0
 8004884:	f8c1 20e0 	str.w	r2, [r1, #224]	@ 0xe0
 8004888:	06d8      	lsls	r0, r3, #27
 800488a:	d508      	bpl.n	800489e <HAL_RCCEx_PeriphCLKConfig+0x76>
 800488c:	498f      	ldr	r1, [pc, #572]	@ (8004acc <HAL_RCCEx_PeriphCLKConfig+0x2a4>)
 800488e:	6e28      	ldr	r0, [r5, #96]	@ 0x60
 8004890:	f8d1 20e0 	ldr.w	r2, [r1, #224]	@ 0xe0
 8004894:	f422 7240 	bic.w	r2, r2, #768	@ 0x300
 8004898:	4302      	orrs	r2, r0
 800489a:	f8c1 20e0 	str.w	r2, [r1, #224]	@ 0xe0
 800489e:	0099      	lsls	r1, r3, #2
 80048a0:	d508      	bpl.n	80048b4 <HAL_RCCEx_PeriphCLKConfig+0x8c>
 80048a2:	498a      	ldr	r1, [pc, #552]	@ (8004acc <HAL_RCCEx_PeriphCLKConfig+0x2a4>)
 80048a4:	6e68      	ldr	r0, [r5, #100]	@ 0x64
 80048a6:	f8d1 20e4 	ldr.w	r2, [r1, #228]	@ 0xe4
 80048aa:	f422 3240 	bic.w	r2, r2, #196608	@ 0x30000
 80048ae:	4302      	orrs	r2, r0
 80048b0:	f8c1 20e4 	str.w	r2, [r1, #228]	@ 0xe4
 80048b4:	069a      	lsls	r2, r3, #26
 80048b6:	d508      	bpl.n	80048ca <HAL_RCCEx_PeriphCLKConfig+0xa2>
 80048b8:	4984      	ldr	r1, [pc, #528]	@ (8004acc <HAL_RCCEx_PeriphCLKConfig+0x2a4>)
 80048ba:	6ea8      	ldr	r0, [r5, #104]	@ 0x68
 80048bc:	f8d1 20e8 	ldr.w	r2, [r1, #232]	@ 0xe8
 80048c0:	f022 0207 	bic.w	r2, r2, #7
 80048c4:	4302      	orrs	r2, r0
 80048c6:	f8c1 20e8 	str.w	r2, [r1, #232]	@ 0xe8
 80048ca:	065f      	lsls	r7, r3, #25
 80048cc:	d508      	bpl.n	80048e0 <HAL_RCCEx_PeriphCLKConfig+0xb8>
 80048ce:	497f      	ldr	r1, [pc, #508]	@ (8004acc <HAL_RCCEx_PeriphCLKConfig+0x2a4>)
 80048d0:	6ee8      	ldr	r0, [r5, #108]	@ 0x6c
 80048d2:	f8d1 20e0 	ldr.w	r2, [r1, #224]	@ 0xe0
 80048d6:	f422 6240 	bic.w	r2, r2, #3072	@ 0xc00
 80048da:	4302      	orrs	r2, r0
 80048dc:	f8c1 20e0 	str.w	r2, [r1, #224]	@ 0xe0
 80048e0:	061e      	lsls	r6, r3, #24
 80048e2:	d508      	bpl.n	80048f6 <HAL_RCCEx_PeriphCLKConfig+0xce>
 80048e4:	4979      	ldr	r1, [pc, #484]	@ (8004acc <HAL_RCCEx_PeriphCLKConfig+0x2a4>)
 80048e6:	6f28      	ldr	r0, [r5, #112]	@ 0x70
 80048e8:	f8d1 20e0 	ldr.w	r2, [r1, #224]	@ 0xe0
 80048ec:	f422 5240 	bic.w	r2, r2, #12288	@ 0x3000
 80048f0:	4302      	orrs	r2, r0
 80048f2:	f8c1 20e0 	str.w	r2, [r1, #224]	@ 0xe0
 80048f6:	05dc      	lsls	r4, r3, #23
 80048f8:	d508      	bpl.n	800490c <HAL_RCCEx_PeriphCLKConfig+0xe4>
 80048fa:	4974      	ldr	r1, [pc, #464]	@ (8004acc <HAL_RCCEx_PeriphCLKConfig+0x2a4>)
 80048fc:	6f68      	ldr	r0, [r5, #116]	@ 0x74
 80048fe:	f8d1 20e8 	ldr.w	r2, [r1, #232]	@ 0xe8
 8004902:	f022 02c0 	bic.w	r2, r2, #192	@ 0xc0
 8004906:	4302      	orrs	r2, r0
 8004908:	f8c1 20e8 	str.w	r2, [r1, #232]	@ 0xe8
 800490c:	0258      	lsls	r0, r3, #9
 800490e:	d508      	bpl.n	8004922 <HAL_RCCEx_PeriphCLKConfig+0xfa>
 8004910:	496e      	ldr	r1, [pc, #440]	@ (8004acc <HAL_RCCEx_PeriphCLKConfig+0x2a4>)
 8004912:	6fa8      	ldr	r0, [r5, #120]	@ 0x78
 8004914:	f8d1 20e0 	ldr.w	r2, [r1, #224]	@ 0xe0
 8004918:	f422 4240 	bic.w	r2, r2, #49152	@ 0xc000
 800491c:	4302      	orrs	r2, r0
 800491e:	f8c1 20e0 	str.w	r2, [r1, #224]	@ 0xe0
 8004922:	0059      	lsls	r1, r3, #1
 8004924:	d508      	bpl.n	8004938 <HAL_RCCEx_PeriphCLKConfig+0x110>
 8004926:	4969      	ldr	r1, [pc, #420]	@ (8004acc <HAL_RCCEx_PeriphCLKConfig+0x2a4>)
 8004928:	6fe8      	ldr	r0, [r5, #124]	@ 0x7c
 800492a:	f8d1 20e4 	ldr.w	r2, [r1, #228]	@ 0xe4
 800492e:	f022 7240 	bic.w	r2, r2, #50331648	@ 0x3000000
 8004932:	4302      	orrs	r2, r0
 8004934:	f8c1 20e4 	str.w	r2, [r1, #228]	@ 0xe4
 8004938:	2b00      	cmp	r3, #0
 800493a:	da09      	bge.n	8004950 <HAL_RCCEx_PeriphCLKConfig+0x128>
 800493c:	4963      	ldr	r1, [pc, #396]	@ (8004acc <HAL_RCCEx_PeriphCLKConfig+0x2a4>)
 800493e:	f8d5 0080 	ldr.w	r0, [r5, #128]	@ 0x80
 8004942:	f8d1 20e4 	ldr.w	r2, [r1, #228]	@ 0xe4
 8004946:	f022 6240 	bic.w	r2, r2, #201326592	@ 0xc000000
 800494a:	4302      	orrs	r2, r0
 800494c:	f8c1 20e4 	str.w	r2, [r1, #228]	@ 0xe4
 8004950:	059a      	lsls	r2, r3, #22
 8004952:	d509      	bpl.n	8004968 <HAL_RCCEx_PeriphCLKConfig+0x140>
 8004954:	495d      	ldr	r1, [pc, #372]	@ (8004acc <HAL_RCCEx_PeriphCLKConfig+0x2a4>)
 8004956:	f8d5 0084 	ldr.w	r0, [r5, #132]	@ 0x84
 800495a:	f8d1 20e8 	ldr.w	r2, [r1, #232]	@ 0xe8
 800495e:	f422 6240 	bic.w	r2, r2, #3072	@ 0xc00
 8004962:	4302      	orrs	r2, r0
 8004964:	f8c1 20e8 	str.w	r2, [r1, #232]	@ 0xe8
 8004968:	055f      	lsls	r7, r3, #21
 800496a:	d509      	bpl.n	8004980 <HAL_RCCEx_PeriphCLKConfig+0x158>
 800496c:	4957      	ldr	r1, [pc, #348]	@ (8004acc <HAL_RCCEx_PeriphCLKConfig+0x2a4>)
 800496e:	f8d5 0088 	ldr.w	r0, [r5, #136]	@ 0x88
 8004972:	f8d1 20e0 	ldr.w	r2, [r1, #224]	@ 0xe0
 8004976:	f422 2240 	bic.w	r2, r2, #786432	@ 0xc0000
 800497a:	4302      	orrs	r2, r0
 800497c:	f8c1 20e0 	str.w	r2, [r1, #224]	@ 0xe0
 8004980:	051e      	lsls	r6, r3, #20
 8004982:	d509      	bpl.n	8004998 <HAL_RCCEx_PeriphCLKConfig+0x170>
 8004984:	4951      	ldr	r1, [pc, #324]	@ (8004acc <HAL_RCCEx_PeriphCLKConfig+0x2a4>)
 8004986:	f8d5 008c 	ldr.w	r0, [r5, #140]	@ 0x8c
 800498a:	f8d1 20e8 	ldr.w	r2, [r1, #232]	@ 0xe8
 800498e:	f422 7240 	bic.w	r2, r2, #768	@ 0x300
 8004992:	4302      	orrs	r2, r0
 8004994:	f8c1 20e8 	str.w	r2, [r1, #232]	@ 0xe8
 8004998:	049c      	lsls	r4, r3, #18
 800499a:	d527      	bpl.n	80049ec <HAL_RCCEx_PeriphCLKConfig+0x1c4>
 800499c:	f8d5 309c 	ldr.w	r3, [r5, #156]	@ 0x9c
 80049a0:	2b40      	cmp	r3, #64	@ 0x40
 80049a2:	d025      	beq.n	80049f0 <HAL_RCCEx_PeriphCLKConfig+0x1c8>
 80049a4:	d814      	bhi.n	80049d0 <HAL_RCCEx_PeriphCLKConfig+0x1a8>
 80049a6:	b34b      	cbz	r3, 80049fc <HAL_RCCEx_PeriphCLKConfig+0x1d4>
 80049a8:	2b20      	cmp	r3, #32
 80049aa:	d02f      	beq.n	8004a0c <HAL_RCCEx_PeriphCLKConfig+0x1e4>
 80049ac:	2601      	movs	r6, #1
 80049ae:	682b      	ldr	r3, [r5, #0]
 80049b0:	0458      	lsls	r0, r3, #17
 80049b2:	d50b      	bpl.n	80049cc <HAL_RCCEx_PeriphCLKConfig+0x1a4>
 80049b4:	f8d5 30a0 	ldr.w	r3, [r5, #160]	@ 0xa0
 80049b8:	f5b3 7f00 	cmp.w	r3, #512	@ 0x200
 80049bc:	d058      	beq.n	8004a70 <HAL_RCCEx_PeriphCLKConfig+0x248>
 80049be:	d82a      	bhi.n	8004a16 <HAL_RCCEx_PeriphCLKConfig+0x1ee>
 80049c0:	2b00      	cmp	r3, #0
 80049c2:	d05b      	beq.n	8004a7c <HAL_RCCEx_PeriphCLKConfig+0x254>
 80049c4:	f5b3 7f80 	cmp.w	r3, #256	@ 0x100
 80049c8:	d05e      	beq.n	8004a88 <HAL_RCCEx_PeriphCLKConfig+0x260>
 80049ca:	2601      	movs	r6, #1
 80049cc:	4634      	mov	r4, r6
 80049ce:	e035      	b.n	8004a3c <HAL_RCCEx_PeriphCLKConfig+0x214>
 80049d0:	2b60      	cmp	r3, #96	@ 0x60
 80049d2:	d001      	beq.n	80049d8 <HAL_RCCEx_PeriphCLKConfig+0x1b0>
 80049d4:	2b80      	cmp	r3, #128	@ 0x80
 80049d6:	d1e9      	bne.n	80049ac <HAL_RCCEx_PeriphCLKConfig+0x184>
 80049d8:	4a3c      	ldr	r2, [pc, #240]	@ (8004acc <HAL_RCCEx_PeriphCLKConfig+0x2a4>)
 80049da:	f8d5 109c 	ldr.w	r1, [r5, #156]	@ 0x9c
 80049de:	f8d2 30e4 	ldr.w	r3, [r2, #228]	@ 0xe4
 80049e2:	f023 03e0 	bic.w	r3, r3, #224	@ 0xe0
 80049e6:	430b      	orrs	r3, r1
 80049e8:	f8c2 30e4 	str.w	r3, [r2, #228]	@ 0xe4
 80049ec:	2600      	movs	r6, #0
 80049ee:	e7de      	b.n	80049ae <HAL_RCCEx_PeriphCLKConfig+0x186>
 80049f0:	4a36      	ldr	r2, [pc, #216]	@ (8004acc <HAL_RCCEx_PeriphCLKConfig+0x2a4>)
 80049f2:	6a93      	ldr	r3, [r2, #40]	@ 0x28
 80049f4:	f443 3380 	orr.w	r3, r3, #65536	@ 0x10000
 80049f8:	6293      	str	r3, [r2, #40]	@ 0x28
 80049fa:	e7ed      	b.n	80049d8 <HAL_RCCEx_PeriphCLKConfig+0x1b0>
 80049fc:	f105 0008 	add.w	r0, r5, #8
 8004a00:	f7ff fea6 	bl	8004750 <RCCEx_PLL2_Config>
 8004a04:	4606      	mov	r6, r0
 8004a06:	2800      	cmp	r0, #0
 8004a08:	d1d1      	bne.n	80049ae <HAL_RCCEx_PeriphCLKConfig+0x186>
 8004a0a:	e7e5      	b.n	80049d8 <HAL_RCCEx_PeriphCLKConfig+0x1b0>
 8004a0c:	f105 002c 	add.w	r0, r5, #44	@ 0x2c
 8004a10:	f7ff fe32 	bl	8004678 <RCCEx_PLL3_Config>
 8004a14:	e7f6      	b.n	8004a04 <HAL_RCCEx_PeriphCLKConfig+0x1dc>
 8004a16:	f5b3 7f40 	cmp.w	r3, #768	@ 0x300
 8004a1a:	d002      	beq.n	8004a22 <HAL_RCCEx_PeriphCLKConfig+0x1fa>
 8004a1c:	f5b3 6f80 	cmp.w	r3, #1024	@ 0x400
 8004a20:	d1d3      	bne.n	80049ca <HAL_RCCEx_PeriphCLKConfig+0x1a2>
 8004a22:	4634      	mov	r4, r6
 8004a24:	2c00      	cmp	r4, #0
 8004a26:	d134      	bne.n	8004a92 <HAL_RCCEx_PeriphCLKConfig+0x26a>
 8004a28:	4a28      	ldr	r2, [pc, #160]	@ (8004acc <HAL_RCCEx_PeriphCLKConfig+0x2a4>)
 8004a2a:	f8d5 10a0 	ldr.w	r1, [r5, #160]	@ 0xa0
 8004a2e:	f8d2 30e4 	ldr.w	r3, [r2, #228]	@ 0xe4
 8004a32:	f423 63e0 	bic.w	r3, r3, #1792	@ 0x700
 8004a36:	430b      	orrs	r3, r1
 8004a38:	f8c2 30e4 	str.w	r3, [r2, #228]	@ 0xe4
 8004a3c:	682b      	ldr	r3, [r5, #0]
 8004a3e:	0419      	lsls	r1, r3, #16
 8004a40:	d50a      	bpl.n	8004a58 <HAL_RCCEx_PeriphCLKConfig+0x230>
 8004a42:	f8d5 30b4 	ldr.w	r3, [r5, #180]	@ 0xb4
 8004a46:	f5b3 5f00 	cmp.w	r3, #8192	@ 0x2000
 8004a4a:	d036      	beq.n	8004aba <HAL_RCCEx_PeriphCLKConfig+0x292>
 8004a4c:	f423 5280 	bic.w	r2, r3, #4096	@ 0x1000
 8004a50:	d821      	bhi.n	8004a96 <HAL_RCCEx_PeriphCLKConfig+0x26e>
 8004a52:	b332      	cbz	r2, 8004aa2 <HAL_RCCEx_PeriphCLKConfig+0x27a>
 8004a54:	2601      	movs	r6, #1
 8004a56:	4634      	mov	r4, r6
 8004a58:	682b      	ldr	r3, [r5, #0]
 8004a5a:	03da      	lsls	r2, r3, #15
 8004a5c:	d548      	bpl.n	8004af0 <HAL_RCCEx_PeriphCLKConfig+0x2c8>
 8004a5e:	f8d5 3094 	ldr.w	r3, [r5, #148]	@ 0x94
 8004a62:	2b04      	cmp	r3, #4
 8004a64:	d85a      	bhi.n	8004b1c <HAL_RCCEx_PeriphCLKConfig+0x2f4>
 8004a66:	e8df f003 	tbb	[pc, r3]
 8004a6a:	3338      	.short	0x3338
 8004a6c:	3853      	.short	0x3853
 8004a6e:	38          	.byte	0x38
 8004a6f:	00          	.byte	0x00
 8004a70:	4a16      	ldr	r2, [pc, #88]	@ (8004acc <HAL_RCCEx_PeriphCLKConfig+0x2a4>)
 8004a72:	6a93      	ldr	r3, [r2, #40]	@ 0x28
 8004a74:	f443 3380 	orr.w	r3, r3, #65536	@ 0x10000
 8004a78:	6293      	str	r3, [r2, #40]	@ 0x28
 8004a7a:	e7d2      	b.n	8004a22 <HAL_RCCEx_PeriphCLKConfig+0x1fa>
 8004a7c:	f105 0008 	add.w	r0, r5, #8
 8004a80:	f7ff fe66 	bl	8004750 <RCCEx_PLL2_Config>
 8004a84:	4604      	mov	r4, r0
 8004a86:	e7cd      	b.n	8004a24 <HAL_RCCEx_PeriphCLKConfig+0x1fc>
 8004a88:	f105 002c 	add.w	r0, r5, #44	@ 0x2c
 8004a8c:	f7ff fdf4 	bl	8004678 <RCCEx_PLL3_Config>
 8004a90:	e7f8      	b.n	8004a84 <HAL_RCCEx_PeriphCLKConfig+0x25c>
 8004a92:	4626      	mov	r6, r4
 8004a94:	e7d2      	b.n	8004a3c <HAL_RCCEx_PeriphCLKConfig+0x214>
 8004a96:	f5b2 4f80 	cmp.w	r2, #16384	@ 0x4000
 8004a9a:	d002      	beq.n	8004aa2 <HAL_RCCEx_PeriphCLKConfig+0x27a>
 8004a9c:	f5b3 5f40 	cmp.w	r3, #12288	@ 0x3000
 8004aa0:	d1d8      	bne.n	8004a54 <HAL_RCCEx_PeriphCLKConfig+0x22c>
 8004aa2:	b984      	cbnz	r4, 8004ac6 <HAL_RCCEx_PeriphCLKConfig+0x29e>
 8004aa4:	4a09      	ldr	r2, [pc, #36]	@ (8004acc <HAL_RCCEx_PeriphCLKConfig+0x2a4>)
 8004aa6:	f8d5 10b4 	ldr.w	r1, [r5, #180]	@ 0xb4
 8004aaa:	f8d2 30e8 	ldr.w	r3, [r2, #232]	@ 0xe8
 8004aae:	f423 43e0 	bic.w	r3, r3, #28672	@ 0x7000
 8004ab2:	430b      	orrs	r3, r1
 8004ab4:	f8c2 30e8 	str.w	r3, [r2, #232]	@ 0xe8
 8004ab8:	e7ce      	b.n	8004a58 <HAL_RCCEx_PeriphCLKConfig+0x230>
 8004aba:	f105 0008 	add.w	r0, r5, #8
 8004abe:	f7ff fe47 	bl	8004750 <RCCEx_PLL2_Config>
 8004ac2:	4604      	mov	r4, r0
 8004ac4:	e7ed      	b.n	8004aa2 <HAL_RCCEx_PeriphCLKConfig+0x27a>
 8004ac6:	4626      	mov	r6, r4
 8004ac8:	e7c6      	b.n	8004a58 <HAL_RCCEx_PeriphCLKConfig+0x230>
 8004aca:	bf00      	nop
 8004acc:	46020c00 	.word	0x46020c00
 8004ad0:	4a69      	ldr	r2, [pc, #420]	@ (8004c78 <HAL_RCCEx_PeriphCLKConfig+0x450>)
 8004ad2:	6a93      	ldr	r3, [r2, #40]	@ 0x28
 8004ad4:	f443 3380 	orr.w	r3, r3, #65536	@ 0x10000
 8004ad8:	6293      	str	r3, [r2, #40]	@ 0x28
 8004ada:	bb14      	cbnz	r4, 8004b22 <HAL_RCCEx_PeriphCLKConfig+0x2fa>
 8004adc:	4a66      	ldr	r2, [pc, #408]	@ (8004c78 <HAL_RCCEx_PeriphCLKConfig+0x450>)
 8004ade:	f8d5 1094 	ldr.w	r1, [r5, #148]	@ 0x94
 8004ae2:	f8d2 30e4 	ldr.w	r3, [r2, #228]	@ 0xe4
 8004ae6:	f023 0307 	bic.w	r3, r3, #7
 8004aea:	430b      	orrs	r3, r1
 8004aec:	f8c2 30e4 	str.w	r3, [r2, #228]	@ 0xe4
 8004af0:	682b      	ldr	r3, [r5, #0]
 8004af2:	039b      	lsls	r3, r3, #14
 8004af4:	d529      	bpl.n	8004b4a <HAL_RCCEx_PeriphCLKConfig+0x322>
 8004af6:	f8d5 3098 	ldr.w	r3, [r5, #152]	@ 0x98
 8004afa:	f5b3 3f00 	cmp.w	r3, #131072	@ 0x20000
 8004afe:	d07d      	beq.n	8004bfc <HAL_RCCEx_PeriphCLKConfig+0x3d4>
 8004b00:	d811      	bhi.n	8004b26 <HAL_RCCEx_PeriphCLKConfig+0x2fe>
 8004b02:	b1b3      	cbz	r3, 8004b32 <HAL_RCCEx_PeriphCLKConfig+0x30a>
 8004b04:	f5b3 3f80 	cmp.w	r3, #65536	@ 0x10000
 8004b08:	d072      	beq.n	8004bf0 <HAL_RCCEx_PeriphCLKConfig+0x3c8>
 8004b0a:	2601      	movs	r6, #1
 8004b0c:	4634      	mov	r4, r6
 8004b0e:	e01c      	b.n	8004b4a <HAL_RCCEx_PeriphCLKConfig+0x322>
 8004b10:	f105 002c 	add.w	r0, r5, #44	@ 0x2c
 8004b14:	f7ff fdb0 	bl	8004678 <RCCEx_PLL3_Config>
 8004b18:	4604      	mov	r4, r0
 8004b1a:	e7de      	b.n	8004ada <HAL_RCCEx_PeriphCLKConfig+0x2b2>
 8004b1c:	2601      	movs	r6, #1
 8004b1e:	4634      	mov	r4, r6
 8004b20:	e7e6      	b.n	8004af0 <HAL_RCCEx_PeriphCLKConfig+0x2c8>
 8004b22:	4626      	mov	r6, r4
 8004b24:	e7e4      	b.n	8004af0 <HAL_RCCEx_PeriphCLKConfig+0x2c8>
 8004b26:	f5b3 3f40 	cmp.w	r3, #196608	@ 0x30000
 8004b2a:	d002      	beq.n	8004b32 <HAL_RCCEx_PeriphCLKConfig+0x30a>
 8004b2c:	f5b3 2f80 	cmp.w	r3, #262144	@ 0x40000
 8004b30:	d1eb      	bne.n	8004b0a <HAL_RCCEx_PeriphCLKConfig+0x2e2>
 8004b32:	2c00      	cmp	r4, #0
 8004b34:	d168      	bne.n	8004c08 <HAL_RCCEx_PeriphCLKConfig+0x3e0>
 8004b36:	4a50      	ldr	r2, [pc, #320]	@ (8004c78 <HAL_RCCEx_PeriphCLKConfig+0x450>)
 8004b38:	f8d5 1098 	ldr.w	r1, [r5, #152]	@ 0x98
 8004b3c:	f8d2 30e8 	ldr.w	r3, [r2, #232]	@ 0xe8
 8004b40:	f423 23e0 	bic.w	r3, r3, #458752	@ 0x70000
 8004b44:	430b      	orrs	r3, r1
 8004b46:	f8c2 30e8 	str.w	r3, [r2, #232]	@ 0xe8
 8004b4a:	682b      	ldr	r3, [r5, #0]
 8004b4c:	035f      	lsls	r7, r3, #13
 8004b4e:	d53c      	bpl.n	8004bca <HAL_RCCEx_PeriphCLKConfig+0x3a2>
 8004b50:	4b49      	ldr	r3, [pc, #292]	@ (8004c78 <HAL_RCCEx_PeriphCLKConfig+0x450>)
 8004b52:	f8d3 2094 	ldr.w	r2, [r3, #148]	@ 0x94
 8004b56:	0750      	lsls	r0, r2, #29
 8004b58:	d458      	bmi.n	8004c0c <HAL_RCCEx_PeriphCLKConfig+0x3e4>
 8004b5a:	2701      	movs	r7, #1
 8004b5c:	f8d3 2094 	ldr.w	r2, [r3, #148]	@ 0x94
 8004b60:	f042 0204 	orr.w	r2, r2, #4
 8004b64:	f8c3 2094 	str.w	r2, [r3, #148]	@ 0x94
 8004b68:	f8d3 3094 	ldr.w	r3, [r3, #148]	@ 0x94
 8004b6c:	f003 0304 	and.w	r3, r3, #4
 8004b70:	9301      	str	r3, [sp, #4]
 8004b72:	9b01      	ldr	r3, [sp, #4]
 8004b74:	f8df 8104 	ldr.w	r8, [pc, #260]	@ 8004c7c <HAL_RCCEx_PeriphCLKConfig+0x454>
 8004b78:	f8d8 3028 	ldr.w	r3, [r8, #40]	@ 0x28
 8004b7c:	f043 0301 	orr.w	r3, r3, #1
 8004b80:	f8c8 3028 	str.w	r3, [r8, #40]	@ 0x28
 8004b84:	f7fe f888 	bl	8002c98 <HAL_GetTick>
 8004b88:	4681      	mov	r9, r0
 8004b8a:	f8d8 3028 	ldr.w	r3, [r8, #40]	@ 0x28
 8004b8e:	07d9      	lsls	r1, r3, #31
 8004b90:	d53e      	bpl.n	8004c10 <HAL_RCCEx_PeriphCLKConfig+0x3e8>
 8004b92:	2c00      	cmp	r4, #0
 8004b94:	d16d      	bne.n	8004c72 <HAL_RCCEx_PeriphCLKConfig+0x44a>
 8004b96:	4b38      	ldr	r3, [pc, #224]	@ (8004c78 <HAL_RCCEx_PeriphCLKConfig+0x450>)
 8004b98:	f8d5 20d0 	ldr.w	r2, [r5, #208]	@ 0xd0
 8004b9c:	f8d3 10f0 	ldr.w	r1, [r3, #240]	@ 0xf0
 8004ba0:	f411 7140 	ands.w	r1, r1, #768	@ 0x300
 8004ba4:	d13d      	bne.n	8004c22 <HAL_RCCEx_PeriphCLKConfig+0x3fa>
 8004ba6:	4a34      	ldr	r2, [pc, #208]	@ (8004c78 <HAL_RCCEx_PeriphCLKConfig+0x450>)
 8004ba8:	f8d5 10d0 	ldr.w	r1, [r5, #208]	@ 0xd0
 8004bac:	f8d2 30f0 	ldr.w	r3, [r2, #240]	@ 0xf0
 8004bb0:	f423 7340 	bic.w	r3, r3, #768	@ 0x300
 8004bb4:	430b      	orrs	r3, r1
 8004bb6:	f8c2 30f0 	str.w	r3, [r2, #240]	@ 0xf0
 8004bba:	b137      	cbz	r7, 8004bca <HAL_RCCEx_PeriphCLKConfig+0x3a2>
 8004bbc:	4a2e      	ldr	r2, [pc, #184]	@ (8004c78 <HAL_RCCEx_PeriphCLKConfig+0x450>)
 8004bbe:	f8d2 3094 	ldr.w	r3, [r2, #148]	@ 0x94
 8004bc2:	f023 0304 	bic.w	r3, r3, #4
 8004bc6:	f8c2 3094 	str.w	r3, [r2, #148]	@ 0x94
 8004bca:	682b      	ldr	r3, [r5, #0]
 8004bcc:	02d8      	lsls	r0, r3, #11
 8004bce:	d567      	bpl.n	8004ca0 <HAL_RCCEx_PeriphCLKConfig+0x478>
 8004bd0:	f8d5 30ac 	ldr.w	r3, [r5, #172]	@ 0xac
 8004bd4:	f1b3 6f00 	cmp.w	r3, #134217728	@ 0x8000000
 8004bd8:	f000 8127 	beq.w	8004e2a <HAL_RCCEx_PeriphCLKConfig+0x602>
 8004bdc:	d850      	bhi.n	8004c80 <HAL_RCCEx_PeriphCLKConfig+0x458>
 8004bde:	2b00      	cmp	r3, #0
 8004be0:	d051      	beq.n	8004c86 <HAL_RCCEx_PeriphCLKConfig+0x45e>
 8004be2:	f1b3 6f80 	cmp.w	r3, #67108864	@ 0x4000000
 8004be6:	f000 811a 	beq.w	8004e1e <HAL_RCCEx_PeriphCLKConfig+0x5f6>
 8004bea:	2601      	movs	r6, #1
 8004bec:	4634      	mov	r4, r6
 8004bee:	e057      	b.n	8004ca0 <HAL_RCCEx_PeriphCLKConfig+0x478>
 8004bf0:	4a21      	ldr	r2, [pc, #132]	@ (8004c78 <HAL_RCCEx_PeriphCLKConfig+0x450>)
 8004bf2:	6a93      	ldr	r3, [r2, #40]	@ 0x28
 8004bf4:	f443 3380 	orr.w	r3, r3, #65536	@ 0x10000
 8004bf8:	6293      	str	r3, [r2, #40]	@ 0x28
 8004bfa:	e79a      	b.n	8004b32 <HAL_RCCEx_PeriphCLKConfig+0x30a>
 8004bfc:	f105 002c 	add.w	r0, r5, #44	@ 0x2c
 8004c00:	f7ff fd3a 	bl	8004678 <RCCEx_PLL3_Config>
 8004c04:	4604      	mov	r4, r0
 8004c06:	e794      	b.n	8004b32 <HAL_RCCEx_PeriphCLKConfig+0x30a>
 8004c08:	4626      	mov	r6, r4
 8004c0a:	e79e      	b.n	8004b4a <HAL_RCCEx_PeriphCLKConfig+0x322>
 8004c0c:	2700      	movs	r7, #0
 8004c0e:	e7b1      	b.n	8004b74 <HAL_RCCEx_PeriphCLKConfig+0x34c>
 8004c10:	f7fe f842 	bl	8002c98 <HAL_GetTick>
 8004c14:	eba0 0009 	sub.w	r0, r0, r9
 8004c18:	2802      	cmp	r0, #2
 8004c1a:	d9b6      	bls.n	8004b8a <HAL_RCCEx_PeriphCLKConfig+0x362>
 8004c1c:	2603      	movs	r6, #3
 8004c1e:	4634      	mov	r4, r6
 8004c20:	e7cb      	b.n	8004bba <HAL_RCCEx_PeriphCLKConfig+0x392>
 8004c22:	4291      	cmp	r1, r2
 8004c24:	d011      	beq.n	8004c4a <HAL_RCCEx_PeriphCLKConfig+0x422>
 8004c26:	f8d3 20f0 	ldr.w	r2, [r3, #240]	@ 0xf0
 8004c2a:	f8d3 10f0 	ldr.w	r1, [r3, #240]	@ 0xf0
 8004c2e:	f422 7240 	bic.w	r2, r2, #768	@ 0x300
 8004c32:	f441 3180 	orr.w	r1, r1, #65536	@ 0x10000
 8004c36:	f8c3 10f0 	str.w	r1, [r3, #240]	@ 0xf0
 8004c3a:	f8d3 10f0 	ldr.w	r1, [r3, #240]	@ 0xf0
 8004c3e:	f421 3180 	bic.w	r1, r1, #65536	@ 0x10000
 8004c42:	f8c3 10f0 	str.w	r1, [r3, #240]	@ 0xf0
 8004c46:	f8c3 20f0 	str.w	r2, [r3, #240]	@ 0xf0
 8004c4a:	07d2      	lsls	r2, r2, #31
 8004c4c:	d5ab      	bpl.n	8004ba6 <HAL_RCCEx_PeriphCLKConfig+0x37e>
 8004c4e:	f7fe f823 	bl	8002c98 <HAL_GetTick>
 8004c52:	f241 3a88 	movw	sl, #5000	@ 0x1388
 8004c56:	4680      	mov	r8, r0
 8004c58:	f8df 901c 	ldr.w	r9, [pc, #28]	@ 8004c78 <HAL_RCCEx_PeriphCLKConfig+0x450>
 8004c5c:	f8d9 30f0 	ldr.w	r3, [r9, #240]	@ 0xf0
 8004c60:	079b      	lsls	r3, r3, #30
 8004c62:	d4a0      	bmi.n	8004ba6 <HAL_RCCEx_PeriphCLKConfig+0x37e>
 8004c64:	f7fe f818 	bl	8002c98 <HAL_GetTick>
 8004c68:	eba0 0008 	sub.w	r0, r0, r8
 8004c6c:	4550      	cmp	r0, sl
 8004c6e:	d9f5      	bls.n	8004c5c <HAL_RCCEx_PeriphCLKConfig+0x434>
 8004c70:	e7d4      	b.n	8004c1c <HAL_RCCEx_PeriphCLKConfig+0x3f4>
 8004c72:	4626      	mov	r6, r4
 8004c74:	e7a1      	b.n	8004bba <HAL_RCCEx_PeriphCLKConfig+0x392>
 8004c76:	bf00      	nop
 8004c78:	46020c00 	.word	0x46020c00
 8004c7c:	46020800 	.word	0x46020800
 8004c80:	f1b3 6f40 	cmp.w	r3, #201326592	@ 0xc000000
 8004c84:	d1b1      	bne.n	8004bea <HAL_RCCEx_PeriphCLKConfig+0x3c2>
 8004c86:	2c00      	cmp	r4, #0
 8004c88:	f040 80d5 	bne.w	8004e36 <HAL_RCCEx_PeriphCLKConfig+0x60e>
 8004c8c:	4a92      	ldr	r2, [pc, #584]	@ (8004ed8 <HAL_RCCEx_PeriphCLKConfig+0x6b0>)
 8004c8e:	f8d5 10ac 	ldr.w	r1, [r5, #172]	@ 0xac
 8004c92:	f8d2 30e0 	ldr.w	r3, [r2, #224]	@ 0xe0
 8004c96:	f023 6340 	bic.w	r3, r3, #201326592	@ 0xc000000
 8004c9a:	430b      	orrs	r3, r1
 8004c9c:	f8c2 30e0 	str.w	r3, [r2, #224]	@ 0xe0
 8004ca0:	682b      	ldr	r3, [r5, #0]
 8004ca2:	0319      	lsls	r1, r3, #12
 8004ca4:	d513      	bpl.n	8004cce <HAL_RCCEx_PeriphCLKConfig+0x4a6>
 8004ca6:	f8d5 10a4 	ldr.w	r1, [r5, #164]	@ 0xa4
 8004caa:	f431 5280 	bics.w	r2, r1, #4096	@ 0x1000
 8004cae:	d003      	beq.n	8004cb8 <HAL_RCCEx_PeriphCLKConfig+0x490>
 8004cb0:	f5b1 5f00 	cmp.w	r1, #8192	@ 0x2000
 8004cb4:	f040 80c1 	bne.w	8004e3a <HAL_RCCEx_PeriphCLKConfig+0x612>
 8004cb8:	2c00      	cmp	r4, #0
 8004cba:	f040 80c1 	bne.w	8004e40 <HAL_RCCEx_PeriphCLKConfig+0x618>
 8004cbe:	4886      	ldr	r0, [pc, #536]	@ (8004ed8 <HAL_RCCEx_PeriphCLKConfig+0x6b0>)
 8004cc0:	f8d0 20e4 	ldr.w	r2, [r0, #228]	@ 0xe4
 8004cc4:	f422 5240 	bic.w	r2, r2, #12288	@ 0x3000
 8004cc8:	430a      	orrs	r2, r1
 8004cca:	f8c0 20e4 	str.w	r2, [r0, #228]	@ 0xe4
 8004cce:	04da      	lsls	r2, r3, #19
 8004cd0:	d509      	bpl.n	8004ce6 <HAL_RCCEx_PeriphCLKConfig+0x4be>
 8004cd2:	4981      	ldr	r1, [pc, #516]	@ (8004ed8 <HAL_RCCEx_PeriphCLKConfig+0x6b0>)
 8004cd4:	f8d5 00a8 	ldr.w	r0, [r5, #168]	@ 0xa8
 8004cd8:	f8d1 20e4 	ldr.w	r2, [r1, #228]	@ 0xe4
 8004cdc:	f422 6200 	bic.w	r2, r2, #2048	@ 0x800
 8004ce0:	4302      	orrs	r2, r0
 8004ce2:	f8c1 20e4 	str.w	r2, [r1, #228]	@ 0xe4
 8004ce6:	029f      	lsls	r7, r3, #10
 8004ce8:	d510      	bpl.n	8004d0c <HAL_RCCEx_PeriphCLKConfig+0x4e4>
 8004cea:	f8d5 00b0 	ldr.w	r0, [r5, #176]	@ 0xb0
 8004cee:	497a      	ldr	r1, [pc, #488]	@ (8004ed8 <HAL_RCCEx_PeriphCLKConfig+0x6b0>)
 8004cf0:	f5b0 4f80 	cmp.w	r0, #16384	@ 0x4000
 8004cf4:	bf02      	ittt	eq
 8004cf6:	6a8a      	ldreq	r2, [r1, #40]	@ 0x28
 8004cf8:	f442 3280 	orreq.w	r2, r2, #65536	@ 0x10000
 8004cfc:	628a      	streq	r2, [r1, #40]	@ 0x28
 8004cfe:	f8d1 20e4 	ldr.w	r2, [r1, #228]	@ 0xe4
 8004d02:	f422 4280 	bic.w	r2, r2, #16384	@ 0x4000
 8004d06:	4302      	orrs	r2, r0
 8004d08:	f8c1 20e4 	str.w	r2, [r1, #228]	@ 0xe4
 8004d0c:	0218      	lsls	r0, r3, #8
 8004d0e:	d509      	bpl.n	8004d24 <HAL_RCCEx_PeriphCLKConfig+0x4fc>
 8004d10:	4971      	ldr	r1, [pc, #452]	@ (8004ed8 <HAL_RCCEx_PeriphCLKConfig+0x6b0>)
 8004d12:	f8d5 00c4 	ldr.w	r0, [r5, #196]	@ 0xc4
 8004d16:	f8d1 20e0 	ldr.w	r2, [r1, #224]	@ 0xe0
 8004d1a:	f422 1240 	bic.w	r2, r2, #3145728	@ 0x300000
 8004d1e:	4302      	orrs	r2, r0
 8004d20:	f8c1 20e0 	str.w	r2, [r1, #224]	@ 0xe0
 8004d24:	01d9      	lsls	r1, r3, #7
 8004d26:	d509      	bpl.n	8004d3c <HAL_RCCEx_PeriphCLKConfig+0x514>
 8004d28:	496b      	ldr	r1, [pc, #428]	@ (8004ed8 <HAL_RCCEx_PeriphCLKConfig+0x6b0>)
 8004d2a:	f8d5 00c8 	ldr.w	r0, [r5, #200]	@ 0xc8
 8004d2e:	f8d1 20e0 	ldr.w	r2, [r1, #224]	@ 0xe0
 8004d32:	f422 3240 	bic.w	r2, r2, #196608	@ 0x30000
 8004d36:	4302      	orrs	r2, r0
 8004d38:	f8c1 20e0 	str.w	r2, [r1, #224]	@ 0xe0
 8004d3c:	019a      	lsls	r2, r3, #6
 8004d3e:	d509      	bpl.n	8004d54 <HAL_RCCEx_PeriphCLKConfig+0x52c>
 8004d40:	4965      	ldr	r1, [pc, #404]	@ (8004ed8 <HAL_RCCEx_PeriphCLKConfig+0x6b0>)
 8004d42:	f8d5 00cc 	ldr.w	r0, [r5, #204]	@ 0xcc
 8004d46:	f8d1 20e8 	ldr.w	r2, [r1, #232]	@ 0xe8
 8004d4a:	f022 0218 	bic.w	r2, r2, #24
 8004d4e:	4302      	orrs	r2, r0
 8004d50:	f8c1 20e8 	str.w	r2, [r1, #232]	@ 0xe8
 8004d54:	015f      	lsls	r7, r3, #5
 8004d56:	d515      	bpl.n	8004d84 <HAL_RCCEx_PeriphCLKConfig+0x55c>
 8004d58:	f8d5 30bc 	ldr.w	r3, [r5, #188]	@ 0xbc
 8004d5c:	f5b3 1f00 	cmp.w	r3, #2097152	@ 0x200000
 8004d60:	d170      	bne.n	8004e44 <HAL_RCCEx_PeriphCLKConfig+0x61c>
 8004d62:	4a5d      	ldr	r2, [pc, #372]	@ (8004ed8 <HAL_RCCEx_PeriphCLKConfig+0x6b0>)
 8004d64:	6a93      	ldr	r3, [r2, #40]	@ 0x28
 8004d66:	f443 3300 	orr.w	r3, r3, #131072	@ 0x20000
 8004d6a:	6293      	str	r3, [r2, #40]	@ 0x28
 8004d6c:	2c00      	cmp	r4, #0
 8004d6e:	d172      	bne.n	8004e56 <HAL_RCCEx_PeriphCLKConfig+0x62e>
 8004d70:	4a59      	ldr	r2, [pc, #356]	@ (8004ed8 <HAL_RCCEx_PeriphCLKConfig+0x6b0>)
 8004d72:	f8d5 10bc 	ldr.w	r1, [r5, #188]	@ 0xbc
 8004d76:	f8d2 30e4 	ldr.w	r3, [r2, #228]	@ 0xe4
 8004d7a:	f423 1340 	bic.w	r3, r3, #3145728	@ 0x300000
 8004d7e:	430b      	orrs	r3, r1
 8004d80:	f8c2 30e4 	str.w	r3, [r2, #228]	@ 0xe4
 8004d84:	686b      	ldr	r3, [r5, #4]
 8004d86:	07d8      	lsls	r0, r3, #31
 8004d88:	d50c      	bpl.n	8004da4 <HAL_RCCEx_PeriphCLKConfig+0x57c>
 8004d8a:	f8d5 30c0 	ldr.w	r3, [r5, #192]	@ 0xc0
 8004d8e:	f5b3 0f00 	cmp.w	r3, #8388608	@ 0x800000
 8004d92:	d07b      	beq.n	8004e8c <HAL_RCCEx_PeriphCLKConfig+0x664>
 8004d94:	d861      	bhi.n	8004e5a <HAL_RCCEx_PeriphCLKConfig+0x632>
 8004d96:	2b00      	cmp	r3, #0
 8004d98:	d06c      	beq.n	8004e74 <HAL_RCCEx_PeriphCLKConfig+0x64c>
 8004d9a:	f5b3 0f80 	cmp.w	r3, #4194304	@ 0x400000
 8004d9e:	d064      	beq.n	8004e6a <HAL_RCCEx_PeriphCLKConfig+0x642>
 8004da0:	2601      	movs	r6, #1
 8004da2:	4634      	mov	r4, r6
 8004da4:	682b      	ldr	r3, [r5, #0]
 8004da6:	0119      	lsls	r1, r3, #4
 8004da8:	d50c      	bpl.n	8004dc4 <HAL_RCCEx_PeriphCLKConfig+0x59c>
 8004daa:	f8d5 3090 	ldr.w	r3, [r5, #144]	@ 0x90
 8004dae:	f1b3 7f80 	cmp.w	r3, #16777216	@ 0x1000000
 8004db2:	d073      	beq.n	8004e9c <HAL_RCCEx_PeriphCLKConfig+0x674>
 8004db4:	f1b3 7f00 	cmp.w	r3, #33554432	@ 0x2000000
 8004db8:	f000 8081 	beq.w	8004ebe <HAL_RCCEx_PeriphCLKConfig+0x696>
 8004dbc:	2b00      	cmp	r3, #0
 8004dbe:	d072      	beq.n	8004ea6 <HAL_RCCEx_PeriphCLKConfig+0x67e>
 8004dc0:	2601      	movs	r6, #1
 8004dc2:	4634      	mov	r4, r6
 8004dc4:	e9d5 3100 	ldrd	r3, r1, [r5]
 8004dc8:	00da      	lsls	r2, r3, #3
 8004dca:	d509      	bpl.n	8004de0 <HAL_RCCEx_PeriphCLKConfig+0x5b8>
 8004dcc:	4a42      	ldr	r2, [pc, #264]	@ (8004ed8 <HAL_RCCEx_PeriphCLKConfig+0x6b0>)
 8004dce:	f8d5 00b8 	ldr.w	r0, [r5, #184]	@ 0xb8
 8004dd2:	f8d2 30e8 	ldr.w	r3, [r2, #232]	@ 0xe8
 8004dd6:	f423 4300 	bic.w	r3, r3, #32768	@ 0x8000
 8004dda:	4303      	orrs	r3, r0
 8004ddc:	f8c2 30e8 	str.w	r3, [r2, #232]	@ 0xe8
 8004de0:	070b      	lsls	r3, r1, #28
 8004de2:	d517      	bpl.n	8004e14 <HAL_RCCEx_PeriphCLKConfig+0x5ec>
 8004de4:	f8d5 20d4 	ldr.w	r2, [r5, #212]	@ 0xd4
 8004de8:	f1b2 4f00 	cmp.w	r2, #2147483648	@ 0x80000000
 8004dec:	d009      	beq.n	8004e02 <HAL_RCCEx_PeriphCLKConfig+0x5da>
 8004dee:	d86e      	bhi.n	8004ece <HAL_RCCEx_PeriphCLKConfig+0x6a6>
 8004df0:	b13a      	cbz	r2, 8004e02 <HAL_RCCEx_PeriphCLKConfig+0x5da>
 8004df2:	f1b2 4f80 	cmp.w	r2, #1073741824	@ 0x40000000
 8004df6:	d16d      	bne.n	8004ed4 <HAL_RCCEx_PeriphCLKConfig+0x6ac>
 8004df8:	4937      	ldr	r1, [pc, #220]	@ (8004ed8 <HAL_RCCEx_PeriphCLKConfig+0x6b0>)
 8004dfa:	6a8b      	ldr	r3, [r1, #40]	@ 0x28
 8004dfc:	f443 3380 	orr.w	r3, r3, #65536	@ 0x10000
 8004e00:	628b      	str	r3, [r1, #40]	@ 0x28
 8004e02:	b944      	cbnz	r4, 8004e16 <HAL_RCCEx_PeriphCLKConfig+0x5ee>
 8004e04:	4934      	ldr	r1, [pc, #208]	@ (8004ed8 <HAL_RCCEx_PeriphCLKConfig+0x6b0>)
 8004e06:	f8d1 30e4 	ldr.w	r3, [r1, #228]	@ 0xe4
 8004e0a:	f023 4340 	bic.w	r3, r3, #3221225472	@ 0xc0000000
 8004e0e:	4313      	orrs	r3, r2
 8004e10:	f8c1 30e4 	str.w	r3, [r1, #228]	@ 0xe4
 8004e14:	4634      	mov	r4, r6
 8004e16:	4620      	mov	r0, r4
 8004e18:	b002      	add	sp, #8
 8004e1a:	e8bd 87f0 	ldmia.w	sp!, {r4, r5, r6, r7, r8, r9, sl, pc}
 8004e1e:	f105 0008 	add.w	r0, r5, #8
 8004e22:	f7ff fc95 	bl	8004750 <RCCEx_PLL2_Config>
 8004e26:	4604      	mov	r4, r0
 8004e28:	e72d      	b.n	8004c86 <HAL_RCCEx_PeriphCLKConfig+0x45e>
 8004e2a:	4a2b      	ldr	r2, [pc, #172]	@ (8004ed8 <HAL_RCCEx_PeriphCLKConfig+0x6b0>)
 8004e2c:	6a93      	ldr	r3, [r2, #40]	@ 0x28
 8004e2e:	f443 3300 	orr.w	r3, r3, #131072	@ 0x20000
 8004e32:	6293      	str	r3, [r2, #40]	@ 0x28
 8004e34:	e727      	b.n	8004c86 <HAL_RCCEx_PeriphCLKConfig+0x45e>
 8004e36:	4626      	mov	r6, r4
 8004e38:	e732      	b.n	8004ca0 <HAL_RCCEx_PeriphCLKConfig+0x478>
 8004e3a:	2601      	movs	r6, #1
 8004e3c:	4634      	mov	r4, r6
 8004e3e:	e746      	b.n	8004cce <HAL_RCCEx_PeriphCLKConfig+0x4a6>
 8004e40:	4626      	mov	r6, r4
 8004e42:	e744      	b.n	8004cce <HAL_RCCEx_PeriphCLKConfig+0x4a6>
 8004e44:	f5b3 1f40 	cmp.w	r3, #3145728	@ 0x300000
 8004e48:	d190      	bne.n	8004d6c <HAL_RCCEx_PeriphCLKConfig+0x544>
 8004e4a:	f105 0008 	add.w	r0, r5, #8
 8004e4e:	f7ff fc7f 	bl	8004750 <RCCEx_PLL2_Config>
 8004e52:	4604      	mov	r4, r0
 8004e54:	e78a      	b.n	8004d6c <HAL_RCCEx_PeriphCLKConfig+0x544>
 8004e56:	4626      	mov	r6, r4
 8004e58:	e794      	b.n	8004d84 <HAL_RCCEx_PeriphCLKConfig+0x55c>
 8004e5a:	f5b3 0f40 	cmp.w	r3, #12582912	@ 0xc00000
 8004e5e:	d19f      	bne.n	8004da0 <HAL_RCCEx_PeriphCLKConfig+0x578>
 8004e60:	f105 002c 	add.w	r0, r5, #44	@ 0x2c
 8004e64:	f7ff fc08 	bl	8004678 <RCCEx_PLL3_Config>
 8004e68:	e014      	b.n	8004e94 <HAL_RCCEx_PeriphCLKConfig+0x66c>
 8004e6a:	4a1b      	ldr	r2, [pc, #108]	@ (8004ed8 <HAL_RCCEx_PeriphCLKConfig+0x6b0>)
 8004e6c:	6a93      	ldr	r3, [r2, #40]	@ 0x28
 8004e6e:	f443 3300 	orr.w	r3, r3, #131072	@ 0x20000
 8004e72:	6293      	str	r3, [r2, #40]	@ 0x28
 8004e74:	b984      	cbnz	r4, 8004e98 <HAL_RCCEx_PeriphCLKConfig+0x670>
 8004e76:	4a18      	ldr	r2, [pc, #96]	@ (8004ed8 <HAL_RCCEx_PeriphCLKConfig+0x6b0>)
 8004e78:	f8d5 10c0 	ldr.w	r1, [r5, #192]	@ 0xc0
 8004e7c:	f8d2 30e4 	ldr.w	r3, [r2, #228]	@ 0xe4
 8004e80:	f423 0340 	bic.w	r3, r3, #12582912	@ 0xc00000
 8004e84:	430b      	orrs	r3, r1
 8004e86:	f8c2 30e4 	str.w	r3, [r2, #228]	@ 0xe4
 8004e8a:	e78b      	b.n	8004da4 <HAL_RCCEx_PeriphCLKConfig+0x57c>
 8004e8c:	f105 0008 	add.w	r0, r5, #8
 8004e90:	f7ff fc5e 	bl	8004750 <RCCEx_PLL2_Config>
 8004e94:	4604      	mov	r4, r0
 8004e96:	e7ed      	b.n	8004e74 <HAL_RCCEx_PeriphCLKConfig+0x64c>
 8004e98:	4626      	mov	r6, r4
 8004e9a:	e783      	b.n	8004da4 <HAL_RCCEx_PeriphCLKConfig+0x57c>
 8004e9c:	4a0e      	ldr	r2, [pc, #56]	@ (8004ed8 <HAL_RCCEx_PeriphCLKConfig+0x6b0>)
 8004e9e:	6a93      	ldr	r3, [r2, #40]	@ 0x28
 8004ea0:	f443 3300 	orr.w	r3, r3, #131072	@ 0x20000
 8004ea4:	6293      	str	r3, [r2, #40]	@ 0x28
 8004ea6:	b984      	cbnz	r4, 8004eca <HAL_RCCEx_PeriphCLKConfig+0x6a2>
 8004ea8:	4a0b      	ldr	r2, [pc, #44]	@ (8004ed8 <HAL_RCCEx_PeriphCLKConfig+0x6b0>)
 8004eaa:	f8d5 1090 	ldr.w	r1, [r5, #144]	@ 0x90
 8004eae:	f8d2 30e0 	ldr.w	r3, [r2, #224]	@ 0xe0
 8004eb2:	f023 7340 	bic.w	r3, r3, #50331648	@ 0x3000000
 8004eb6:	430b      	orrs	r3, r1
 8004eb8:	f8c2 30e0 	str.w	r3, [r2, #224]	@ 0xe0
 8004ebc:	e782      	b.n	8004dc4 <HAL_RCCEx_PeriphCLKConfig+0x59c>
 8004ebe:	f105 0008 	add.w	r0, r5, #8
 8004ec2:	f7ff fc45 	bl	8004750 <RCCEx_PLL2_Config>
 8004ec6:	4604      	mov	r4, r0
 8004ec8:	e7ed      	b.n	8004ea6 <HAL_RCCEx_PeriphCLKConfig+0x67e>
 8004eca:	4626      	mov	r6, r4
 8004ecc:	e77a      	b.n	8004dc4 <HAL_RCCEx_PeriphCLKConfig+0x59c>
 8004ece:	f1b2 4f40 	cmp.w	r2, #3221225472	@ 0xc0000000
 8004ed2:	e790      	b.n	8004df6 <HAL_RCCEx_PeriphCLKConfig+0x5ce>
 8004ed4:	2401      	movs	r4, #1
 8004ed6:	e79e      	b.n	8004e16 <HAL_RCCEx_PeriphCLKConfig+0x5ee>
 8004ed8:	46020c00 	.word	0x46020c00

08004edc <HAL_RCCEx_GetPLL1ClockFreq>:
 8004edc:	4a48      	ldr	r2, [pc, #288]	@ (8005000 <HAL_RCCEx_GetPLL1ClockFreq+0x124>)
 8004ede:	b510      	push	{r4, lr}
 8004ee0:	6b53      	ldr	r3, [r2, #52]	@ 0x34
 8004ee2:	6a91      	ldr	r1, [r2, #40]	@ 0x28
 8004ee4:	f3c3 0308 	ubfx	r3, r3, #0, #9
 8004ee8:	ee07 3a90 	vmov	s15, r3
 8004eec:	6a93      	ldr	r3, [r2, #40]	@ 0x28
 8004eee:	6a94      	ldr	r4, [r2, #40]	@ 0x28
 8004ef0:	f3c3 2303 	ubfx	r3, r3, #8, #4
 8004ef4:	3301      	adds	r3, #1
 8004ef6:	ee06 3a90 	vmov	s13, r3
 8004efa:	6b93      	ldr	r3, [r2, #56]	@ 0x38
 8004efc:	f3c4 1400 	ubfx	r4, r4, #4, #1
 8004f00:	f3c3 03cc 	ubfx	r3, r3, #3, #13
 8004f04:	4363      	muls	r3, r4
 8004f06:	ee07 3a10 	vmov	s14, r3
 8004f0a:	f001 0103 	and.w	r1, r1, #3
 8004f0e:	2902      	cmp	r1, #2
 8004f10:	eeb8 7ac7 	vcvt.f32.s32	s14, s14
 8004f14:	eef8 6ae6 	vcvt.f32.s32	s13, s13
 8004f18:	eddf 5a3a 	vldr	s11, [pc, #232]	@ 8005004 <HAL_RCCEx_GetPLL1ClockFreq+0x128>
 8004f1c:	eeb7 6a00 	vmov.f32	s12, #112	@ 0x3f800000  1.0
 8004f20:	d05b      	beq.n	8004fda <HAL_RCCEx_GetPLL1ClockFreq+0xfe>
 8004f22:	2903      	cmp	r1, #3
 8004f24:	d059      	beq.n	8004fda <HAL_RCCEx_GetPLL1ClockFreq+0xfe>
 8004f26:	6893      	ldr	r3, [r2, #8]
 8004f28:	4937      	ldr	r1, [pc, #220]	@ (8005008 <HAL_RCCEx_GetPLL1ClockFreq+0x12c>)
 8004f2a:	021b      	lsls	r3, r3, #8
 8004f2c:	bf4b      	itete	mi
 8004f2e:	6893      	ldrmi	r3, [r2, #8]
 8004f30:	f8d2 30f4 	ldrpl.w	r3, [r2, #244]	@ 0xf4
 8004f34:	0f1b      	lsrmi	r3, r3, #28
 8004f36:	f3c3 3303 	ubfxpl	r3, r3, #12, #4
 8004f3a:	eb01 0383 	add.w	r3, r1, r3, lsl #2
 8004f3e:	eef8 7ae7 	vcvt.f32.s32	s15, s15
 8004f42:	ed93 5a00 	vldr	s10, [r3]
 8004f46:	eee7 7a25 	vfma.f32	s15, s14, s11
 8004f4a:	eeb8 5a45 	vcvt.f32.u32	s10, s10
 8004f4e:	ee77 7a86 	vadd.f32	s15, s15, s12
 8004f52:	eec5 4a26 	vdiv.f32	s9, s10, s13
 8004f56:	ee67 7aa4 	vmul.f32	s15, s15, s9
 8004f5a:	4a29      	ldr	r2, [pc, #164]	@ (8005000 <HAL_RCCEx_GetPLL1ClockFreq+0x124>)
 8004f5c:	6a93      	ldr	r3, [r2, #40]	@ 0x28
 8004f5e:	f413 3380 	ands.w	r3, r3, #65536	@ 0x10000
 8004f62:	d00e      	beq.n	8004f82 <HAL_RCCEx_GetPLL1ClockFreq+0xa6>
 8004f64:	6b53      	ldr	r3, [r2, #52]	@ 0x34
 8004f66:	f3c3 2346 	ubfx	r3, r3, #9, #7
 8004f6a:	ee06 3a90 	vmov	s13, r3
 8004f6e:	eef8 6ae6 	vcvt.f32.s32	s13, s13
 8004f72:	ee76 6a86 	vadd.f32	s13, s13, s12
 8004f76:	ee87 7aa6 	vdiv.f32	s14, s15, s13
 8004f7a:	eebc 7ac7 	vcvt.u32.f32	s14, s14
 8004f7e:	ee17 3a10 	vmov	r3, s14
 8004f82:	4a1f      	ldr	r2, [pc, #124]	@ (8005000 <HAL_RCCEx_GetPLL1ClockFreq+0x124>)
 8004f84:	6003      	str	r3, [r0, #0]
 8004f86:	6a93      	ldr	r3, [r2, #40]	@ 0x28
 8004f88:	f413 3300 	ands.w	r3, r3, #131072	@ 0x20000
 8004f8c:	d00e      	beq.n	8004fac <HAL_RCCEx_GetPLL1ClockFreq+0xd0>
 8004f8e:	6b53      	ldr	r3, [r2, #52]	@ 0x34
 8004f90:	f3c3 4306 	ubfx	r3, r3, #16, #7
 8004f94:	ee06 3a90 	vmov	s13, r3
 8004f98:	eef8 6ae6 	vcvt.f32.s32	s13, s13
 8004f9c:	ee76 6a86 	vadd.f32	s13, s13, s12
 8004fa0:	ee87 7aa6 	vdiv.f32	s14, s15, s13
 8004fa4:	eebc 7ac7 	vcvt.u32.f32	s14, s14
 8004fa8:	ee17 3a10 	vmov	r3, s14
 8004fac:	4a14      	ldr	r2, [pc, #80]	@ (8005000 <HAL_RCCEx_GetPLL1ClockFreq+0x124>)
 8004fae:	6043      	str	r3, [r0, #4]
 8004fb0:	6a93      	ldr	r3, [r2, #40]	@ 0x28
 8004fb2:	f413 2380 	ands.w	r3, r3, #262144	@ 0x40000
 8004fb6:	d00e      	beq.n	8004fd6 <HAL_RCCEx_GetPLL1ClockFreq+0xfa>
 8004fb8:	6b53      	ldr	r3, [r2, #52]	@ 0x34
 8004fba:	f3c3 6306 	ubfx	r3, r3, #24, #7
 8004fbe:	ee06 3a90 	vmov	s13, r3
 8004fc2:	eef8 6ae6 	vcvt.f32.s32	s13, s13
 8004fc6:	ee76 6a86 	vadd.f32	s13, s13, s12
 8004fca:	ee87 7aa6 	vdiv.f32	s14, s15, s13
 8004fce:	eefc 7ac7 	vcvt.u32.f32	s15, s14
 8004fd2:	ee17 3a90 	vmov	r3, s15
 8004fd6:	6083      	str	r3, [r0, #8]
 8004fd8:	bd10      	pop	{r4, pc}
 8004fda:	eddf 7a0c 	vldr	s15, [pc, #48]	@ 800500c <HAL_RCCEx_GetPLL1ClockFreq+0x130>
 8004fde:	6b53      	ldr	r3, [r2, #52]	@ 0x34
 8004fe0:	ee87 5aa6 	vdiv.f32	s10, s15, s13
 8004fe4:	f3c3 0308 	ubfx	r3, r3, #0, #9
 8004fe8:	ee07 3a90 	vmov	s15, r3
 8004fec:	eef8 7ae7 	vcvt.f32.s32	s15, s15
 8004ff0:	eee7 7a25 	vfma.f32	s15, s14, s11
 8004ff4:	ee77 7a86 	vadd.f32	s15, s15, s12
 8004ff8:	ee67 7a85 	vmul.f32	s15, s15, s10
 8004ffc:	e7ad      	b.n	8004f5a <HAL_RCCEx_GetPLL1ClockFreq+0x7e>
 8004ffe:	bf00      	nop
 8005000:	46020c00 	.word	0x46020c00
 8005004:	39000000 	.word	0x39000000
 8005008:	080093b8 	.word	0x080093b8
 800500c:	4b742400 	.word	0x4b742400

08005010 <HAL_RCCEx_GetPLL2ClockFreq>:
 8005010:	4a48      	ldr	r2, [pc, #288]	@ (8005134 <HAL_RCCEx_GetPLL2ClockFreq+0x124>)
 8005012:	b510      	push	{r4, lr}
 8005014:	6bd3      	ldr	r3, [r2, #60]	@ 0x3c
 8005016:	6ad1      	ldr	r1, [r2, #44]	@ 0x2c
 8005018:	f3c3 0308 	ubfx	r3, r3, #0, #9
 800501c:	ee07 3a90 	vmov	s15, r3
 8005020:	6ad3      	ldr	r3, [r2, #44]	@ 0x2c
 8005022:	6ad4      	ldr	r4, [r2, #44]	@ 0x2c
 8005024:	f3c3 2303 	ubfx	r3, r3, #8, #4
 8005028:	3301      	adds	r3, #1
 800502a:	ee06 3a90 	vmov	s13, r3
 800502e:	6c13      	ldr	r3, [r2, #64]	@ 0x40
 8005030:	f3c4 1400 	ubfx	r4, r4, #4, #1
 8005034:	f3c3 03cc 	ubfx	r3, r3, #3, #13
 8005038:	4363      	muls	r3, r4
 800503a:	ee07 3a10 	vmov	s14, r3
 800503e:	f001 0103 	and.w	r1, r1, #3
 8005042:	2902      	cmp	r1, #2
 8005044:	eeb8 7ac7 	vcvt.f32.s32	s14, s14
 8005048:	eef8 6ae6 	vcvt.f32.s32	s13, s13
 800504c:	eddf 5a3a 	vldr	s11, [pc, #232]	@ 8005138 <HAL_RCCEx_GetPLL2ClockFreq+0x128>
 8005050:	eeb7 6a00 	vmov.f32	s12, #112	@ 0x3f800000  1.0
 8005054:	d05b      	beq.n	800510e <HAL_RCCEx_GetPLL2ClockFreq+0xfe>
 8005056:	2903      	cmp	r1, #3
 8005058:	d059      	beq.n	800510e <HAL_RCCEx_GetPLL2ClockFreq+0xfe>
 800505a:	6893      	ldr	r3, [r2, #8]
 800505c:	4937      	ldr	r1, [pc, #220]	@ (800513c <HAL_RCCEx_GetPLL2ClockFreq+0x12c>)
 800505e:	021b      	lsls	r3, r3, #8
 8005060:	bf4b      	itete	mi
 8005062:	6893      	ldrmi	r3, [r2, #8]
 8005064:	f8d2 30f4 	ldrpl.w	r3, [r2, #244]	@ 0xf4
 8005068:	0f1b      	lsrmi	r3, r3, #28
 800506a:	f3c3 3303 	ubfxpl	r3, r3, #12, #4
 800506e:	eb01 0383 	add.w	r3, r1, r3, lsl #2
 8005072:	eef8 7ae7 	vcvt.f32.s32	s15, s15
 8005076:	ed93 5a00 	vldr	s10, [r3]
 800507a:	eee7 7a25 	vfma.f32	s15, s14, s11
 800507e:	eeb8 5a45 	vcvt.f32.u32	s10, s10
 8005082:	ee77 7a86 	vadd.f32	s15, s15, s12
 8005086:	eec5 4a26 	vdiv.f32	s9, s10, s13
 800508a:	ee67 7aa4 	vmul.f32	s15, s15, s9
 800508e:	4a29      	ldr	r2, [pc, #164]	@ (8005134 <HAL_RCCEx_GetPLL2ClockFreq+0x124>)
 8005090:	6ad3      	ldr	r3, [r2, #44]	@ 0x2c
 8005092:	f413 3380 	ands.w	r3, r3, #65536	@ 0x10000
 8005096:	d00e      	beq.n	80050b6 <HAL_RCCEx_GetPLL2ClockFreq+0xa6>
 8005098:	6bd3      	ldr	r3, [r2, #60]	@ 0x3c
 800509a:	f3c3 2346 	ubfx	r3, r3, #9, #7
 800509e:	ee06 3a90 	vmov	s13, r3
 80050a2:	eef8 6ae6 	vcvt.f32.s32	s13, s13
 80050a6:	ee76 6a86 	vadd.f32	s13, s13, s12
 80050aa:	ee87 7aa6 	vdiv.f32	s14, s15, s13
 80050ae:	eebc 7ac7 	vcvt.u32.f32	s14, s14
 80050b2:	ee17 3a10 	vmov	r3, s14
 80050b6:	4a1f      	ldr	r2, [pc, #124]	@ (8005134 <HAL_RCCEx_GetPLL2ClockFreq+0x124>)
 80050b8:	6003      	str	r3, [r0, #0]
 80050ba:	6ad3      	ldr	r3, [r2, #44]	@ 0x2c
 80050bc:	f413 3300 	ands.w	r3, r3, #131072	@ 0x20000
 80050c0:	d00e      	beq.n	80050e0 <HAL_RCCEx_GetPLL2ClockFreq+0xd0>
 80050c2:	6bd3      	ldr	r3, [r2, #60]	@ 0x3c
 80050c4:	f3c3 4306 	ubfx	r3, r3, #16, #7
 80050c8:	ee06 3a90 	vmov	s13, r3
 80050cc:	eef8 6ae6 	vcvt.f32.s32	s13, s13
 80050d0:	ee76 6a86 	vadd.f32	s13, s13, s12
 80050d4:	ee87 7aa6 	vdiv.f32	s14, s15, s13
 80050d8:	eebc 7ac7 	vcvt.u32.f32	s14, s14
 80050dc:	ee17 3a10 	vmov	r3, s14
 80050e0:	4a14      	ldr	r2, [pc, #80]	@ (8005134 <HAL_RCCEx_GetPLL2ClockFreq+0x124>)
 80050e2:	6043      	str	r3, [r0, #4]
 80050e4:	6ad3      	ldr	r3, [r2, #44]	@ 0x2c
 80050e6:	f413 2380 	ands.w	r3, r3, #262144	@ 0x40000
 80050ea:	d00e      	beq.n	800510a <HAL_RCCEx_GetPLL2ClockFreq+0xfa>
 80050ec:	6bd3      	ldr	r3, [r2, #60]	@ 0x3c
 80050ee:	f3c3 6306 	ubfx	r3, r3, #24, #7
 80050f2:	ee06 3a90 	vmov	s13, r3
 80050f6:	eef8 6ae6 	vcvt.f32.s32	s13, s13
 80050fa:	ee76 6a86 	vadd.f32	s13, s13, s12
 80050fe:	ee87 7aa6 	vdiv.f32	s14, s15, s13
 8005102:	eefc 7ac7 	vcvt.u32.f32	s15, s14
 8005106:	ee17 3a90 	vmov	r3, s15
 800510a:	6083      	str	r3, [r0, #8]
 800510c:	bd10      	pop	{r4, pc}
 800510e:	eddf 7a0c 	vldr	s15, [pc, #48]	@ 8005140 <HAL_RCCEx_GetPLL2ClockFreq+0x130>
 8005112:	6bd3      	ldr	r3, [r2, #60]	@ 0x3c
 8005114:	ee87 5aa6 	vdiv.f32	s10, s15, s13
 8005118:	f3c3 0308 	ubfx	r3, r3, #0, #9
 800511c:	ee07 3a90 	vmov	s15, r3
 8005120:	eef8 7ae7 	vcvt.f32.s32	s15, s15
 8005124:	eee7 7a25 	vfma.f32	s15, s14, s11
 8005128:	ee77 7a86 	vadd.f32	s15, s15, s12
 800512c:	ee67 7a85 	vmul.f32	s15, s15, s10
 8005130:	e7ad      	b.n	800508e <HAL_RCCEx_GetPLL2ClockFreq+0x7e>
 8005132:	bf00      	nop
 8005134:	46020c00 	.word	0x46020c00
 8005138:	39000000 	.word	0x39000000
 800513c:	080093b8 	.word	0x080093b8
 8005140:	4b742400 	.word	0x4b742400

08005144 <HAL_RCCEx_GetPLL3ClockFreq>:
 8005144:	4a48      	ldr	r2, [pc, #288]	@ (8005268 <HAL_RCCEx_GetPLL3ClockFreq+0x124>)
 8005146:	b510      	push	{r4, lr}
 8005148:	6c53      	ldr	r3, [r2, #68]	@ 0x44
 800514a:	6b11      	ldr	r1, [r2, #48]	@ 0x30
 800514c:	f3c3 0308 	ubfx	r3, r3, #0, #9
 8005150:	ee07 3a90 	vmov	s15, r3
 8005154:	6b13      	ldr	r3, [r2, #48]	@ 0x30
 8005156:	6b14      	ldr	r4, [r2, #48]	@ 0x30
 8005158:	f3c3 2303 	ubfx	r3, r3, #8, #4
 800515c:	3301      	adds	r3, #1
 800515e:	ee06 3a90 	vmov	s13, r3
 8005162:	6c93      	ldr	r3, [r2, #72]	@ 0x48
 8005164:	f3c4 1400 	ubfx	r4, r4, #4, #1
 8005168:	f3c3 03cc 	ubfx	r3, r3, #3, #13
 800516c:	4363      	muls	r3, r4
 800516e:	ee07 3a10 	vmov	s14, r3
 8005172:	f001 0103 	and.w	r1, r1, #3
 8005176:	2902      	cmp	r1, #2
 8005178:	eeb8 7ac7 	vcvt.f32.s32	s14, s14
 800517c:	eef8 6ae6 	vcvt.f32.s32	s13, s13
 8005180:	eddf 5a3a 	vldr	s11, [pc, #232]	@ 800526c <HAL_RCCEx_GetPLL3ClockFreq+0x128>
 8005184:	eeb7 6a00 	vmov.f32	s12, #112	@ 0x3f800000  1.0
 8005188:	d05b      	beq.n	8005242 <HAL_RCCEx_GetPLL3ClockFreq+0xfe>
 800518a:	2903      	cmp	r1, #3
 800518c:	d059      	beq.n	8005242 <HAL_RCCEx_GetPLL3ClockFreq+0xfe>
 800518e:	6893      	ldr	r3, [r2, #8]
 8005190:	4937      	ldr	r1, [pc, #220]	@ (8005270 <HAL_RCCEx_GetPLL3ClockFreq+0x12c>)
 8005192:	021b      	lsls	r3, r3, #8
 8005194:	bf4b      	itete	mi
 8005196:	6893      	ldrmi	r3, [r2, #8]
 8005198:	f8d2 30f4 	ldrpl.w	r3, [r2, #244]	@ 0xf4
 800519c:	0f1b      	lsrmi	r3, r3, #28
 800519e:	f3c3 3303 	ubfxpl	r3, r3, #12, #4
 80051a2:	eb01 0383 	add.w	r3, r1, r3, lsl #2
 80051a6:	eef8 7ae7 	vcvt.f32.s32	s15, s15
 80051aa:	ed93 5a00 	vldr	s10, [r3]
 80051ae:	eee7 7a25 	vfma.f32	s15, s14, s11
 80051b2:	eeb8 5a45 	vcvt.f32.u32	s10, s10
 80051b6:	ee77 7a86 	vadd.f32	s15, s15, s12
 80051ba:	eec5 4a26 	vdiv.f32	s9, s10, s13
 80051be:	ee67 7aa4 	vmul.f32	s15, s15, s9
 80051c2:	4a29      	ldr	r2, [pc, #164]	@ (8005268 <HAL_RCCEx_GetPLL3ClockFreq+0x124>)
 80051c4:	6b13      	ldr	r3, [r2, #48]	@ 0x30
 80051c6:	f413 3380 	ands.w	r3, r3, #65536	@ 0x10000
 80051ca:	d00e      	beq.n	80051ea <HAL_RCCEx_GetPLL3ClockFreq+0xa6>
 80051cc:	6c53      	ldr	r3, [r2, #68]	@ 0x44
 80051ce:	f3c3 2346 	ubfx	r3, r3, #9, #7
 80051d2:	ee06 3a90 	vmov	s13, r3
 80051d6:	eef8 6ae6 	vcvt.f32.s32	s13, s13
 80051da:	ee76 6a86 	vadd.f32	s13, s13, s12
 80051de:	ee87 7aa6 	vdiv.f32	s14, s15, s13
 80051e2:	eebc 7ac7 	vcvt.u32.f32	s14, s14
 80051e6:	ee17 3a10 	vmov	r3, s14
 80051ea:	4a1f      	ldr	r2, [pc, #124]	@ (8005268 <HAL_RCCEx_GetPLL3ClockFreq+0x124>)
 80051ec:	6003      	str	r3, [r0, #0]
 80051ee:	6b13      	ldr	r3, [r2, #48]	@ 0x30
 80051f0:	f413 3300 	ands.w	r3, r3, #131072	@ 0x20000
 80051f4:	d00e      	beq.n	8005214 <HAL_RCCEx_GetPLL3ClockFreq+0xd0>
 80051f6:	6c53      	ldr	r3, [r2, #68]	@ 0x44
 80051f8:	f3c3 4306 	ubfx	r3, r3, #16, #7
 80051fc:	ee06 3a90 	vmov	s13, r3
 8005200:	eef8 6ae6 	vcvt.f32.s32	s13, s13
 8005204:	ee76 6a86 	vadd.f32	s13, s13, s12
 8005208:	ee87 7aa6 	vdiv.f32	s14, s15, s13
 800520c:	eebc 7ac7 	vcvt.u32.f32	s14, s14
 8005210:	ee17 3a10 	vmov	r3, s14
 8005214:	4a14      	ldr	r2, [pc, #80]	@ (8005268 <HAL_RCCEx_GetPLL3ClockFreq+0x124>)
 8005216:	6043      	str	r3, [r0, #4]
 8005218:	6b13      	ldr	r3, [r2, #48]	@ 0x30
 800521a:	f413 2380 	ands.w	r3, r3, #262144	@ 0x40000
 800521e:	d00e      	beq.n	800523e <HAL_RCCEx_GetPLL3ClockFreq+0xfa>
 8005220:	6c53      	ldr	r3, [r2, #68]	@ 0x44
 8005222:	f3c3 6306 	ubfx	r3, r3, #24, #7
 8005226:	ee06 3a90 	vmov	s13, r3
 800522a:	eef8 6ae6 	vcvt.f32.s32	s13, s13
 800522e:	ee76 6a86 	vadd.f32	s13, s13, s12
 8005232:	ee87 7aa6 	vdiv.f32	s14, s15, s13
 8005236:	eefc 7ac7 	vcvt.u32.f32	s15, s14
 800523a:	ee17 3a90 	vmov	r3, s15
 800523e:	6083      	str	r3, [r0, #8]
 8005240:	bd10      	pop	{r4, pc}
 8005242:	eddf 7a0c 	vldr	s15, [pc, #48]	@ 8005274 <HAL_RCCEx_GetPLL3ClockFreq+0x130>
 8005246:	6c53      	ldr	r3, [r2, #68]	@ 0x44
 8005248:	ee87 5aa6 	vdiv.f32	s10, s15, s13
 800524c:	f3c3 0308 	ubfx	r3, r3, #0, #9
 8005250:	ee07 3a90 	vmov	s15, r3
 8005254:	eef8 7ae7 	vcvt.f32.s32	s15, s15
 8005258:	eee7 7a25 	vfma.f32	s15, s14, s11
 800525c:	ee77 7a86 	vadd.f32	s15, s15, s12
 8005260:	ee67 7a85 	vmul.f32	s15, s15, s10
 8005264:	e7ad      	b.n	80051c2 <HAL_RCCEx_GetPLL3ClockFreq+0x7e>
 8005266:	bf00      	nop
 8005268:	46020c00 	.word	0x46020c00
 800526c:	39000000 	.word	0x39000000
 8005270:	080093b8 	.word	0x080093b8
 8005274:	4b742400 	.word	0x4b742400

08005278 <HAL_RCCEx_GetPeriphCLKFreq>:
 8005278:	b51f      	push	{r0, r1, r2, r3, r4, lr}
 800527a:	f5a0 3200 	sub.w	r2, r0, #131072	@ 0x20000
 800527e:	430a      	orrs	r2, r1
 8005280:	4603      	mov	r3, r0
 8005282:	f000 8390 	beq.w	80059a6 <HAL_RCCEx_GetPeriphCLKFreq+0x72e>
 8005286:	4ab7      	ldr	r2, [pc, #732]	@ (8005564 <HAL_RCCEx_GetPeriphCLKFreq+0x2ec>)
 8005288:	4290      	cmp	r0, r2
 800528a:	f171 0200 	sbcs.w	r2, r1, #0
 800528e:	d27d      	bcs.n	800538c <HAL_RCCEx_GetPeriphCLKFreq+0x114>
 8005290:	f5a0 7280 	sub.w	r2, r0, #256	@ 0x100
 8005294:	430a      	orrs	r2, r1
 8005296:	f000 8409 	beq.w	8005aac <HAL_RCCEx_GetPeriphCLKFreq+0x834>
 800529a:	f240 1201 	movw	r2, #257	@ 0x101
 800529e:	4290      	cmp	r0, r2
 80052a0:	f171 0200 	sbcs.w	r2, r1, #0
 80052a4:	d238      	bcs.n	8005318 <HAL_RCCEx_GetPeriphCLKFreq+0xa0>
 80052a6:	f1a0 0210 	sub.w	r2, r0, #16
 80052aa:	430a      	orrs	r2, r1
 80052ac:	f000 828e 	beq.w	80057cc <HAL_RCCEx_GetPeriphCLKFreq+0x554>
 80052b0:	2811      	cmp	r0, #17
 80052b2:	f171 0200 	sbcs.w	r2, r1, #0
 80052b6:	d21c      	bcs.n	80052f2 <HAL_RCCEx_GetPeriphCLKFreq+0x7a>
 80052b8:	1e42      	subs	r2, r0, #1
 80052ba:	f141 30ff 	adc.w	r0, r1, #4294967295
 80052be:	2a08      	cmp	r2, #8
 80052c0:	f170 0000 	sbcs.w	r0, r0, #0
 80052c4:	f080 86a0 	bcs.w	8006008 <HAL_RCCEx_GetPeriphCLKFreq+0xd90>
 80052c8:	3b01      	subs	r3, #1
 80052ca:	f141 31ff 	adc.w	r1, r1, #4294967295
 80052ce:	2a08      	cmp	r2, #8
 80052d0:	f171 0100 	sbcs.w	r1, r1, #0
 80052d4:	f080 869b 	bcs.w	800600e <HAL_RCCEx_GetPeriphCLKFreq+0xd96>
 80052d8:	2a07      	cmp	r2, #7
 80052da:	f200 8698 	bhi.w	800600e <HAL_RCCEx_GetPeriphCLKFreq+0xd96>
 80052de:	e8df f012 	tbh	[pc, r2, lsl #1]
 80052e2:	01f7      	.short	0x01f7
 80052e4:	0696021b 	.word	0x0696021b
 80052e8:	0696023d 	.word	0x0696023d
 80052ec:	06960696 	.word	0x06960696
 80052f0:	0258      	.short	0x0258
 80052f2:	f1a0 0240 	sub.w	r2, r0, #64	@ 0x40
 80052f6:	430a      	orrs	r2, r1
 80052f8:	f000 8382 	beq.w	8005a00 <HAL_RCCEx_GetPeriphCLKFreq+0x788>
 80052fc:	f1a0 0280 	sub.w	r2, r0, #128	@ 0x80
 8005300:	430a      	orrs	r2, r1
 8005302:	f000 83a8 	beq.w	8005a56 <HAL_RCCEx_GetPeriphCLKFreq+0x7de>
 8005306:	f1a0 0320 	sub.w	r3, r0, #32
 800530a:	430b      	orrs	r3, r1
 800530c:	f000 82a7 	beq.w	800585e <HAL_RCCEx_GetPeriphCLKFreq+0x5e6>
 8005310:	2000      	movs	r0, #0
 8005312:	b005      	add	sp, #20
 8005314:	f85d fb04 	ldr.w	pc, [sp], #4
 8005318:	f5a0 5200 	sub.w	r2, r0, #8192	@ 0x2000
 800531c:	430a      	orrs	r2, r1
 800531e:	f000 80f6 	beq.w	800550e <HAL_RCCEx_GetPeriphCLKFreq+0x296>
 8005322:	f242 0201 	movw	r2, #8193	@ 0x2001
 8005326:	4290      	cmp	r0, r2
 8005328:	f171 0200 	sbcs.w	r2, r1, #0
 800532c:	d21d      	bcs.n	800536a <HAL_RCCEx_GetPeriphCLKFreq+0xf2>
 800532e:	f5a0 6200 	sub.w	r2, r0, #2048	@ 0x800
 8005332:	430a      	orrs	r2, r1
 8005334:	f000 8448 	beq.w	8005bc8 <HAL_RCCEx_GetPeriphCLKFreq+0x950>
 8005338:	f640 0201 	movw	r2, #2049	@ 0x801
 800533c:	4290      	cmp	r0, r2
 800533e:	f171 0200 	sbcs.w	r2, r1, #0
 8005342:	d20b      	bcs.n	800535c <HAL_RCCEx_GetPeriphCLKFreq+0xe4>
 8005344:	f5a0 7200 	sub.w	r2, r0, #512	@ 0x200
 8005348:	430a      	orrs	r2, r1
 800534a:	f000 8480 	beq.w	8005c4e <HAL_RCCEx_GetPeriphCLKFreq+0x9d6>
 800534e:	f5a0 6380 	sub.w	r3, r0, #1024	@ 0x400
 8005352:	430b      	orrs	r3, r1
 8005354:	f000 84bc 	beq.w	8005cd0 <HAL_RCCEx_GetPeriphCLKFreq+0xa58>
 8005358:	2000      	movs	r0, #0
 800535a:	e7da      	b.n	8005312 <HAL_RCCEx_GetPeriphCLKFreq+0x9a>
 800535c:	f5a0 5380 	sub.w	r3, r0, #4096	@ 0x1000
 8005360:	430b      	orrs	r3, r1
 8005362:	f000 8130 	beq.w	80055c6 <HAL_RCCEx_GetPeriphCLKFreq+0x34e>
 8005366:	2000      	movs	r0, #0
 8005368:	e7d3      	b.n	8005312 <HAL_RCCEx_GetPeriphCLKFreq+0x9a>
 800536a:	f5a0 4200 	sub.w	r2, r0, #32768	@ 0x8000
 800536e:	430a      	orrs	r2, r1
 8005370:	f000 82a8 	beq.w	80058c4 <HAL_RCCEx_GetPeriphCLKFreq+0x64c>
 8005374:	f5a0 3280 	sub.w	r2, r0, #65536	@ 0x10000
 8005378:	430a      	orrs	r2, r1
 800537a:	f000 82e4 	beq.w	8005946 <HAL_RCCEx_GetPeriphCLKFreq+0x6ce>
 800537e:	f5a0 4380 	sub.w	r3, r0, #16384	@ 0x4000
 8005382:	430b      	orrs	r3, r1
 8005384:	f000 8100 	beq.w	8005588 <HAL_RCCEx_GetPeriphCLKFreq+0x310>
 8005388:	2000      	movs	r0, #0
 800538a:	e7c2      	b.n	8005312 <HAL_RCCEx_GetPeriphCLKFreq+0x9a>
 800538c:	f100 427c 	add.w	r2, r0, #4227858432	@ 0xfc000000
 8005390:	430a      	orrs	r2, r1
 8005392:	f000 858d 	beq.w	8005eb0 <HAL_RCCEx_GetPeriphCLKFreq+0xc38>
 8005396:	4a74      	ldr	r2, [pc, #464]	@ (8005568 <HAL_RCCEx_GetPeriphCLKFreq+0x2f0>)
 8005398:	4290      	cmp	r0, r2
 800539a:	f171 0200 	sbcs.w	r2, r1, #0
 800539e:	d236      	bcs.n	800540e <HAL_RCCEx_GetPeriphCLKFreq+0x196>
 80053a0:	f5a0 0280 	sub.w	r2, r0, #4194304	@ 0x400000
 80053a4:	430a      	orrs	r2, r1
 80053a6:	f000 83b7 	beq.w	8005b18 <HAL_RCCEx_GetPeriphCLKFreq+0x8a0>
 80053aa:	4a70      	ldr	r2, [pc, #448]	@ (800556c <HAL_RCCEx_GetPeriphCLKFreq+0x2f4>)
 80053ac:	4290      	cmp	r0, r2
 80053ae:	f171 0200 	sbcs.w	r2, r1, #0
 80053b2:	d21b      	bcs.n	80053ec <HAL_RCCEx_GetPeriphCLKFreq+0x174>
 80053b4:	f5a0 1280 	sub.w	r2, r0, #1048576	@ 0x100000
 80053b8:	430a      	orrs	r2, r1
 80053ba:	f000 8119 	beq.w	80055f0 <HAL_RCCEx_GetPeriphCLKFreq+0x378>
 80053be:	4a6c      	ldr	r2, [pc, #432]	@ (8005570 <HAL_RCCEx_GetPeriphCLKFreq+0x2f8>)
 80053c0:	4290      	cmp	r0, r2
 80053c2:	f171 0200 	sbcs.w	r2, r1, #0
 80053c6:	d20a      	bcs.n	80053de <HAL_RCCEx_GetPeriphCLKFreq+0x166>
 80053c8:	f5a0 2280 	sub.w	r2, r0, #262144	@ 0x40000
 80053cc:	430a      	orrs	r2, r1
 80053ce:	d075      	beq.n	80054bc <HAL_RCCEx_GetPeriphCLKFreq+0x244>
 80053d0:	f5a0 2300 	sub.w	r3, r0, #524288	@ 0x80000
 80053d4:	430b      	orrs	r3, r1
 80053d6:	f000 85d7 	beq.w	8005f88 <HAL_RCCEx_GetPeriphCLKFreq+0xd10>
 80053da:	2000      	movs	r0, #0
 80053dc:	e799      	b.n	8005312 <HAL_RCCEx_GetPeriphCLKFreq+0x9a>
 80053de:	f5a0 1300 	sub.w	r3, r0, #2097152	@ 0x200000
 80053e2:	430b      	orrs	r3, r1
 80053e4:	f000 8138 	beq.w	8005658 <HAL_RCCEx_GetPeriphCLKFreq+0x3e0>
 80053e8:	2000      	movs	r0, #0
 80053ea:	e792      	b.n	8005312 <HAL_RCCEx_GetPeriphCLKFreq+0x9a>
 80053ec:	f100 427f 	add.w	r2, r0, #4278190080	@ 0xff000000
 80053f0:	430a      	orrs	r2, r1
 80053f2:	f000 84f4 	beq.w	8005dde <HAL_RCCEx_GetPeriphCLKFreq+0xb66>
 80053f6:	f100 427e 	add.w	r2, r0, #4261412864	@ 0xfe000000
 80053fa:	430a      	orrs	r2, r1
 80053fc:	f000 8525 	beq.w	8005e4a <HAL_RCCEx_GetPeriphCLKFreq+0xbd2>
 8005400:	f5a0 0300 	sub.w	r3, r0, #8388608	@ 0x800000
 8005404:	430b      	orrs	r3, r1
 8005406:	f000 84ae 	beq.w	8005d66 <HAL_RCCEx_GetPeriphCLKFreq+0xaee>
 800540a:	2000      	movs	r0, #0
 800540c:	e781      	b.n	8005312 <HAL_RCCEx_GetPeriphCLKFreq+0x9a>
 800540e:	f100 4240 	add.w	r2, r0, #3221225472	@ 0xc0000000
 8005412:	430a      	orrs	r2, r1
 8005414:	f000 83ac 	beq.w	8005b70 <HAL_RCCEx_GetPeriphCLKFreq+0x8f8>
 8005418:	4a56      	ldr	r2, [pc, #344]	@ (8005574 <HAL_RCCEx_GetPeriphCLKFreq+0x2fc>)
 800541a:	4290      	cmp	r0, r2
 800541c:	f171 0200 	sbcs.w	r2, r1, #0
 8005420:	d210      	bcs.n	8005444 <HAL_RCCEx_GetPeriphCLKFreq+0x1cc>
 8005422:	f100 4270 	add.w	r2, r0, #4026531840	@ 0xf0000000
 8005426:	430a      	orrs	r2, r1
 8005428:	f000 858f 	beq.w	8005f4a <HAL_RCCEx_GetPeriphCLKFreq+0xcd2>
 800542c:	f100 4260 	add.w	r2, r0, #3758096384	@ 0xe0000000
 8005430:	430a      	orrs	r2, r1
 8005432:	f000 81f3 	beq.w	800581c <HAL_RCCEx_GetPeriphCLKFreq+0x5a4>
 8005436:	f100 4378 	add.w	r3, r0, #4160749568	@ 0xf8000000
 800543a:	430b      	orrs	r3, r1
 800543c:	f000 8475 	beq.w	8005d2a <HAL_RCCEx_GetPeriphCLKFreq+0xab2>
 8005440:	2000      	movs	r0, #0
 8005442:	e766      	b.n	8005312 <HAL_RCCEx_GetPeriphCLKFreq+0x9a>
 8005444:	2000      	movs	r0, #0
 8005446:	2901      	cmp	r1, #1
 8005448:	bf08      	it	eq
 800544a:	4283      	cmpeq	r3, r0
 800544c:	f000 855f 	beq.w	8005f0e <HAL_RCCEx_GetPeriphCLKFreq+0xc96>
 8005450:	2908      	cmp	r1, #8
 8005452:	bf08      	it	eq
 8005454:	4283      	cmpeq	r3, r0
 8005456:	f000 85b6 	beq.w	8005fc6 <HAL_RCCEx_GetPeriphCLKFreq+0xd4e>
 800545a:	4281      	cmp	r1, r0
 800545c:	bf08      	it	eq
 800545e:	f1b3 4f00 	cmpeq.w	r3, #2147483648	@ 0x80000000
 8005462:	f47f af56 	bne.w	8005312 <HAL_RCCEx_GetPeriphCLKFreq+0x9a>
 8005466:	4a44      	ldr	r2, [pc, #272]	@ (8005578 <HAL_RCCEx_GetPeriphCLKFreq+0x300>)
 8005468:	f8d2 30e4 	ldr.w	r3, [r2, #228]	@ 0xe4
 800546c:	f013 6340 	ands.w	r3, r3, #201326592	@ 0xc000000
 8005470:	f000 8158 	beq.w	8005724 <HAL_RCCEx_GetPeriphCLKFreq+0x4ac>
 8005474:	f1b3 6f80 	cmp.w	r3, #67108864	@ 0x4000000
 8005478:	f000 8137 	beq.w	80056ea <HAL_RCCEx_GetPeriphCLKFreq+0x472>
 800547c:	6812      	ldr	r2, [r2, #0]
 800547e:	0552      	lsls	r2, r2, #21
 8005480:	d503      	bpl.n	800548a <HAL_RCCEx_GetPeriphCLKFreq+0x212>
 8005482:	f1b3 6f00 	cmp.w	r3, #134217728	@ 0x8000000
 8005486:	f000 8619 	beq.w	80060bc <HAL_RCCEx_GetPeriphCLKFreq+0xe44>
 800548a:	4a3b      	ldr	r2, [pc, #236]	@ (8005578 <HAL_RCCEx_GetPeriphCLKFreq+0x300>)
 800548c:	6810      	ldr	r0, [r2, #0]
 800548e:	f010 0020 	ands.w	r0, r0, #32
 8005492:	f43f af3e 	beq.w	8005312 <HAL_RCCEx_GetPeriphCLKFreq+0x9a>
 8005496:	f1b3 6f40 	cmp.w	r3, #201326592	@ 0xc000000
 800549a:	f040 8612 	bne.w	80060c2 <HAL_RCCEx_GetPeriphCLKFreq+0xe4a>
 800549e:	6893      	ldr	r3, [r2, #8]
 80054a0:	021b      	lsls	r3, r3, #8
 80054a2:	bf4c      	ite	mi
 80054a4:	6893      	ldrmi	r3, [r2, #8]
 80054a6:	f8d2 30f4 	ldrpl.w	r3, [r2, #244]	@ 0xf4
 80054aa:	4a34      	ldr	r2, [pc, #208]	@ (800557c <HAL_RCCEx_GetPeriphCLKFreq+0x304>)
 80054ac:	bf4c      	ite	mi
 80054ae:	f3c3 6303 	ubfxmi	r3, r3, #24, #4
 80054b2:	f3c3 2303 	ubfxpl	r3, r3, #8, #4
 80054b6:	f852 0023 	ldr.w	r0, [r2, r3, lsl #2]
 80054ba:	e72a      	b.n	8005312 <HAL_RCCEx_GetPeriphCLKFreq+0x9a>
 80054bc:	4a2e      	ldr	r2, [pc, #184]	@ (8005578 <HAL_RCCEx_GetPeriphCLKFreq+0x300>)
 80054be:	f8d2 30f0 	ldr.w	r3, [r2, #240]	@ 0xf0
 80054c2:	f8d2 10f0 	ldr.w	r1, [r2, #240]	@ 0xf0
 80054c6:	f403 7340 	and.w	r3, r3, #768	@ 0x300
 80054ca:	0789      	lsls	r1, r1, #30
 80054cc:	d503      	bpl.n	80054d6 <HAL_RCCEx_GetPeriphCLKFreq+0x25e>
 80054ce:	f5b3 7f80 	cmp.w	r3, #256	@ 0x100
 80054d2:	f000 859f 	beq.w	8006014 <HAL_RCCEx_GetPeriphCLKFreq+0xd9c>
 80054d6:	f8d2 10f0 	ldr.w	r1, [r2, #240]	@ 0xf0
 80054da:	0109      	lsls	r1, r1, #4
 80054dc:	d50b      	bpl.n	80054f6 <HAL_RCCEx_GetPeriphCLKFreq+0x27e>
 80054de:	f5b3 7f00 	cmp.w	r3, #512	@ 0x200
 80054e2:	d108      	bne.n	80054f6 <HAL_RCCEx_GetPeriphCLKFreq+0x27e>
 80054e4:	f8d2 30f0 	ldr.w	r3, [r2, #240]	@ 0xf0
 80054e8:	f013 5f80 	tst.w	r3, #268435456	@ 0x10000000
 80054ec:	bf0c      	ite	eq
 80054ee:	f44f 40fa 	moveq.w	r0, #32000	@ 0x7d00
 80054f2:	20fa      	movne	r0, #250	@ 0xfa
 80054f4:	e70d      	b.n	8005312 <HAL_RCCEx_GetPeriphCLKFreq+0x9a>
 80054f6:	4a20      	ldr	r2, [pc, #128]	@ (8005578 <HAL_RCCEx_GetPeriphCLKFreq+0x300>)
 80054f8:	6810      	ldr	r0, [r2, #0]
 80054fa:	f410 3000 	ands.w	r0, r0, #131072	@ 0x20000
 80054fe:	f43f af08 	beq.w	8005312 <HAL_RCCEx_GetPeriphCLKFreq+0x9a>
 8005502:	f5b3 7f40 	cmp.w	r3, #768	@ 0x300
 8005506:	481e      	ldr	r0, [pc, #120]	@ (8005580 <HAL_RCCEx_GetPeriphCLKFreq+0x308>)
 8005508:	bf18      	it	ne
 800550a:	2000      	movne	r0, #0
 800550c:	e701      	b.n	8005312 <HAL_RCCEx_GetPeriphCLKFreq+0x9a>
 800550e:	4a1a      	ldr	r2, [pc, #104]	@ (8005578 <HAL_RCCEx_GetPeriphCLKFreq+0x300>)
 8005510:	f8d2 30e4 	ldr.w	r3, [r2, #228]	@ 0xe4
 8005514:	f003 03e0 	and.w	r3, r3, #224	@ 0xe0
 8005518:	2b40      	cmp	r3, #64	@ 0x40
 800551a:	d00c      	beq.n	8005536 <HAL_RCCEx_GetPeriphCLKFreq+0x2be>
 800551c:	d804      	bhi.n	8005528 <HAL_RCCEx_GetPeriphCLKFreq+0x2b0>
 800551e:	b17b      	cbz	r3, 8005540 <HAL_RCCEx_GetPeriphCLKFreq+0x2c8>
 8005520:	2b20      	cmp	r3, #32
 8005522:	d012      	beq.n	800554a <HAL_RCCEx_GetPeriphCLKFreq+0x2d2>
 8005524:	2000      	movs	r0, #0
 8005526:	e6f4      	b.n	8005312 <HAL_RCCEx_GetPeriphCLKFreq+0x9a>
 8005528:	2b60      	cmp	r3, #96	@ 0x60
 800552a:	f000 8577 	beq.w	800601c <HAL_RCCEx_GetPeriphCLKFreq+0xda4>
 800552e:	2b80      	cmp	r3, #128	@ 0x80
 8005530:	d010      	beq.n	8005554 <HAL_RCCEx_GetPeriphCLKFreq+0x2dc>
 8005532:	2000      	movs	r0, #0
 8005534:	e6ed      	b.n	8005312 <HAL_RCCEx_GetPeriphCLKFreq+0x9a>
 8005536:	a801      	add	r0, sp, #4
 8005538:	f7ff fcd0 	bl	8004edc <HAL_RCCEx_GetPLL1ClockFreq>
 800553c:	9801      	ldr	r0, [sp, #4]
 800553e:	e6e8      	b.n	8005312 <HAL_RCCEx_GetPeriphCLKFreq+0x9a>
 8005540:	a801      	add	r0, sp, #4
 8005542:	f7ff fd65 	bl	8005010 <HAL_RCCEx_GetPLL2ClockFreq>
 8005546:	9801      	ldr	r0, [sp, #4]
 8005548:	e6e3      	b.n	8005312 <HAL_RCCEx_GetPeriphCLKFreq+0x9a>
 800554a:	a801      	add	r0, sp, #4
 800554c:	f7ff fdfa 	bl	8005144 <HAL_RCCEx_GetPLL3ClockFreq>
 8005550:	9801      	ldr	r0, [sp, #4]
 8005552:	e6de      	b.n	8005312 <HAL_RCCEx_GetPeriphCLKFreq+0x9a>
 8005554:	6810      	ldr	r0, [r2, #0]
 8005556:	4b0b      	ldr	r3, [pc, #44]	@ (8005584 <HAL_RCCEx_GetPeriphCLKFreq+0x30c>)
 8005558:	f410 6080 	ands.w	r0, r0, #1024	@ 0x400
 800555c:	bf18      	it	ne
 800555e:	4618      	movne	r0, r3
 8005560:	e6d7      	b.n	8005312 <HAL_RCCEx_GetPeriphCLKFreq+0x9a>
 8005562:	bf00      	nop
 8005564:	00020001 	.word	0x00020001
 8005568:	04000001 	.word	0x04000001
 800556c:	00400001 	.word	0x00400001
 8005570:	00100001 	.word	0x00100001
 8005574:	40000001 	.word	0x40000001
 8005578:	46020c00 	.word	0x46020c00
 800557c:	080093b8 	.word	0x080093b8
 8005580:	0007a120 	.word	0x0007a120
 8005584:	00f42400 	.word	0x00f42400
 8005588:	4a9f      	ldr	r2, [pc, #636]	@ (8005808 <HAL_RCCEx_GetPeriphCLKFreq+0x590>)
 800558a:	f8d2 30e4 	ldr.w	r3, [r2, #228]	@ 0xe4
 800558e:	f403 63e0 	and.w	r3, r3, #1792	@ 0x700
 8005592:	f5b3 7f00 	cmp.w	r3, #512	@ 0x200
 8005596:	d0ce      	beq.n	8005536 <HAL_RCCEx_GetPeriphCLKFreq+0x2be>
 8005598:	d806      	bhi.n	80055a8 <HAL_RCCEx_GetPeriphCLKFreq+0x330>
 800559a:	2b00      	cmp	r3, #0
 800559c:	d0d0      	beq.n	8005540 <HAL_RCCEx_GetPeriphCLKFreq+0x2c8>
 800559e:	f5b3 7f80 	cmp.w	r3, #256	@ 0x100
 80055a2:	d0d2      	beq.n	800554a <HAL_RCCEx_GetPeriphCLKFreq+0x2d2>
 80055a4:	2000      	movs	r0, #0
 80055a6:	e6b4      	b.n	8005312 <HAL_RCCEx_GetPeriphCLKFreq+0x9a>
 80055a8:	f5b3 7f40 	cmp.w	r3, #768	@ 0x300
 80055ac:	f000 853a 	beq.w	8006024 <HAL_RCCEx_GetPeriphCLKFreq+0xdac>
 80055b0:	f5b3 6f80 	cmp.w	r3, #1024	@ 0x400
 80055b4:	f040 853a 	bne.w	800602c <HAL_RCCEx_GetPeriphCLKFreq+0xdb4>
 80055b8:	6810      	ldr	r0, [r2, #0]
 80055ba:	4b94      	ldr	r3, [pc, #592]	@ (800580c <HAL_RCCEx_GetPeriphCLKFreq+0x594>)
 80055bc:	f410 6080 	ands.w	r0, r0, #1024	@ 0x400
 80055c0:	bf18      	it	ne
 80055c2:	4618      	movne	r0, r3
 80055c4:	e6a5      	b.n	8005312 <HAL_RCCEx_GetPeriphCLKFreq+0x9a>
 80055c6:	4a90      	ldr	r2, [pc, #576]	@ (8005808 <HAL_RCCEx_GetPeriphCLKFreq+0x590>)
 80055c8:	f8d2 30e4 	ldr.w	r3, [r2, #228]	@ 0xe4
 80055cc:	6811      	ldr	r1, [r2, #0]
 80055ce:	f403 6300 	and.w	r3, r3, #2048	@ 0x800
 80055d2:	0548      	lsls	r0, r1, #21
 80055d4:	d502      	bpl.n	80055dc <HAL_RCCEx_GetPeriphCLKFreq+0x364>
 80055d6:	2b00      	cmp	r3, #0
 80055d8:	f000 852b 	beq.w	8006032 <HAL_RCCEx_GetPeriphCLKFreq+0xdba>
 80055dc:	6810      	ldr	r0, [r2, #0]
 80055de:	f410 6080 	ands.w	r0, r0, #1024	@ 0x400
 80055e2:	f43f ae96 	beq.w	8005312 <HAL_RCCEx_GetPeriphCLKFreq+0x9a>
 80055e6:	2b00      	cmp	r3, #0
 80055e8:	4889      	ldr	r0, [pc, #548]	@ (8005810 <HAL_RCCEx_GetPeriphCLKFreq+0x598>)
 80055ea:	bf08      	it	eq
 80055ec:	2000      	moveq	r0, #0
 80055ee:	e690      	b.n	8005312 <HAL_RCCEx_GetPeriphCLKFreq+0x9a>
 80055f0:	4b85      	ldr	r3, [pc, #532]	@ (8005808 <HAL_RCCEx_GetPeriphCLKFreq+0x590>)
 80055f2:	f8d3 20e0 	ldr.w	r2, [r3, #224]	@ 0xe0
 80055f6:	f002 6240 	and.w	r2, r2, #201326592	@ 0xc000000
 80055fa:	f1b2 6f00 	cmp.w	r2, #134217728	@ 0x8000000
 80055fe:	d00b      	beq.n	8005618 <HAL_RCCEx_GetPeriphCLKFreq+0x3a0>
 8005600:	d805      	bhi.n	800560e <HAL_RCCEx_GetPeriphCLKFreq+0x396>
 8005602:	b172      	cbz	r2, 8005622 <HAL_RCCEx_GetPeriphCLKFreq+0x3aa>
 8005604:	f1b2 6f80 	cmp.w	r2, #67108864	@ 0x4000000
 8005608:	d039      	beq.n	800567e <HAL_RCCEx_GetPeriphCLKFreq+0x406>
 800560a:	2000      	movs	r0, #0
 800560c:	e681      	b.n	8005312 <HAL_RCCEx_GetPeriphCLKFreq+0x9a>
 800560e:	f1b2 6f40 	cmp.w	r2, #201326592	@ 0xc000000
 8005612:	d00d      	beq.n	8005630 <HAL_RCCEx_GetPeriphCLKFreq+0x3b8>
 8005614:	2000      	movs	r0, #0
 8005616:	e67c      	b.n	8005312 <HAL_RCCEx_GetPeriphCLKFreq+0x9a>
 8005618:	a801      	add	r0, sp, #4
 800561a:	f7ff fc5f 	bl	8004edc <HAL_RCCEx_GetPLL1ClockFreq>
 800561e:	9802      	ldr	r0, [sp, #8]
 8005620:	e677      	b.n	8005312 <HAL_RCCEx_GetPeriphCLKFreq+0x9a>
 8005622:	6818      	ldr	r0, [r3, #0]
 8005624:	4b7b      	ldr	r3, [pc, #492]	@ (8005814 <HAL_RCCEx_GetPeriphCLKFreq+0x59c>)
 8005626:	f410 5000 	ands.w	r0, r0, #8192	@ 0x2000
 800562a:	bf18      	it	ne
 800562c:	4618      	movne	r0, r3
 800562e:	e670      	b.n	8005312 <HAL_RCCEx_GetPeriphCLKFreq+0x9a>
 8005630:	6818      	ldr	r0, [r3, #0]
 8005632:	f010 0020 	ands.w	r0, r0, #32
 8005636:	f43f ae6c 	beq.w	8005312 <HAL_RCCEx_GetPeriphCLKFreq+0x9a>
 800563a:	689a      	ldr	r2, [r3, #8]
 800563c:	0211      	lsls	r1, r2, #8
 800563e:	bf4c      	ite	mi
 8005640:	689b      	ldrmi	r3, [r3, #8]
 8005642:	f8d3 30f4 	ldrpl.w	r3, [r3, #244]	@ 0xf4
 8005646:	4a74      	ldr	r2, [pc, #464]	@ (8005818 <HAL_RCCEx_GetPeriphCLKFreq+0x5a0>)
 8005648:	bf4c      	ite	mi
 800564a:	f3c3 6303 	ubfxmi	r3, r3, #24, #4
 800564e:	f3c3 2303 	ubfxpl	r3, r3, #8, #4
 8005652:	f852 0023 	ldr.w	r0, [r2, r3, lsl #2]
 8005656:	e65c      	b.n	8005312 <HAL_RCCEx_GetPeriphCLKFreq+0x9a>
 8005658:	4b6b      	ldr	r3, [pc, #428]	@ (8005808 <HAL_RCCEx_GetPeriphCLKFreq+0x590>)
 800565a:	f8d3 00e4 	ldr.w	r0, [r3, #228]	@ 0xe4
 800565e:	f410 4080 	ands.w	r0, r0, #16384	@ 0x4000
 8005662:	d130      	bne.n	80056c6 <HAL_RCCEx_GetPeriphCLKFreq+0x44e>
 8005664:	f8d3 20e0 	ldr.w	r2, [r3, #224]	@ 0xe0
 8005668:	f002 6240 	and.w	r2, r2, #201326592	@ 0xc000000
 800566c:	f1b2 6f00 	cmp.w	r2, #134217728	@ 0x8000000
 8005670:	d0d2      	beq.n	8005618 <HAL_RCCEx_GetPeriphCLKFreq+0x3a0>
 8005672:	d809      	bhi.n	8005688 <HAL_RCCEx_GetPeriphCLKFreq+0x410>
 8005674:	b302      	cbz	r2, 80056b8 <HAL_RCCEx_GetPeriphCLKFreq+0x440>
 8005676:	f1b2 6f80 	cmp.w	r2, #67108864	@ 0x4000000
 800567a:	f47f ae4a 	bne.w	8005312 <HAL_RCCEx_GetPeriphCLKFreq+0x9a>
 800567e:	a801      	add	r0, sp, #4
 8005680:	f7ff fcc6 	bl	8005010 <HAL_RCCEx_GetPLL2ClockFreq>
 8005684:	9802      	ldr	r0, [sp, #8]
 8005686:	e644      	b.n	8005312 <HAL_RCCEx_GetPeriphCLKFreq+0x9a>
 8005688:	f1b2 6f40 	cmp.w	r2, #201326592	@ 0xc000000
 800568c:	f47f ae41 	bne.w	8005312 <HAL_RCCEx_GetPeriphCLKFreq+0x9a>
 8005690:	6818      	ldr	r0, [r3, #0]
 8005692:	f010 0020 	ands.w	r0, r0, #32
 8005696:	f43f ae3c 	beq.w	8005312 <HAL_RCCEx_GetPeriphCLKFreq+0x9a>
 800569a:	689a      	ldr	r2, [r3, #8]
 800569c:	0212      	lsls	r2, r2, #8
 800569e:	bf4c      	ite	mi
 80056a0:	689b      	ldrmi	r3, [r3, #8]
 80056a2:	f8d3 30f4 	ldrpl.w	r3, [r3, #244]	@ 0xf4
 80056a6:	4a5c      	ldr	r2, [pc, #368]	@ (8005818 <HAL_RCCEx_GetPeriphCLKFreq+0x5a0>)
 80056a8:	bf4c      	ite	mi
 80056aa:	f3c3 6303 	ubfxmi	r3, r3, #24, #4
 80056ae:	f3c3 2303 	ubfxpl	r3, r3, #8, #4
 80056b2:	f852 0023 	ldr.w	r0, [r2, r3, lsl #2]
 80056b6:	e62c      	b.n	8005312 <HAL_RCCEx_GetPeriphCLKFreq+0x9a>
 80056b8:	6818      	ldr	r0, [r3, #0]
 80056ba:	4b56      	ldr	r3, [pc, #344]	@ (8005814 <HAL_RCCEx_GetPeriphCLKFreq+0x59c>)
 80056bc:	f410 5000 	ands.w	r0, r0, #8192	@ 0x2000
 80056c0:	bf18      	it	ne
 80056c2:	4618      	movne	r0, r3
 80056c4:	e625      	b.n	8005312 <HAL_RCCEx_GetPeriphCLKFreq+0x9a>
 80056c6:	a801      	add	r0, sp, #4
 80056c8:	f7ff fc08 	bl	8004edc <HAL_RCCEx_GetPLL1ClockFreq>
 80056cc:	9801      	ldr	r0, [sp, #4]
 80056ce:	e620      	b.n	8005312 <HAL_RCCEx_GetPeriphCLKFreq+0x9a>
 80056d0:	4a4d      	ldr	r2, [pc, #308]	@ (8005808 <HAL_RCCEx_GetPeriphCLKFreq+0x590>)
 80056d2:	f8d2 30e0 	ldr.w	r3, [r2, #224]	@ 0xe0
 80056d6:	f013 0303 	ands.w	r3, r3, #3
 80056da:	d104      	bne.n	80056e6 <HAL_RCCEx_GetPeriphCLKFreq+0x46e>
 80056dc:	b005      	add	sp, #20
 80056de:	f85d eb04 	ldr.w	lr, [sp], #4
 80056e2:	f7fe bfa9 	b.w	8004638 <HAL_RCC_GetPCLK2Freq>
 80056e6:	2b01      	cmp	r3, #1
 80056e8:	d104      	bne.n	80056f4 <HAL_RCCEx_GetPeriphCLKFreq+0x47c>
 80056ea:	b005      	add	sp, #20
 80056ec:	f85d eb04 	ldr.w	lr, [sp], #4
 80056f0:	f7fe b944 	b.w	800397c <HAL_RCC_GetSysClockFreq>
 80056f4:	6812      	ldr	r2, [r2, #0]
 80056f6:	0550      	lsls	r0, r2, #21
 80056f8:	d502      	bpl.n	8005700 <HAL_RCCEx_GetPeriphCLKFreq+0x488>
 80056fa:	2b02      	cmp	r3, #2
 80056fc:	f000 849c 	beq.w	8006038 <HAL_RCCEx_GetPeriphCLKFreq+0xdc0>
 8005700:	4a41      	ldr	r2, [pc, #260]	@ (8005808 <HAL_RCCEx_GetPeriphCLKFreq+0x590>)
 8005702:	f8d2 00f0 	ldr.w	r0, [r2, #240]	@ 0xf0
 8005706:	f010 0002 	ands.w	r0, r0, #2
 800570a:	f43f ae02 	beq.w	8005312 <HAL_RCCEx_GetPeriphCLKFreq+0x9a>
 800570e:	1ed9      	subs	r1, r3, #3
 8005710:	424b      	negs	r3, r1
 8005712:	414b      	adcs	r3, r1
 8005714:	03d8      	lsls	r0, r3, #15
 8005716:	e5fc      	b.n	8005312 <HAL_RCCEx_GetPeriphCLKFreq+0x9a>
 8005718:	4a3b      	ldr	r2, [pc, #236]	@ (8005808 <HAL_RCCEx_GetPeriphCLKFreq+0x590>)
 800571a:	f8d2 30e0 	ldr.w	r3, [r2, #224]	@ 0xe0
 800571e:	f013 030c 	ands.w	r3, r3, #12
 8005722:	d104      	bne.n	800572e <HAL_RCCEx_GetPeriphCLKFreq+0x4b6>
 8005724:	b005      	add	sp, #20
 8005726:	f85d eb04 	ldr.w	lr, [sp], #4
 800572a:	f7fe bf75 	b.w	8004618 <HAL_RCC_GetPCLK1Freq>
 800572e:	2b04      	cmp	r3, #4
 8005730:	d0db      	beq.n	80056ea <HAL_RCCEx_GetPeriphCLKFreq+0x472>
 8005732:	6812      	ldr	r2, [r2, #0]
 8005734:	0552      	lsls	r2, r2, #21
 8005736:	d502      	bpl.n	800573e <HAL_RCCEx_GetPeriphCLKFreq+0x4c6>
 8005738:	2b08      	cmp	r3, #8
 800573a:	f000 8480 	beq.w	800603e <HAL_RCCEx_GetPeriphCLKFreq+0xdc6>
 800573e:	4a32      	ldr	r2, [pc, #200]	@ (8005808 <HAL_RCCEx_GetPeriphCLKFreq+0x590>)
 8005740:	f8d2 00f0 	ldr.w	r0, [r2, #240]	@ 0xf0
 8005744:	f010 0002 	ands.w	r0, r0, #2
 8005748:	f43f ade3 	beq.w	8005312 <HAL_RCCEx_GetPeriphCLKFreq+0x9a>
 800574c:	f1a3 0c0c 	sub.w	ip, r3, #12
 8005750:	f1dc 0300 	rsbs	r3, ip, #0
 8005754:	eb43 030c 	adc.w	r3, r3, ip
 8005758:	03d8      	lsls	r0, r3, #15
 800575a:	e5da      	b.n	8005312 <HAL_RCCEx_GetPeriphCLKFreq+0x9a>
 800575c:	4a2a      	ldr	r2, [pc, #168]	@ (8005808 <HAL_RCCEx_GetPeriphCLKFreq+0x590>)
 800575e:	f8d2 30e0 	ldr.w	r3, [r2, #224]	@ 0xe0
 8005762:	f013 0330 	ands.w	r3, r3, #48	@ 0x30
 8005766:	d0dd      	beq.n	8005724 <HAL_RCCEx_GetPeriphCLKFreq+0x4ac>
 8005768:	2b10      	cmp	r3, #16
 800576a:	d0be      	beq.n	80056ea <HAL_RCCEx_GetPeriphCLKFreq+0x472>
 800576c:	6812      	ldr	r2, [r2, #0]
 800576e:	0550      	lsls	r0, r2, #21
 8005770:	d502      	bpl.n	8005778 <HAL_RCCEx_GetPeriphCLKFreq+0x500>
 8005772:	2b20      	cmp	r3, #32
 8005774:	f000 8466 	beq.w	8006044 <HAL_RCCEx_GetPeriphCLKFreq+0xdcc>
 8005778:	4a23      	ldr	r2, [pc, #140]	@ (8005808 <HAL_RCCEx_GetPeriphCLKFreq+0x590>)
 800577a:	f8d2 00f0 	ldr.w	r0, [r2, #240]	@ 0xf0
 800577e:	f010 0002 	ands.w	r0, r0, #2
 8005782:	f43f adc6 	beq.w	8005312 <HAL_RCCEx_GetPeriphCLKFreq+0x9a>
 8005786:	f1a3 0130 	sub.w	r1, r3, #48	@ 0x30
 800578a:	424b      	negs	r3, r1
 800578c:	414b      	adcs	r3, r1
 800578e:	03d8      	lsls	r0, r3, #15
 8005790:	e5bf      	b.n	8005312 <HAL_RCCEx_GetPeriphCLKFreq+0x9a>
 8005792:	4a1d      	ldr	r2, [pc, #116]	@ (8005808 <HAL_RCCEx_GetPeriphCLKFreq+0x590>)
 8005794:	f8d2 30e0 	ldr.w	r3, [r2, #224]	@ 0xe0
 8005798:	f013 03c0 	ands.w	r3, r3, #192	@ 0xc0
 800579c:	d0c2      	beq.n	8005724 <HAL_RCCEx_GetPeriphCLKFreq+0x4ac>
 800579e:	2b40      	cmp	r3, #64	@ 0x40
 80057a0:	d0a3      	beq.n	80056ea <HAL_RCCEx_GetPeriphCLKFreq+0x472>
 80057a2:	6812      	ldr	r2, [r2, #0]
 80057a4:	0552      	lsls	r2, r2, #21
 80057a6:	d502      	bpl.n	80057ae <HAL_RCCEx_GetPeriphCLKFreq+0x536>
 80057a8:	2b80      	cmp	r3, #128	@ 0x80
 80057aa:	f000 844e 	beq.w	800604a <HAL_RCCEx_GetPeriphCLKFreq+0xdd2>
 80057ae:	4a16      	ldr	r2, [pc, #88]	@ (8005808 <HAL_RCCEx_GetPeriphCLKFreq+0x590>)
 80057b0:	f8d2 00f0 	ldr.w	r0, [r2, #240]	@ 0xf0
 80057b4:	f010 0002 	ands.w	r0, r0, #2
 80057b8:	f43f adab 	beq.w	8005312 <HAL_RCCEx_GetPeriphCLKFreq+0x9a>
 80057bc:	f1a3 0cc0 	sub.w	ip, r3, #192	@ 0xc0
 80057c0:	f1dc 0300 	rsbs	r3, ip, #0
 80057c4:	eb43 030c 	adc.w	r3, r3, ip
 80057c8:	03d8      	lsls	r0, r3, #15
 80057ca:	e5a2      	b.n	8005312 <HAL_RCCEx_GetPeriphCLKFreq+0x9a>
 80057cc:	4a0e      	ldr	r2, [pc, #56]	@ (8005808 <HAL_RCCEx_GetPeriphCLKFreq+0x590>)
 80057ce:	f8d2 30e0 	ldr.w	r3, [r2, #224]	@ 0xe0
 80057d2:	f413 7340 	ands.w	r3, r3, #768	@ 0x300
 80057d6:	d0a5      	beq.n	8005724 <HAL_RCCEx_GetPeriphCLKFreq+0x4ac>
 80057d8:	f5b3 7f80 	cmp.w	r3, #256	@ 0x100
 80057dc:	d085      	beq.n	80056ea <HAL_RCCEx_GetPeriphCLKFreq+0x472>
 80057de:	6812      	ldr	r2, [r2, #0]
 80057e0:	0550      	lsls	r0, r2, #21
 80057e2:	d503      	bpl.n	80057ec <HAL_RCCEx_GetPeriphCLKFreq+0x574>
 80057e4:	f5b3 7f00 	cmp.w	r3, #512	@ 0x200
 80057e8:	f000 8432 	beq.w	8006050 <HAL_RCCEx_GetPeriphCLKFreq+0xdd8>
 80057ec:	4a06      	ldr	r2, [pc, #24]	@ (8005808 <HAL_RCCEx_GetPeriphCLKFreq+0x590>)
 80057ee:	f8d2 00f0 	ldr.w	r0, [r2, #240]	@ 0xf0
 80057f2:	f010 0002 	ands.w	r0, r0, #2
 80057f6:	f43f ad8c 	beq.w	8005312 <HAL_RCCEx_GetPeriphCLKFreq+0x9a>
 80057fa:	f5a3 7140 	sub.w	r1, r3, #768	@ 0x300
 80057fe:	424b      	negs	r3, r1
 8005800:	414b      	adcs	r3, r1
 8005802:	03d8      	lsls	r0, r3, #15
 8005804:	e585      	b.n	8005312 <HAL_RCCEx_GetPeriphCLKFreq+0x9a>
 8005806:	bf00      	nop
 8005808:	46020c00 	.word	0x46020c00
 800580c:	00f42400 	.word	0x00f42400
 8005810:	007a1200 	.word	0x007a1200
 8005814:	02dc6c00 	.word	0x02dc6c00
 8005818:	080093b8 	.word	0x080093b8
 800581c:	4aad      	ldr	r2, [pc, #692]	@ (8005ad4 <HAL_RCCEx_GetPeriphCLKFreq+0x85c>)
 800581e:	f8d2 30e4 	ldr.w	r3, [r2, #228]	@ 0xe4
 8005822:	f413 3340 	ands.w	r3, r3, #196608	@ 0x30000
 8005826:	f43f af7d 	beq.w	8005724 <HAL_RCCEx_GetPeriphCLKFreq+0x4ac>
 800582a:	f5b3 3f80 	cmp.w	r3, #65536	@ 0x10000
 800582e:	f43f af5c 	beq.w	80056ea <HAL_RCCEx_GetPeriphCLKFreq+0x472>
 8005832:	6812      	ldr	r2, [r2, #0]
 8005834:	0552      	lsls	r2, r2, #21
 8005836:	d503      	bpl.n	8005840 <HAL_RCCEx_GetPeriphCLKFreq+0x5c8>
 8005838:	f5b3 3f00 	cmp.w	r3, #131072	@ 0x20000
 800583c:	f000 840b 	beq.w	8006056 <HAL_RCCEx_GetPeriphCLKFreq+0xdde>
 8005840:	4aa4      	ldr	r2, [pc, #656]	@ (8005ad4 <HAL_RCCEx_GetPeriphCLKFreq+0x85c>)
 8005842:	f8d2 00f0 	ldr.w	r0, [r2, #240]	@ 0xf0
 8005846:	f010 0002 	ands.w	r0, r0, #2
 800584a:	f43f ad62 	beq.w	8005312 <HAL_RCCEx_GetPeriphCLKFreq+0x9a>
 800584e:	f5a3 3c40 	sub.w	ip, r3, #196608	@ 0x30000
 8005852:	f1dc 0300 	rsbs	r3, ip, #0
 8005856:	eb43 030c 	adc.w	r3, r3, ip
 800585a:	03d8      	lsls	r0, r3, #15
 800585c:	e559      	b.n	8005312 <HAL_RCCEx_GetPeriphCLKFreq+0x9a>
 800585e:	4a9d      	ldr	r2, [pc, #628]	@ (8005ad4 <HAL_RCCEx_GetPeriphCLKFreq+0x85c>)
 8005860:	f8d2 30e8 	ldr.w	r3, [r2, #232]	@ 0xe8
 8005864:	f013 0307 	ands.w	r3, r3, #7
 8005868:	d104      	bne.n	8005874 <HAL_RCCEx_GetPeriphCLKFreq+0x5fc>
 800586a:	b005      	add	sp, #20
 800586c:	f85d eb04 	ldr.w	lr, [sp], #4
 8005870:	f7fe bef2 	b.w	8004658 <HAL_RCC_GetPCLK3Freq>
 8005874:	2b01      	cmp	r3, #1
 8005876:	f43f af38 	beq.w	80056ea <HAL_RCCEx_GetPeriphCLKFreq+0x472>
 800587a:	6812      	ldr	r2, [r2, #0]
 800587c:	0550      	lsls	r0, r2, #21
 800587e:	d502      	bpl.n	8005886 <HAL_RCCEx_GetPeriphCLKFreq+0x60e>
 8005880:	2b02      	cmp	r3, #2
 8005882:	f000 83eb 	beq.w	800605c <HAL_RCCEx_GetPeriphCLKFreq+0xde4>
 8005886:	4a93      	ldr	r2, [pc, #588]	@ (8005ad4 <HAL_RCCEx_GetPeriphCLKFreq+0x85c>)
 8005888:	f8d2 10f0 	ldr.w	r1, [r2, #240]	@ 0xf0
 800588c:	0789      	lsls	r1, r1, #30
 800588e:	d502      	bpl.n	8005896 <HAL_RCCEx_GetPeriphCLKFreq+0x61e>
 8005890:	2b03      	cmp	r3, #3
 8005892:	f000 83e6 	beq.w	8006062 <HAL_RCCEx_GetPeriphCLKFreq+0xdea>
 8005896:	6810      	ldr	r0, [r2, #0]
 8005898:	f010 0020 	ands.w	r0, r0, #32
 800589c:	f43f ad39 	beq.w	8005312 <HAL_RCCEx_GetPeriphCLKFreq+0x9a>
 80058a0:	2b04      	cmp	r3, #4
 80058a2:	f040 83e2 	bne.w	800606a <HAL_RCCEx_GetPeriphCLKFreq+0xdf2>
 80058a6:	6893      	ldr	r3, [r2, #8]
 80058a8:	021b      	lsls	r3, r3, #8
 80058aa:	bf4c      	ite	mi
 80058ac:	6893      	ldrmi	r3, [r2, #8]
 80058ae:	f8d2 30f4 	ldrpl.w	r3, [r2, #244]	@ 0xf4
 80058b2:	4a89      	ldr	r2, [pc, #548]	@ (8005ad8 <HAL_RCCEx_GetPeriphCLKFreq+0x860>)
 80058b4:	bf4c      	ite	mi
 80058b6:	f3c3 6303 	ubfxmi	r3, r3, #24, #4
 80058ba:	f3c3 2303 	ubfxpl	r3, r3, #8, #4
 80058be:	f852 0023 	ldr.w	r0, [r2, r3, lsl #2]
 80058c2:	e526      	b.n	8005312 <HAL_RCCEx_GetPeriphCLKFreq+0x9a>
 80058c4:	4a83      	ldr	r2, [pc, #524]	@ (8005ad4 <HAL_RCCEx_GetPeriphCLKFreq+0x85c>)
 80058c6:	f8d2 30e8 	ldr.w	r3, [r2, #232]	@ 0xe8
 80058ca:	f403 43e0 	and.w	r3, r3, #28672	@ 0x7000
 80058ce:	f5b3 5f80 	cmp.w	r3, #4096	@ 0x1000
 80058d2:	f43f af0a 	beq.w	80056ea <HAL_RCCEx_GetPeriphCLKFreq+0x472>
 80058d6:	f5b3 5f00 	cmp.w	r3, #8192	@ 0x2000
 80058da:	d104      	bne.n	80058e6 <HAL_RCCEx_GetPeriphCLKFreq+0x66e>
 80058dc:	a801      	add	r0, sp, #4
 80058de:	f7ff fb97 	bl	8005010 <HAL_RCCEx_GetPLL2ClockFreq>
 80058e2:	9803      	ldr	r0, [sp, #12]
 80058e4:	e515      	b.n	8005312 <HAL_RCCEx_GetPeriphCLKFreq+0x9a>
 80058e6:	b923      	cbnz	r3, 80058f2 <HAL_RCCEx_GetPeriphCLKFreq+0x67a>
 80058e8:	b005      	add	sp, #20
 80058ea:	f85d eb04 	ldr.w	lr, [sp], #4
 80058ee:	f7fe ba1f 	b.w	8003d30 <HAL_RCC_GetHCLKFreq>
 80058f2:	f5b3 4fa0 	cmp.w	r3, #20480	@ 0x5000
 80058f6:	d113      	bne.n	8005920 <HAL_RCCEx_GetPeriphCLKFreq+0x6a8>
 80058f8:	6810      	ldr	r0, [r2, #0]
 80058fa:	f010 0020 	ands.w	r0, r0, #32
 80058fe:	f43f ad08 	beq.w	8005312 <HAL_RCCEx_GetPeriphCLKFreq+0x9a>
 8005902:	6893      	ldr	r3, [r2, #8]
 8005904:	0218      	lsls	r0, r3, #8
 8005906:	bf4c      	ite	mi
 8005908:	6893      	ldrmi	r3, [r2, #8]
 800590a:	f8d2 30f4 	ldrpl.w	r3, [r2, #244]	@ 0xf4
 800590e:	4a72      	ldr	r2, [pc, #456]	@ (8005ad8 <HAL_RCCEx_GetPeriphCLKFreq+0x860>)
 8005910:	bf4c      	ite	mi
 8005912:	f3c3 6303 	ubfxmi	r3, r3, #24, #4
 8005916:	f3c3 2303 	ubfxpl	r3, r3, #8, #4
 800591a:	f852 0023 	ldr.w	r0, [r2, r3, lsl #2]
 800591e:	e4f8      	b.n	8005312 <HAL_RCCEx_GetPeriphCLKFreq+0x9a>
 8005920:	6812      	ldr	r2, [r2, #0]
 8005922:	0391      	lsls	r1, r2, #14
 8005924:	d503      	bpl.n	800592e <HAL_RCCEx_GetPeriphCLKFreq+0x6b6>
 8005926:	f5b3 5f40 	cmp.w	r3, #12288	@ 0x3000
 800592a:	f000 83a1 	beq.w	8006070 <HAL_RCCEx_GetPeriphCLKFreq+0xdf8>
 800592e:	4a69      	ldr	r2, [pc, #420]	@ (8005ad4 <HAL_RCCEx_GetPeriphCLKFreq+0x85c>)
 8005930:	6810      	ldr	r0, [r2, #0]
 8005932:	f410 6080 	ands.w	r0, r0, #1024	@ 0x400
 8005936:	f43f acec 	beq.w	8005312 <HAL_RCCEx_GetPeriphCLKFreq+0x9a>
 800593a:	f5b3 4f80 	cmp.w	r3, #16384	@ 0x4000
 800593e:	4867      	ldr	r0, [pc, #412]	@ (8005adc <HAL_RCCEx_GetPeriphCLKFreq+0x864>)
 8005940:	bf18      	it	ne
 8005942:	2000      	movne	r0, #0
 8005944:	e4e5      	b.n	8005312 <HAL_RCCEx_GetPeriphCLKFreq+0x9a>
 8005946:	4b63      	ldr	r3, [pc, #396]	@ (8005ad4 <HAL_RCCEx_GetPeriphCLKFreq+0x85c>)
 8005948:	f8d3 20e4 	ldr.w	r2, [r3, #228]	@ 0xe4
 800594c:	f002 0207 	and.w	r2, r2, #7
 8005950:	2a04      	cmp	r2, #4
 8005952:	d80d      	bhi.n	8005970 <HAL_RCCEx_GetPeriphCLKFreq+0x6f8>
 8005954:	a101      	add	r1, pc, #4	@ (adr r1, 800595c <HAL_RCCEx_GetPeriphCLKFreq+0x6e4>)
 8005956:	f851 f022 	ldr.w	pc, [r1, r2, lsl #2]
 800595a:	bf00      	nop
 800595c:	080058e9 	.word	0x080058e9
 8005960:	08005537 	.word	0x08005537
 8005964:	08005975 	.word	0x08005975
 8005968:	08006077 	.word	0x08006077
 800596c:	0800597f 	.word	0x0800597f
 8005970:	2000      	movs	r0, #0
 8005972:	e4ce      	b.n	8005312 <HAL_RCCEx_GetPeriphCLKFreq+0x9a>
 8005974:	a801      	add	r0, sp, #4
 8005976:	f7ff fbe5 	bl	8005144 <HAL_RCCEx_GetPLL3ClockFreq>
 800597a:	9802      	ldr	r0, [sp, #8]
 800597c:	e4c9      	b.n	8005312 <HAL_RCCEx_GetPeriphCLKFreq+0x9a>
 800597e:	6818      	ldr	r0, [r3, #0]
 8005980:	f010 0020 	ands.w	r0, r0, #32
 8005984:	f43f acc5 	beq.w	8005312 <HAL_RCCEx_GetPeriphCLKFreq+0x9a>
 8005988:	689a      	ldr	r2, [r3, #8]
 800598a:	0212      	lsls	r2, r2, #8
 800598c:	bf4c      	ite	mi
 800598e:	689b      	ldrmi	r3, [r3, #8]
 8005990:	f8d3 30f4 	ldrpl.w	r3, [r3, #244]	@ 0xf4
 8005994:	4a50      	ldr	r2, [pc, #320]	@ (8005ad8 <HAL_RCCEx_GetPeriphCLKFreq+0x860>)
 8005996:	bf4c      	ite	mi
 8005998:	f3c3 6303 	ubfxmi	r3, r3, #24, #4
 800599c:	f3c3 2303 	ubfxpl	r3, r3, #8, #4
 80059a0:	f852 0023 	ldr.w	r0, [r2, r3, lsl #2]
 80059a4:	e4b5      	b.n	8005312 <HAL_RCCEx_GetPeriphCLKFreq+0x9a>
 80059a6:	4a4b      	ldr	r2, [pc, #300]	@ (8005ad4 <HAL_RCCEx_GetPeriphCLKFreq+0x85c>)
 80059a8:	f8d2 30e8 	ldr.w	r3, [r2, #232]	@ 0xe8
 80059ac:	f403 23e0 	and.w	r3, r3, #458752	@ 0x70000
 80059b0:	f5b3 3f00 	cmp.w	r3, #131072	@ 0x20000
 80059b4:	d0de      	beq.n	8005974 <HAL_RCCEx_GetPeriphCLKFreq+0x6fc>
 80059b6:	d807      	bhi.n	80059c8 <HAL_RCCEx_GetPeriphCLKFreq+0x750>
 80059b8:	2b00      	cmp	r3, #0
 80059ba:	d095      	beq.n	80058e8 <HAL_RCCEx_GetPeriphCLKFreq+0x670>
 80059bc:	f5b3 3f80 	cmp.w	r3, #65536	@ 0x10000
 80059c0:	f43f adb9 	beq.w	8005536 <HAL_RCCEx_GetPeriphCLKFreq+0x2be>
 80059c4:	2000      	movs	r0, #0
 80059c6:	e4a4      	b.n	8005312 <HAL_RCCEx_GetPeriphCLKFreq+0x9a>
 80059c8:	f5b3 3f40 	cmp.w	r3, #196608	@ 0x30000
 80059cc:	f000 8357 	beq.w	800607e <HAL_RCCEx_GetPeriphCLKFreq+0xe06>
 80059d0:	f5b3 2f80 	cmp.w	r3, #262144	@ 0x40000
 80059d4:	f040 8357 	bne.w	8006086 <HAL_RCCEx_GetPeriphCLKFreq+0xe0e>
 80059d8:	6810      	ldr	r0, [r2, #0]
 80059da:	f010 0020 	ands.w	r0, r0, #32
 80059de:	f43f ac98 	beq.w	8005312 <HAL_RCCEx_GetPeriphCLKFreq+0x9a>
 80059e2:	6893      	ldr	r3, [r2, #8]
 80059e4:	021b      	lsls	r3, r3, #8
 80059e6:	bf4c      	ite	mi
 80059e8:	6893      	ldrmi	r3, [r2, #8]
 80059ea:	f8d2 30f4 	ldrpl.w	r3, [r2, #244]	@ 0xf4
 80059ee:	4a3a      	ldr	r2, [pc, #232]	@ (8005ad8 <HAL_RCCEx_GetPeriphCLKFreq+0x860>)
 80059f0:	bf4c      	ite	mi
 80059f2:	f3c3 6303 	ubfxmi	r3, r3, #24, #4
 80059f6:	f3c3 2303 	ubfxpl	r3, r3, #8, #4
 80059fa:	f852 0023 	ldr.w	r0, [r2, r3, lsl #2]
 80059fe:	e488      	b.n	8005312 <HAL_RCCEx_GetPeriphCLKFreq+0x9a>
 8005a00:	4a34      	ldr	r2, [pc, #208]	@ (8005ad4 <HAL_RCCEx_GetPeriphCLKFreq+0x85c>)
 8005a02:	f8d2 30e0 	ldr.w	r3, [r2, #224]	@ 0xe0
 8005a06:	f413 6340 	ands.w	r3, r3, #3072	@ 0xc00
 8005a0a:	f43f ae8b 	beq.w	8005724 <HAL_RCCEx_GetPeriphCLKFreq+0x4ac>
 8005a0e:	f5b3 6f80 	cmp.w	r3, #1024	@ 0x400
 8005a12:	f43f ae6a 	beq.w	80056ea <HAL_RCCEx_GetPeriphCLKFreq+0x472>
 8005a16:	6812      	ldr	r2, [r2, #0]
 8005a18:	0550      	lsls	r0, r2, #21
 8005a1a:	d503      	bpl.n	8005a24 <HAL_RCCEx_GetPeriphCLKFreq+0x7ac>
 8005a1c:	f5b3 6f00 	cmp.w	r3, #2048	@ 0x800
 8005a20:	f000 8334 	beq.w	800608c <HAL_RCCEx_GetPeriphCLKFreq+0xe14>
 8005a24:	4a2b      	ldr	r2, [pc, #172]	@ (8005ad4 <HAL_RCCEx_GetPeriphCLKFreq+0x85c>)
 8005a26:	6810      	ldr	r0, [r2, #0]
 8005a28:	f010 0020 	ands.w	r0, r0, #32
 8005a2c:	f43f ac71 	beq.w	8005312 <HAL_RCCEx_GetPeriphCLKFreq+0x9a>
 8005a30:	f5b3 6f40 	cmp.w	r3, #3072	@ 0xc00
 8005a34:	f040 832d 	bne.w	8006092 <HAL_RCCEx_GetPeriphCLKFreq+0xe1a>
 8005a38:	6893      	ldr	r3, [r2, #8]
 8005a3a:	0219      	lsls	r1, r3, #8
 8005a3c:	bf4c      	ite	mi
 8005a3e:	6893      	ldrmi	r3, [r2, #8]
 8005a40:	f8d2 30f4 	ldrpl.w	r3, [r2, #244]	@ 0xf4
 8005a44:	4a24      	ldr	r2, [pc, #144]	@ (8005ad8 <HAL_RCCEx_GetPeriphCLKFreq+0x860>)
 8005a46:	bf4c      	ite	mi
 8005a48:	f3c3 6303 	ubfxmi	r3, r3, #24, #4
 8005a4c:	f3c3 2303 	ubfxpl	r3, r3, #8, #4
 8005a50:	f852 0023 	ldr.w	r0, [r2, r3, lsl #2]
 8005a54:	e45d      	b.n	8005312 <HAL_RCCEx_GetPeriphCLKFreq+0x9a>
 8005a56:	4a1f      	ldr	r2, [pc, #124]	@ (8005ad4 <HAL_RCCEx_GetPeriphCLKFreq+0x85c>)
 8005a58:	f8d2 30e0 	ldr.w	r3, [r2, #224]	@ 0xe0
 8005a5c:	f413 5340 	ands.w	r3, r3, #12288	@ 0x3000
 8005a60:	f43f ae60 	beq.w	8005724 <HAL_RCCEx_GetPeriphCLKFreq+0x4ac>
 8005a64:	f5b3 5f80 	cmp.w	r3, #4096	@ 0x1000
 8005a68:	f43f ae3f 	beq.w	80056ea <HAL_RCCEx_GetPeriphCLKFreq+0x472>
 8005a6c:	6812      	ldr	r2, [r2, #0]
 8005a6e:	0552      	lsls	r2, r2, #21
 8005a70:	d503      	bpl.n	8005a7a <HAL_RCCEx_GetPeriphCLKFreq+0x802>
 8005a72:	f5b3 5f00 	cmp.w	r3, #8192	@ 0x2000
 8005a76:	f000 830f 	beq.w	8006098 <HAL_RCCEx_GetPeriphCLKFreq+0xe20>
 8005a7a:	4a16      	ldr	r2, [pc, #88]	@ (8005ad4 <HAL_RCCEx_GetPeriphCLKFreq+0x85c>)
 8005a7c:	6810      	ldr	r0, [r2, #0]
 8005a7e:	f010 0020 	ands.w	r0, r0, #32
 8005a82:	f43f ac46 	beq.w	8005312 <HAL_RCCEx_GetPeriphCLKFreq+0x9a>
 8005a86:	f5b3 5f40 	cmp.w	r3, #12288	@ 0x3000
 8005a8a:	f040 8308 	bne.w	800609e <HAL_RCCEx_GetPeriphCLKFreq+0xe26>
 8005a8e:	6893      	ldr	r3, [r2, #8]
 8005a90:	0218      	lsls	r0, r3, #8
 8005a92:	bf4c      	ite	mi
 8005a94:	6893      	ldrmi	r3, [r2, #8]
 8005a96:	f8d2 30f4 	ldrpl.w	r3, [r2, #244]	@ 0xf4
 8005a9a:	4a0f      	ldr	r2, [pc, #60]	@ (8005ad8 <HAL_RCCEx_GetPeriphCLKFreq+0x860>)
 8005a9c:	bf4c      	ite	mi
 8005a9e:	f3c3 6303 	ubfxmi	r3, r3, #24, #4
 8005aa2:	f3c3 2303 	ubfxpl	r3, r3, #8, #4
 8005aa6:	f852 0023 	ldr.w	r0, [r2, r3, lsl #2]
 8005aaa:	e432      	b.n	8005312 <HAL_RCCEx_GetPeriphCLKFreq+0x9a>
 8005aac:	4b09      	ldr	r3, [pc, #36]	@ (8005ad4 <HAL_RCCEx_GetPeriphCLKFreq+0x85c>)
 8005aae:	f8d3 20e8 	ldr.w	r2, [r3, #232]	@ 0xe8
 8005ab2:	f002 02c0 	and.w	r2, r2, #192	@ 0xc0
 8005ab6:	2a80      	cmp	r2, #128	@ 0x80
 8005ab8:	d012      	beq.n	8005ae0 <HAL_RCCEx_GetPeriphCLKFreq+0x868>
 8005aba:	d807      	bhi.n	8005acc <HAL_RCCEx_GetPeriphCLKFreq+0x854>
 8005abc:	2a00      	cmp	r2, #0
 8005abe:	f43f aed4 	beq.w	800586a <HAL_RCCEx_GetPeriphCLKFreq+0x5f2>
 8005ac2:	2a40      	cmp	r2, #64	@ 0x40
 8005ac4:	f43f ae11 	beq.w	80056ea <HAL_RCCEx_GetPeriphCLKFreq+0x472>
 8005ac8:	2000      	movs	r0, #0
 8005aca:	e422      	b.n	8005312 <HAL_RCCEx_GetPeriphCLKFreq+0x9a>
 8005acc:	2ac0      	cmp	r2, #192	@ 0xc0
 8005ace:	d00e      	beq.n	8005aee <HAL_RCCEx_GetPeriphCLKFreq+0x876>
 8005ad0:	2000      	movs	r0, #0
 8005ad2:	e41e      	b.n	8005312 <HAL_RCCEx_GetPeriphCLKFreq+0x9a>
 8005ad4:	46020c00 	.word	0x46020c00
 8005ad8:	080093b8 	.word	0x080093b8
 8005adc:	00f42400 	.word	0x00f42400
 8005ae0:	6818      	ldr	r0, [r3, #0]
 8005ae2:	4bb1      	ldr	r3, [pc, #708]	@ (8005da8 <HAL_RCCEx_GetPeriphCLKFreq+0xb30>)
 8005ae4:	f410 6080 	ands.w	r0, r0, #1024	@ 0x400
 8005ae8:	bf18      	it	ne
 8005aea:	4618      	movne	r0, r3
 8005aec:	e411      	b.n	8005312 <HAL_RCCEx_GetPeriphCLKFreq+0x9a>
 8005aee:	6818      	ldr	r0, [r3, #0]
 8005af0:	f010 0020 	ands.w	r0, r0, #32
 8005af4:	f43f ac0d 	beq.w	8005312 <HAL_RCCEx_GetPeriphCLKFreq+0x9a>
 8005af8:	689a      	ldr	r2, [r3, #8]
 8005afa:	0211      	lsls	r1, r2, #8
 8005afc:	bf4c      	ite	mi
 8005afe:	689b      	ldrmi	r3, [r3, #8]
 8005b00:	f8d3 30f4 	ldrpl.w	r3, [r3, #244]	@ 0xf4
 8005b04:	4aa9      	ldr	r2, [pc, #676]	@ (8005dac <HAL_RCCEx_GetPeriphCLKFreq+0xb34>)
 8005b06:	bf4c      	ite	mi
 8005b08:	f3c3 6303 	ubfxmi	r3, r3, #24, #4
 8005b0c:	f3c3 2303 	ubfxpl	r3, r3, #8, #4
 8005b10:	f852 0023 	ldr.w	r0, [r2, r3, lsl #2]
 8005b14:	f7ff bbfd 	b.w	8005312 <HAL_RCCEx_GetPeriphCLKFreq+0x9a>
 8005b18:	4aa5      	ldr	r2, [pc, #660]	@ (8005db0 <HAL_RCCEx_GetPeriphCLKFreq+0xb38>)
 8005b1a:	f8d2 30e0 	ldr.w	r3, [r2, #224]	@ 0xe0
 8005b1e:	f413 4340 	ands.w	r3, r3, #49152	@ 0xc000
 8005b22:	f43f adff 	beq.w	8005724 <HAL_RCCEx_GetPeriphCLKFreq+0x4ac>
 8005b26:	f5b3 4f80 	cmp.w	r3, #16384	@ 0x4000
 8005b2a:	f43f adde 	beq.w	80056ea <HAL_RCCEx_GetPeriphCLKFreq+0x472>
 8005b2e:	6812      	ldr	r2, [r2, #0]
 8005b30:	0552      	lsls	r2, r2, #21
 8005b32:	d503      	bpl.n	8005b3c <HAL_RCCEx_GetPeriphCLKFreq+0x8c4>
 8005b34:	f5b3 4f00 	cmp.w	r3, #32768	@ 0x8000
 8005b38:	f000 82b4 	beq.w	80060a4 <HAL_RCCEx_GetPeriphCLKFreq+0xe2c>
 8005b3c:	4a9c      	ldr	r2, [pc, #624]	@ (8005db0 <HAL_RCCEx_GetPeriphCLKFreq+0xb38>)
 8005b3e:	6810      	ldr	r0, [r2, #0]
 8005b40:	f010 0020 	ands.w	r0, r0, #32
 8005b44:	f43f abe5 	beq.w	8005312 <HAL_RCCEx_GetPeriphCLKFreq+0x9a>
 8005b48:	f5b3 4f40 	cmp.w	r3, #49152	@ 0xc000
 8005b4c:	f040 82ad 	bne.w	80060aa <HAL_RCCEx_GetPeriphCLKFreq+0xe32>
 8005b50:	6893      	ldr	r3, [r2, #8]
 8005b52:	021b      	lsls	r3, r3, #8
 8005b54:	bf4c      	ite	mi
 8005b56:	6893      	ldrmi	r3, [r2, #8]
 8005b58:	f8d2 30f4 	ldrpl.w	r3, [r2, #244]	@ 0xf4
 8005b5c:	4a93      	ldr	r2, [pc, #588]	@ (8005dac <HAL_RCCEx_GetPeriphCLKFreq+0xb34>)
 8005b5e:	bf4c      	ite	mi
 8005b60:	f3c3 6303 	ubfxmi	r3, r3, #24, #4
 8005b64:	f3c3 2303 	ubfxpl	r3, r3, #8, #4
 8005b68:	f852 0023 	ldr.w	r0, [r2, r3, lsl #2]
 8005b6c:	f7ff bbd1 	b.w	8005312 <HAL_RCCEx_GetPeriphCLKFreq+0x9a>
 8005b70:	4a8f      	ldr	r2, [pc, #572]	@ (8005db0 <HAL_RCCEx_GetPeriphCLKFreq+0xb38>)
 8005b72:	f8d2 30e4 	ldr.w	r3, [r2, #228]	@ 0xe4
 8005b76:	f013 7340 	ands.w	r3, r3, #50331648	@ 0x3000000
 8005b7a:	f43f add3 	beq.w	8005724 <HAL_RCCEx_GetPeriphCLKFreq+0x4ac>
 8005b7e:	f1b3 7f80 	cmp.w	r3, #16777216	@ 0x1000000
 8005b82:	f43f adb2 	beq.w	80056ea <HAL_RCCEx_GetPeriphCLKFreq+0x472>
 8005b86:	6812      	ldr	r2, [r2, #0]
 8005b88:	0550      	lsls	r0, r2, #21
 8005b8a:	d503      	bpl.n	8005b94 <HAL_RCCEx_GetPeriphCLKFreq+0x91c>
 8005b8c:	f1b3 7f00 	cmp.w	r3, #33554432	@ 0x2000000
 8005b90:	f000 828e 	beq.w	80060b0 <HAL_RCCEx_GetPeriphCLKFreq+0xe38>
 8005b94:	4a86      	ldr	r2, [pc, #536]	@ (8005db0 <HAL_RCCEx_GetPeriphCLKFreq+0xb38>)
 8005b96:	6810      	ldr	r0, [r2, #0]
 8005b98:	f010 0020 	ands.w	r0, r0, #32
 8005b9c:	f43f abb9 	beq.w	8005312 <HAL_RCCEx_GetPeriphCLKFreq+0x9a>
 8005ba0:	f1b3 7f40 	cmp.w	r3, #50331648	@ 0x3000000
 8005ba4:	f040 8287 	bne.w	80060b6 <HAL_RCCEx_GetPeriphCLKFreq+0xe3e>
 8005ba8:	6893      	ldr	r3, [r2, #8]
 8005baa:	0219      	lsls	r1, r3, #8
 8005bac:	bf4c      	ite	mi
 8005bae:	6893      	ldrmi	r3, [r2, #8]
 8005bb0:	f8d2 30f4 	ldrpl.w	r3, [r2, #244]	@ 0xf4
 8005bb4:	4a7d      	ldr	r2, [pc, #500]	@ (8005dac <HAL_RCCEx_GetPeriphCLKFreq+0xb34>)
 8005bb6:	bf4c      	ite	mi
 8005bb8:	f3c3 6303 	ubfxmi	r3, r3, #24, #4
 8005bbc:	f3c3 2303 	ubfxpl	r3, r3, #8, #4
 8005bc0:	f852 0023 	ldr.w	r0, [r2, r3, lsl #2]
 8005bc4:	f7ff bba5 	b.w	8005312 <HAL_RCCEx_GetPeriphCLKFreq+0x9a>
 8005bc8:	4a79      	ldr	r2, [pc, #484]	@ (8005db0 <HAL_RCCEx_GetPeriphCLKFreq+0xb38>)
 8005bca:	f8d2 30e8 	ldr.w	r3, [r2, #232]	@ 0xe8
 8005bce:	f413 7340 	ands.w	r3, r3, #768	@ 0x300
 8005bd2:	d114      	bne.n	8005bfe <HAL_RCCEx_GetPeriphCLKFreq+0x986>
 8005bd4:	6810      	ldr	r0, [r2, #0]
 8005bd6:	f010 0020 	ands.w	r0, r0, #32
 8005bda:	f43f ab9a 	beq.w	8005312 <HAL_RCCEx_GetPeriphCLKFreq+0x9a>
 8005bde:	6893      	ldr	r3, [r2, #8]
 8005be0:	0218      	lsls	r0, r3, #8
 8005be2:	bf4c      	ite	mi
 8005be4:	6893      	ldrmi	r3, [r2, #8]
 8005be6:	f8d2 30f4 	ldrpl.w	r3, [r2, #244]	@ 0xf4
 8005bea:	4a70      	ldr	r2, [pc, #448]	@ (8005dac <HAL_RCCEx_GetPeriphCLKFreq+0xb34>)
 8005bec:	bf4c      	ite	mi
 8005bee:	f3c3 6303 	ubfxmi	r3, r3, #24, #4
 8005bf2:	f3c3 2303 	ubfxpl	r3, r3, #8, #4
 8005bf6:	f852 0023 	ldr.w	r0, [r2, r3, lsl #2]
 8005bfa:	f7ff bb8a 	b.w	8005312 <HAL_RCCEx_GetPeriphCLKFreq+0x9a>
 8005bfe:	f8d2 10f0 	ldr.w	r1, [r2, #240]	@ 0xf0
 8005c02:	0109      	lsls	r1, r1, #4
 8005c04:	d50c      	bpl.n	8005c20 <HAL_RCCEx_GetPeriphCLKFreq+0x9a8>
 8005c06:	f5b3 7f80 	cmp.w	r3, #256	@ 0x100
 8005c0a:	d109      	bne.n	8005c20 <HAL_RCCEx_GetPeriphCLKFreq+0x9a8>
 8005c0c:	f8d2 30f0 	ldr.w	r3, [r2, #240]	@ 0xf0
 8005c10:	f013 5f80 	tst.w	r3, #268435456	@ 0x10000000
 8005c14:	bf0c      	ite	eq
 8005c16:	f44f 40fa 	moveq.w	r0, #32000	@ 0x7d00
 8005c1a:	20fa      	movne	r0, #250	@ 0xfa
 8005c1c:	f7ff bb79 	b.w	8005312 <HAL_RCCEx_GetPeriphCLKFreq+0x9a>
 8005c20:	6812      	ldr	r2, [r2, #0]
 8005c22:	0552      	lsls	r2, r2, #21
 8005c24:	d503      	bpl.n	8005c2e <HAL_RCCEx_GetPeriphCLKFreq+0x9b6>
 8005c26:	f5b3 7f00 	cmp.w	r3, #512	@ 0x200
 8005c2a:	f000 824d 	beq.w	80060c8 <HAL_RCCEx_GetPeriphCLKFreq+0xe50>
 8005c2e:	4a60      	ldr	r2, [pc, #384]	@ (8005db0 <HAL_RCCEx_GetPeriphCLKFreq+0xb38>)
 8005c30:	f8d2 00f0 	ldr.w	r0, [r2, #240]	@ 0xf0
 8005c34:	f010 0002 	ands.w	r0, r0, #2
 8005c38:	f43f ab6b 	beq.w	8005312 <HAL_RCCEx_GetPeriphCLKFreq+0x9a>
 8005c3c:	f5a3 7c40 	sub.w	ip, r3, #768	@ 0x300
 8005c40:	f1dc 0300 	rsbs	r3, ip, #0
 8005c44:	eb43 030c 	adc.w	r3, r3, ip
 8005c48:	03d8      	lsls	r0, r3, #15
 8005c4a:	f7ff bb62 	b.w	8005312 <HAL_RCCEx_GetPeriphCLKFreq+0x9a>
 8005c4e:	4a58      	ldr	r2, [pc, #352]	@ (8005db0 <HAL_RCCEx_GetPeriphCLKFreq+0xb38>)
 8005c50:	f8d2 30e8 	ldr.w	r3, [r2, #232]	@ 0xe8
 8005c54:	f413 6340 	ands.w	r3, r3, #3072	@ 0xc00
 8005c58:	d114      	bne.n	8005c84 <HAL_RCCEx_GetPeriphCLKFreq+0xa0c>
 8005c5a:	6810      	ldr	r0, [r2, #0]
 8005c5c:	f010 0020 	ands.w	r0, r0, #32
 8005c60:	f43f ab57 	beq.w	8005312 <HAL_RCCEx_GetPeriphCLKFreq+0x9a>
 8005c64:	6893      	ldr	r3, [r2, #8]
 8005c66:	0218      	lsls	r0, r3, #8
 8005c68:	bf4c      	ite	mi
 8005c6a:	6893      	ldrmi	r3, [r2, #8]
 8005c6c:	f8d2 30f4 	ldrpl.w	r3, [r2, #244]	@ 0xf4
 8005c70:	4a4e      	ldr	r2, [pc, #312]	@ (8005dac <HAL_RCCEx_GetPeriphCLKFreq+0xb34>)
 8005c72:	bf4c      	ite	mi
 8005c74:	f3c3 6303 	ubfxmi	r3, r3, #24, #4
 8005c78:	f3c3 2303 	ubfxpl	r3, r3, #8, #4
 8005c7c:	f852 0023 	ldr.w	r0, [r2, r3, lsl #2]
 8005c80:	f7ff bb47 	b.w	8005312 <HAL_RCCEx_GetPeriphCLKFreq+0x9a>
 8005c84:	f8d2 10f0 	ldr.w	r1, [r2, #240]	@ 0xf0
 8005c88:	0109      	lsls	r1, r1, #4
 8005c8a:	d50c      	bpl.n	8005ca6 <HAL_RCCEx_GetPeriphCLKFreq+0xa2e>
 8005c8c:	f5b3 6f80 	cmp.w	r3, #1024	@ 0x400
 8005c90:	d109      	bne.n	8005ca6 <HAL_RCCEx_GetPeriphCLKFreq+0xa2e>
 8005c92:	f8d2 30f0 	ldr.w	r3, [r2, #240]	@ 0xf0
 8005c96:	f013 5f80 	tst.w	r3, #268435456	@ 0x10000000
 8005c9a:	bf0c      	ite	eq
 8005c9c:	f44f 40fa 	moveq.w	r0, #32000	@ 0x7d00
 8005ca0:	20fa      	movne	r0, #250	@ 0xfa
 8005ca2:	f7ff bb36 	b.w	8005312 <HAL_RCCEx_GetPeriphCLKFreq+0x9a>
 8005ca6:	6812      	ldr	r2, [r2, #0]
 8005ca8:	0552      	lsls	r2, r2, #21
 8005caa:	d503      	bpl.n	8005cb4 <HAL_RCCEx_GetPeriphCLKFreq+0xa3c>
 8005cac:	f5b3 6f00 	cmp.w	r3, #2048	@ 0x800
 8005cb0:	f000 8214 	beq.w	80060dc <HAL_RCCEx_GetPeriphCLKFreq+0xe64>
 8005cb4:	4a3e      	ldr	r2, [pc, #248]	@ (8005db0 <HAL_RCCEx_GetPeriphCLKFreq+0xb38>)
 8005cb6:	f8d2 00f0 	ldr.w	r0, [r2, #240]	@ 0xf0
 8005cba:	f010 0002 	ands.w	r0, r0, #2
 8005cbe:	f43f ab28 	beq.w	8005312 <HAL_RCCEx_GetPeriphCLKFreq+0x9a>
 8005cc2:	f5a3 6040 	sub.w	r0, r3, #3072	@ 0xc00
 8005cc6:	4243      	negs	r3, r0
 8005cc8:	4143      	adcs	r3, r0
 8005cca:	03d8      	lsls	r0, r3, #15
 8005ccc:	f7ff bb21 	b.w	8005312 <HAL_RCCEx_GetPeriphCLKFreq+0x9a>
 8005cd0:	4a37      	ldr	r2, [pc, #220]	@ (8005db0 <HAL_RCCEx_GetPeriphCLKFreq+0xb38>)
 8005cd2:	f8d2 30e0 	ldr.w	r3, [r2, #224]	@ 0xe0
 8005cd6:	f413 2340 	ands.w	r3, r3, #786432	@ 0xc0000
 8005cda:	f43f ad23 	beq.w	8005724 <HAL_RCCEx_GetPeriphCLKFreq+0x4ac>
 8005cde:	f8d2 10f0 	ldr.w	r1, [r2, #240]	@ 0xf0
 8005ce2:	0109      	lsls	r1, r1, #4
 8005ce4:	d50c      	bpl.n	8005d00 <HAL_RCCEx_GetPeriphCLKFreq+0xa88>
 8005ce6:	f5b3 2f80 	cmp.w	r3, #262144	@ 0x40000
 8005cea:	d109      	bne.n	8005d00 <HAL_RCCEx_GetPeriphCLKFreq+0xa88>
 8005cec:	f8d2 30f0 	ldr.w	r3, [r2, #240]	@ 0xf0
 8005cf0:	f013 5f80 	tst.w	r3, #268435456	@ 0x10000000
 8005cf4:	bf0c      	ite	eq
 8005cf6:	f44f 40fa 	moveq.w	r0, #32000	@ 0x7d00
 8005cfa:	20fa      	movne	r0, #250	@ 0xfa
 8005cfc:	f7ff bb09 	b.w	8005312 <HAL_RCCEx_GetPeriphCLKFreq+0x9a>
 8005d00:	6812      	ldr	r2, [r2, #0]
 8005d02:	0550      	lsls	r0, r2, #21
 8005d04:	d503      	bpl.n	8005d0e <HAL_RCCEx_GetPeriphCLKFreq+0xa96>
 8005d06:	f5b3 2f00 	cmp.w	r3, #524288	@ 0x80000
 8005d0a:	f000 81ea 	beq.w	80060e2 <HAL_RCCEx_GetPeriphCLKFreq+0xe6a>
 8005d0e:	4a28      	ldr	r2, [pc, #160]	@ (8005db0 <HAL_RCCEx_GetPeriphCLKFreq+0xb38>)
 8005d10:	f8d2 00f0 	ldr.w	r0, [r2, #240]	@ 0xf0
 8005d14:	f010 0002 	ands.w	r0, r0, #2
 8005d18:	f43f aafb 	beq.w	8005312 <HAL_RCCEx_GetPeriphCLKFreq+0x9a>
 8005d1c:	f5a3 2140 	sub.w	r1, r3, #786432	@ 0xc0000
 8005d20:	424b      	negs	r3, r1
 8005d22:	414b      	adcs	r3, r1
 8005d24:	03d8      	lsls	r0, r3, #15
 8005d26:	f7ff baf4 	b.w	8005312 <HAL_RCCEx_GetPeriphCLKFreq+0x9a>
 8005d2a:	4a21      	ldr	r2, [pc, #132]	@ (8005db0 <HAL_RCCEx_GetPeriphCLKFreq+0xb38>)
 8005d2c:	f8d2 30e0 	ldr.w	r3, [r2, #224]	@ 0xe0
 8005d30:	6812      	ldr	r2, [r2, #0]
 8005d32:	f003 7340 	and.w	r3, r3, #50331648	@ 0x3000000
 8005d36:	0392      	lsls	r2, r2, #14
 8005d38:	d502      	bpl.n	8005d40 <HAL_RCCEx_GetPeriphCLKFreq+0xac8>
 8005d3a:	2b00      	cmp	r3, #0
 8005d3c:	f000 81d4 	beq.w	80060e8 <HAL_RCCEx_GetPeriphCLKFreq+0xe70>
 8005d40:	f1b3 7f80 	cmp.w	r3, #16777216	@ 0x1000000
 8005d44:	d105      	bne.n	8005d52 <HAL_RCCEx_GetPeriphCLKFreq+0xada>
 8005d46:	a801      	add	r0, sp, #4
 8005d48:	f7ff f8c8 	bl	8004edc <HAL_RCCEx_GetPLL1ClockFreq>
 8005d4c:	9802      	ldr	r0, [sp, #8]
 8005d4e:	f7ff bae0 	b.w	8005312 <HAL_RCCEx_GetPeriphCLKFreq+0x9a>
 8005d52:	f1b3 7f00 	cmp.w	r3, #33554432	@ 0x2000000
 8005d56:	f040 81ca 	bne.w	80060ee <HAL_RCCEx_GetPeriphCLKFreq+0xe76>
 8005d5a:	a801      	add	r0, sp, #4
 8005d5c:	f7ff f958 	bl	8005010 <HAL_RCCEx_GetPLL2ClockFreq>
 8005d60:	9801      	ldr	r0, [sp, #4]
 8005d62:	f7ff bad6 	b.w	8005312 <HAL_RCCEx_GetPeriphCLKFreq+0x9a>
 8005d66:	4b12      	ldr	r3, [pc, #72]	@ (8005db0 <HAL_RCCEx_GetPeriphCLKFreq+0xb38>)
 8005d68:	f8d3 20e0 	ldr.w	r2, [r3, #224]	@ 0xe0
 8005d6c:	f402 1240 	and.w	r2, r2, #3145728	@ 0x300000
 8005d70:	f5b2 1f00 	cmp.w	r2, #2097152	@ 0x200000
 8005d74:	d010      	beq.n	8005d98 <HAL_RCCEx_GetPeriphCLKFreq+0xb20>
 8005d76:	d809      	bhi.n	8005d8c <HAL_RCCEx_GetPeriphCLKFreq+0xb14>
 8005d78:	2a00      	cmp	r2, #0
 8005d7a:	f43f acaf 	beq.w	80056dc <HAL_RCCEx_GetPeriphCLKFreq+0x464>
 8005d7e:	f5b2 1f80 	cmp.w	r2, #1048576	@ 0x100000
 8005d82:	f43f acb2 	beq.w	80056ea <HAL_RCCEx_GetPeriphCLKFreq+0x472>
 8005d86:	2000      	movs	r0, #0
 8005d88:	f7ff bac3 	b.w	8005312 <HAL_RCCEx_GetPeriphCLKFreq+0x9a>
 8005d8c:	f5b2 1f40 	cmp.w	r2, #3145728	@ 0x300000
 8005d90:	d010      	beq.n	8005db4 <HAL_RCCEx_GetPeriphCLKFreq+0xb3c>
 8005d92:	2000      	movs	r0, #0
 8005d94:	f7ff babd 	b.w	8005312 <HAL_RCCEx_GetPeriphCLKFreq+0x9a>
 8005d98:	6818      	ldr	r0, [r3, #0]
 8005d9a:	4b03      	ldr	r3, [pc, #12]	@ (8005da8 <HAL_RCCEx_GetPeriphCLKFreq+0xb30>)
 8005d9c:	f410 6080 	ands.w	r0, r0, #1024	@ 0x400
 8005da0:	bf18      	it	ne
 8005da2:	4618      	movne	r0, r3
 8005da4:	f7ff bab5 	b.w	8005312 <HAL_RCCEx_GetPeriphCLKFreq+0x9a>
 8005da8:	00f42400 	.word	0x00f42400
 8005dac:	080093b8 	.word	0x080093b8
 8005db0:	46020c00 	.word	0x46020c00
 8005db4:	6818      	ldr	r0, [r3, #0]
 8005db6:	f010 0020 	ands.w	r0, r0, #32
 8005dba:	f43f aaaa 	beq.w	8005312 <HAL_RCCEx_GetPeriphCLKFreq+0x9a>
 8005dbe:	689a      	ldr	r2, [r3, #8]
 8005dc0:	0210      	lsls	r0, r2, #8
 8005dc2:	bf4c      	ite	mi
 8005dc4:	689b      	ldrmi	r3, [r3, #8]
 8005dc6:	f8d3 30f4 	ldrpl.w	r3, [r3, #244]	@ 0xf4
 8005dca:	4ac1      	ldr	r2, [pc, #772]	@ (80060d0 <HAL_RCCEx_GetPeriphCLKFreq+0xe58>)
 8005dcc:	bf4c      	ite	mi
 8005dce:	f3c3 6303 	ubfxmi	r3, r3, #24, #4
 8005dd2:	f3c3 2303 	ubfxpl	r3, r3, #8, #4
 8005dd6:	f852 0023 	ldr.w	r0, [r2, r3, lsl #2]
 8005dda:	f7ff ba9a 	b.w	8005312 <HAL_RCCEx_GetPeriphCLKFreq+0x9a>
 8005dde:	4bbd      	ldr	r3, [pc, #756]	@ (80060d4 <HAL_RCCEx_GetPeriphCLKFreq+0xe5c>)
 8005de0:	f8d3 20e0 	ldr.w	r2, [r3, #224]	@ 0xe0
 8005de4:	f402 3240 	and.w	r2, r2, #196608	@ 0x30000
 8005de8:	f5b2 3f00 	cmp.w	r2, #131072	@ 0x20000
 8005dec:	d010      	beq.n	8005e10 <HAL_RCCEx_GetPeriphCLKFreq+0xb98>
 8005dee:	d809      	bhi.n	8005e04 <HAL_RCCEx_GetPeriphCLKFreq+0xb8c>
 8005df0:	2a00      	cmp	r2, #0
 8005df2:	f43f ac97 	beq.w	8005724 <HAL_RCCEx_GetPeriphCLKFreq+0x4ac>
 8005df6:	f5b2 3f80 	cmp.w	r2, #65536	@ 0x10000
 8005dfa:	f43f ac76 	beq.w	80056ea <HAL_RCCEx_GetPeriphCLKFreq+0x472>
 8005dfe:	2000      	movs	r0, #0
 8005e00:	f7ff ba87 	b.w	8005312 <HAL_RCCEx_GetPeriphCLKFreq+0x9a>
 8005e04:	f5b2 3f40 	cmp.w	r2, #196608	@ 0x30000
 8005e08:	d00a      	beq.n	8005e20 <HAL_RCCEx_GetPeriphCLKFreq+0xba8>
 8005e0a:	2000      	movs	r0, #0
 8005e0c:	f7ff ba81 	b.w	8005312 <HAL_RCCEx_GetPeriphCLKFreq+0x9a>
 8005e10:	6818      	ldr	r0, [r3, #0]
 8005e12:	4bb1      	ldr	r3, [pc, #708]	@ (80060d8 <HAL_RCCEx_GetPeriphCLKFreq+0xe60>)
 8005e14:	f410 6080 	ands.w	r0, r0, #1024	@ 0x400
 8005e18:	bf18      	it	ne
 8005e1a:	4618      	movne	r0, r3
 8005e1c:	f7ff ba79 	b.w	8005312 <HAL_RCCEx_GetPeriphCLKFreq+0x9a>
 8005e20:	6818      	ldr	r0, [r3, #0]
 8005e22:	f010 0020 	ands.w	r0, r0, #32
 8005e26:	f43f aa74 	beq.w	8005312 <HAL_RCCEx_GetPeriphCLKFreq+0x9a>
 8005e2a:	689a      	ldr	r2, [r3, #8]
 8005e2c:	0211      	lsls	r1, r2, #8
 8005e2e:	bf4c      	ite	mi
 8005e30:	689b      	ldrmi	r3, [r3, #8]
 8005e32:	f8d3 30f4 	ldrpl.w	r3, [r3, #244]	@ 0xf4
 8005e36:	4aa6      	ldr	r2, [pc, #664]	@ (80060d0 <HAL_RCCEx_GetPeriphCLKFreq+0xe58>)
 8005e38:	bf4c      	ite	mi
 8005e3a:	f3c3 6303 	ubfxmi	r3, r3, #24, #4
 8005e3e:	f3c3 2303 	ubfxpl	r3, r3, #8, #4
 8005e42:	f852 0023 	ldr.w	r0, [r2, r3, lsl #2]
 8005e46:	f7ff ba64 	b.w	8005312 <HAL_RCCEx_GetPeriphCLKFreq+0x9a>
 8005e4a:	4ba2      	ldr	r3, [pc, #648]	@ (80060d4 <HAL_RCCEx_GetPeriphCLKFreq+0xe5c>)
 8005e4c:	f8d3 20e8 	ldr.w	r2, [r3, #232]	@ 0xe8
 8005e50:	f002 0218 	and.w	r2, r2, #24
 8005e54:	2a10      	cmp	r2, #16
 8005e56:	d00e      	beq.n	8005e76 <HAL_RCCEx_GetPeriphCLKFreq+0xbfe>
 8005e58:	d808      	bhi.n	8005e6c <HAL_RCCEx_GetPeriphCLKFreq+0xbf4>
 8005e5a:	2a00      	cmp	r2, #0
 8005e5c:	f43f ad05 	beq.w	800586a <HAL_RCCEx_GetPeriphCLKFreq+0x5f2>
 8005e60:	2a08      	cmp	r2, #8
 8005e62:	f43f ac42 	beq.w	80056ea <HAL_RCCEx_GetPeriphCLKFreq+0x472>
 8005e66:	2000      	movs	r0, #0
 8005e68:	f7ff ba53 	b.w	8005312 <HAL_RCCEx_GetPeriphCLKFreq+0x9a>
 8005e6c:	2a18      	cmp	r2, #24
 8005e6e:	d00a      	beq.n	8005e86 <HAL_RCCEx_GetPeriphCLKFreq+0xc0e>
 8005e70:	2000      	movs	r0, #0
 8005e72:	f7ff ba4e 	b.w	8005312 <HAL_RCCEx_GetPeriphCLKFreq+0x9a>
 8005e76:	6818      	ldr	r0, [r3, #0]
 8005e78:	4b97      	ldr	r3, [pc, #604]	@ (80060d8 <HAL_RCCEx_GetPeriphCLKFreq+0xe60>)
 8005e7a:	f410 6080 	ands.w	r0, r0, #1024	@ 0x400
 8005e7e:	bf18      	it	ne
 8005e80:	4618      	movne	r0, r3
 8005e82:	f7ff ba46 	b.w	8005312 <HAL_RCCEx_GetPeriphCLKFreq+0x9a>
 8005e86:	6818      	ldr	r0, [r3, #0]
 8005e88:	f010 0020 	ands.w	r0, r0, #32
 8005e8c:	f43f aa41 	beq.w	8005312 <HAL_RCCEx_GetPeriphCLKFreq+0x9a>
 8005e90:	689a      	ldr	r2, [r3, #8]
 8005e92:	0212      	lsls	r2, r2, #8
 8005e94:	bf4c      	ite	mi
 8005e96:	689b      	ldrmi	r3, [r3, #8]
 8005e98:	f8d3 30f4 	ldrpl.w	r3, [r3, #244]	@ 0xf4
 8005e9c:	4a8c      	ldr	r2, [pc, #560]	@ (80060d0 <HAL_RCCEx_GetPeriphCLKFreq+0xe58>)
 8005e9e:	bf4c      	ite	mi
 8005ea0:	f3c3 6303 	ubfxmi	r3, r3, #24, #4
 8005ea4:	f3c3 2303 	ubfxpl	r3, r3, #8, #4
 8005ea8:	f852 0023 	ldr.w	r0, [r2, r3, lsl #2]
 8005eac:	f7ff ba31 	b.w	8005312 <HAL_RCCEx_GetPeriphCLKFreq+0x9a>
 8005eb0:	4a88      	ldr	r2, [pc, #544]	@ (80060d4 <HAL_RCCEx_GetPeriphCLKFreq+0xe5c>)
 8005eb2:	f8d2 30e4 	ldr.w	r3, [r2, #228]	@ 0xe4
 8005eb6:	f403 1340 	and.w	r3, r3, #3145728	@ 0x300000
 8005eba:	f5b3 1f00 	cmp.w	r3, #2097152	@ 0x200000
 8005ebe:	f43f abab 	beq.w	8005618 <HAL_RCCEx_GetPeriphCLKFreq+0x3a0>
 8005ec2:	d808      	bhi.n	8005ed6 <HAL_RCCEx_GetPeriphCLKFreq+0xc5e>
 8005ec4:	2b00      	cmp	r3, #0
 8005ec6:	f43f ac10 	beq.w	80056ea <HAL_RCCEx_GetPeriphCLKFreq+0x472>
 8005eca:	f5b3 1f80 	cmp.w	r3, #1048576	@ 0x100000
 8005ece:	d009      	beq.n	8005ee4 <HAL_RCCEx_GetPeriphCLKFreq+0xc6c>
 8005ed0:	2000      	movs	r0, #0
 8005ed2:	f7ff ba1e 	b.w	8005312 <HAL_RCCEx_GetPeriphCLKFreq+0x9a>
 8005ed6:	f5b3 1f40 	cmp.w	r3, #3145728	@ 0x300000
 8005eda:	f43f abd0 	beq.w	800567e <HAL_RCCEx_GetPeriphCLKFreq+0x406>
 8005ede:	2000      	movs	r0, #0
 8005ee0:	f7ff ba17 	b.w	8005312 <HAL_RCCEx_GetPeriphCLKFreq+0x9a>
 8005ee4:	6810      	ldr	r0, [r2, #0]
 8005ee6:	f010 0020 	ands.w	r0, r0, #32
 8005eea:	f43f aa12 	beq.w	8005312 <HAL_RCCEx_GetPeriphCLKFreq+0x9a>
 8005eee:	6893      	ldr	r3, [r2, #8]
 8005ef0:	021b      	lsls	r3, r3, #8
 8005ef2:	bf4c      	ite	mi
 8005ef4:	6893      	ldrmi	r3, [r2, #8]
 8005ef6:	f8d2 30f4 	ldrpl.w	r3, [r2, #244]	@ 0xf4
 8005efa:	4a75      	ldr	r2, [pc, #468]	@ (80060d0 <HAL_RCCEx_GetPeriphCLKFreq+0xe58>)
 8005efc:	bf4c      	ite	mi
 8005efe:	f3c3 6303 	ubfxmi	r3, r3, #24, #4
 8005f02:	f3c3 2303 	ubfxpl	r3, r3, #8, #4
 8005f06:	f852 0023 	ldr.w	r0, [r2, r3, lsl #2]
 8005f0a:	f7ff ba02 	b.w	8005312 <HAL_RCCEx_GetPeriphCLKFreq+0x9a>
 8005f0e:	4b71      	ldr	r3, [pc, #452]	@ (80060d4 <HAL_RCCEx_GetPeriphCLKFreq+0xe5c>)
 8005f10:	f8d3 30e4 	ldr.w	r3, [r3, #228]	@ 0xe4
 8005f14:	f403 0340 	and.w	r3, r3, #12582912	@ 0xc00000
 8005f18:	f5b3 0f00 	cmp.w	r3, #8388608	@ 0x800000
 8005f1c:	f43f abaf 	beq.w	800567e <HAL_RCCEx_GetPeriphCLKFreq+0x406>
 8005f20:	d809      	bhi.n	8005f36 <HAL_RCCEx_GetPeriphCLKFreq+0xcbe>
 8005f22:	2b00      	cmp	r3, #0
 8005f24:	f43f abe1 	beq.w	80056ea <HAL_RCCEx_GetPeriphCLKFreq+0x472>
 8005f28:	f5b3 0f80 	cmp.w	r3, #4194304	@ 0x400000
 8005f2c:	f43f ab74 	beq.w	8005618 <HAL_RCCEx_GetPeriphCLKFreq+0x3a0>
 8005f30:	2000      	movs	r0, #0
 8005f32:	f7ff b9ee 	b.w	8005312 <HAL_RCCEx_GetPeriphCLKFreq+0x9a>
 8005f36:	f5b3 0f40 	cmp.w	r3, #12582912	@ 0xc00000
 8005f3a:	f040 80db 	bne.w	80060f4 <HAL_RCCEx_GetPeriphCLKFreq+0xe7c>
 8005f3e:	a801      	add	r0, sp, #4
 8005f40:	f7ff f900 	bl	8005144 <HAL_RCCEx_GetPLL3ClockFreq>
 8005f44:	9803      	ldr	r0, [sp, #12]
 8005f46:	f7ff b9e4 	b.w	8005312 <HAL_RCCEx_GetPeriphCLKFreq+0x9a>
 8005f4a:	4a62      	ldr	r2, [pc, #392]	@ (80060d4 <HAL_RCCEx_GetPeriphCLKFreq+0xe5c>)
 8005f4c:	f8d2 30e8 	ldr.w	r3, [r2, #232]	@ 0xe8
 8005f50:	f8d2 10f0 	ldr.w	r1, [r2, #240]	@ 0xf0
 8005f54:	f403 4300 	and.w	r3, r3, #32768	@ 0x8000
 8005f58:	0788      	lsls	r0, r1, #30
 8005f5a:	d502      	bpl.n	8005f62 <HAL_RCCEx_GetPeriphCLKFreq+0xcea>
 8005f5c:	2b00      	cmp	r3, #0
 8005f5e:	f000 80cc 	beq.w	80060fa <HAL_RCCEx_GetPeriphCLKFreq+0xe82>
 8005f62:	f8d2 00f0 	ldr.w	r0, [r2, #240]	@ 0xf0
 8005f66:	f010 6000 	ands.w	r0, r0, #134217728	@ 0x8000000
 8005f6a:	f43f a9d2 	beq.w	8005312 <HAL_RCCEx_GetPeriphCLKFreq+0x9a>
 8005f6e:	2b00      	cmp	r3, #0
 8005f70:	f000 80c7 	beq.w	8006102 <HAL_RCCEx_GetPeriphCLKFreq+0xe8a>
 8005f74:	f8d2 30f0 	ldr.w	r3, [r2, #240]	@ 0xf0
 8005f78:	f013 5f80 	tst.w	r3, #268435456	@ 0x10000000
 8005f7c:	bf0c      	ite	eq
 8005f7e:	f44f 40fa 	moveq.w	r0, #32000	@ 0x7d00
 8005f82:	20fa      	movne	r0, #250	@ 0xfa
 8005f84:	f7ff b9c5 	b.w	8005312 <HAL_RCCEx_GetPeriphCLKFreq+0x9a>
 8005f88:	4a52      	ldr	r2, [pc, #328]	@ (80060d4 <HAL_RCCEx_GetPeriphCLKFreq+0xe5c>)
 8005f8a:	f8d2 30e4 	ldr.w	r3, [r2, #228]	@ 0xe4
 8005f8e:	6811      	ldr	r1, [r2, #0]
 8005f90:	f403 5340 	and.w	r3, r3, #12288	@ 0x3000
 8005f94:	0489      	lsls	r1, r1, #18
 8005f96:	d502      	bpl.n	8005f9e <HAL_RCCEx_GetPeriphCLKFreq+0xd26>
 8005f98:	2b00      	cmp	r3, #0
 8005f9a:	f000 80b5 	beq.w	8006108 <HAL_RCCEx_GetPeriphCLKFreq+0xe90>
 8005f9e:	6812      	ldr	r2, [r2, #0]
 8005fa0:	0490      	lsls	r0, r2, #18
 8005fa2:	d503      	bpl.n	8005fac <HAL_RCCEx_GetPeriphCLKFreq+0xd34>
 8005fa4:	f5b3 5f80 	cmp.w	r3, #4096	@ 0x1000
 8005fa8:	f000 80b1 	beq.w	800610e <HAL_RCCEx_GetPeriphCLKFreq+0xe96>
 8005fac:	4a49      	ldr	r2, [pc, #292]	@ (80060d4 <HAL_RCCEx_GetPeriphCLKFreq+0xe5c>)
 8005fae:	6810      	ldr	r0, [r2, #0]
 8005fb0:	f410 6080 	ands.w	r0, r0, #1024	@ 0x400
 8005fb4:	f43f a9ad 	beq.w	8005312 <HAL_RCCEx_GetPeriphCLKFreq+0x9a>
 8005fb8:	f5b3 5f00 	cmp.w	r3, #8192	@ 0x2000
 8005fbc:	4846      	ldr	r0, [pc, #280]	@ (80060d8 <HAL_RCCEx_GetPeriphCLKFreq+0xe60>)
 8005fbe:	bf18      	it	ne
 8005fc0:	2000      	movne	r0, #0
 8005fc2:	f7ff b9a6 	b.w	8005312 <HAL_RCCEx_GetPeriphCLKFreq+0x9a>
 8005fc6:	4a43      	ldr	r2, [pc, #268]	@ (80060d4 <HAL_RCCEx_GetPeriphCLKFreq+0xe5c>)
 8005fc8:	f8d2 30e4 	ldr.w	r3, [r2, #228]	@ 0xe4
 8005fcc:	6811      	ldr	r1, [r2, #0]
 8005fce:	f003 4340 	and.w	r3, r3, #3221225472	@ 0xc0000000
 8005fd2:	0389      	lsls	r1, r1, #14
 8005fd4:	d502      	bpl.n	8005fdc <HAL_RCCEx_GetPeriphCLKFreq+0xd64>
 8005fd6:	2b00      	cmp	r3, #0
 8005fd8:	f000 809c 	beq.w	8006114 <HAL_RCCEx_GetPeriphCLKFreq+0xe9c>
 8005fdc:	6812      	ldr	r2, [r2, #0]
 8005fde:	0392      	lsls	r2, r2, #14
 8005fe0:	d503      	bpl.n	8005fea <HAL_RCCEx_GetPeriphCLKFreq+0xd72>
 8005fe2:	f1b3 4f00 	cmp.w	r3, #2147483648	@ 0x80000000
 8005fe6:	f000 8098 	beq.w	800611a <HAL_RCCEx_GetPeriphCLKFreq+0xea2>
 8005fea:	f1b3 4f80 	cmp.w	r3, #1073741824	@ 0x40000000
 8005fee:	f43f ab6a 	beq.w	80056c6 <HAL_RCCEx_GetPeriphCLKFreq+0x44e>
 8005ff2:	f1b3 4f40 	cmp.w	r3, #3221225472	@ 0xc0000000
 8005ff6:	f040 8093 	bne.w	8006120 <HAL_RCCEx_GetPeriphCLKFreq+0xea8>
 8005ffa:	a801      	add	r0, sp, #4
 8005ffc:	f7fe ff6e 	bl	8004edc <HAL_RCCEx_GetPLL1ClockFreq>
 8006000:	9801      	ldr	r0, [sp, #4]
 8006002:	0840      	lsrs	r0, r0, #1
 8006004:	f7ff b985 	b.w	8005312 <HAL_RCCEx_GetPeriphCLKFreq+0x9a>
 8006008:	2000      	movs	r0, #0
 800600a:	f7ff b982 	b.w	8005312 <HAL_RCCEx_GetPeriphCLKFreq+0x9a>
 800600e:	2000      	movs	r0, #0
 8006010:	f7ff b97f 	b.w	8005312 <HAL_RCCEx_GetPeriphCLKFreq+0x9a>
 8006014:	f44f 4000 	mov.w	r0, #32768	@ 0x8000
 8006018:	f7ff b97b 	b.w	8005312 <HAL_RCCEx_GetPeriphCLKFreq+0x9a>
 800601c:	f64b 3080 	movw	r0, #48000	@ 0xbb80
 8006020:	f7ff b977 	b.w	8005312 <HAL_RCCEx_GetPeriphCLKFreq+0x9a>
 8006024:	f64b 3080 	movw	r0, #48000	@ 0xbb80
 8006028:	f7ff b973 	b.w	8005312 <HAL_RCCEx_GetPeriphCLKFreq+0x9a>
 800602c:	2000      	movs	r0, #0
 800602e:	f7ff b970 	b.w	8005312 <HAL_RCCEx_GetPeriphCLKFreq+0x9a>
 8006032:	4829      	ldr	r0, [pc, #164]	@ (80060d8 <HAL_RCCEx_GetPeriphCLKFreq+0xe60>)
 8006034:	f7ff b96d 	b.w	8005312 <HAL_RCCEx_GetPeriphCLKFreq+0x9a>
 8006038:	4827      	ldr	r0, [pc, #156]	@ (80060d8 <HAL_RCCEx_GetPeriphCLKFreq+0xe60>)
 800603a:	f7ff b96a 	b.w	8005312 <HAL_RCCEx_GetPeriphCLKFreq+0x9a>
 800603e:	4826      	ldr	r0, [pc, #152]	@ (80060d8 <HAL_RCCEx_GetPeriphCLKFreq+0xe60>)
 8006040:	f7ff b967 	b.w	8005312 <HAL_RCCEx_GetPeriphCLKFreq+0x9a>
 8006044:	4824      	ldr	r0, [pc, #144]	@ (80060d8 <HAL_RCCEx_GetPeriphCLKFreq+0xe60>)
 8006046:	f7ff b964 	b.w	8005312 <HAL_RCCEx_GetPeriphCLKFreq+0x9a>
 800604a:	4823      	ldr	r0, [pc, #140]	@ (80060d8 <HAL_RCCEx_GetPeriphCLKFreq+0xe60>)
 800604c:	f7ff b961 	b.w	8005312 <HAL_RCCEx_GetPeriphCLKFreq+0x9a>
 8006050:	4821      	ldr	r0, [pc, #132]	@ (80060d8 <HAL_RCCEx_GetPeriphCLKFreq+0xe60>)
 8006052:	f7ff b95e 	b.w	8005312 <HAL_RCCEx_GetPeriphCLKFreq+0x9a>
 8006056:	4820      	ldr	r0, [pc, #128]	@ (80060d8 <HAL_RCCEx_GetPeriphCLKFreq+0xe60>)
 8006058:	f7ff b95b 	b.w	8005312 <HAL_RCCEx_GetPeriphCLKFreq+0x9a>
 800605c:	481e      	ldr	r0, [pc, #120]	@ (80060d8 <HAL_RCCEx_GetPeriphCLKFreq+0xe60>)
 800605e:	f7ff b958 	b.w	8005312 <HAL_RCCEx_GetPeriphCLKFreq+0x9a>
 8006062:	f44f 4000 	mov.w	r0, #32768	@ 0x8000
 8006066:	f7ff b954 	b.w	8005312 <HAL_RCCEx_GetPeriphCLKFreq+0x9a>
 800606a:	2000      	movs	r0, #0
 800606c:	f7ff b951 	b.w	8005312 <HAL_RCCEx_GetPeriphCLKFreq+0x9a>
 8006070:	4819      	ldr	r0, [pc, #100]	@ (80060d8 <HAL_RCCEx_GetPeriphCLKFreq+0xe60>)
 8006072:	f7ff b94e 	b.w	8005312 <HAL_RCCEx_GetPeriphCLKFreq+0x9a>
 8006076:	f64b 3080 	movw	r0, #48000	@ 0xbb80
 800607a:	f7ff b94a 	b.w	8005312 <HAL_RCCEx_GetPeriphCLKFreq+0x9a>
 800607e:	f64b 3080 	movw	r0, #48000	@ 0xbb80
 8006082:	f7ff b946 	b.w	8005312 <HAL_RCCEx_GetPeriphCLKFreq+0x9a>
 8006086:	2000      	movs	r0, #0
 8006088:	f7ff b943 	b.w	8005312 <HAL_RCCEx_GetPeriphCLKFreq+0x9a>
 800608c:	4812      	ldr	r0, [pc, #72]	@ (80060d8 <HAL_RCCEx_GetPeriphCLKFreq+0xe60>)
 800608e:	f7ff b940 	b.w	8005312 <HAL_RCCEx_GetPeriphCLKFreq+0x9a>
 8006092:	2000      	movs	r0, #0
 8006094:	f7ff b93d 	b.w	8005312 <HAL_RCCEx_GetPeriphCLKFreq+0x9a>
 8006098:	480f      	ldr	r0, [pc, #60]	@ (80060d8 <HAL_RCCEx_GetPeriphCLKFreq+0xe60>)
 800609a:	f7ff b93a 	b.w	8005312 <HAL_RCCEx_GetPeriphCLKFreq+0x9a>
 800609e:	2000      	movs	r0, #0
 80060a0:	f7ff b937 	b.w	8005312 <HAL_RCCEx_GetPeriphCLKFreq+0x9a>
 80060a4:	480c      	ldr	r0, [pc, #48]	@ (80060d8 <HAL_RCCEx_GetPeriphCLKFreq+0xe60>)
 80060a6:	f7ff b934 	b.w	8005312 <HAL_RCCEx_GetPeriphCLKFreq+0x9a>
 80060aa:	2000      	movs	r0, #0
 80060ac:	f7ff b931 	b.w	8005312 <HAL_RCCEx_GetPeriphCLKFreq+0x9a>
 80060b0:	4809      	ldr	r0, [pc, #36]	@ (80060d8 <HAL_RCCEx_GetPeriphCLKFreq+0xe60>)
 80060b2:	f7ff b92e 	b.w	8005312 <HAL_RCCEx_GetPeriphCLKFreq+0x9a>
 80060b6:	2000      	movs	r0, #0
 80060b8:	f7ff b92b 	b.w	8005312 <HAL_RCCEx_GetPeriphCLKFreq+0x9a>
 80060bc:	4806      	ldr	r0, [pc, #24]	@ (80060d8 <HAL_RCCEx_GetPeriphCLKFreq+0xe60>)
 80060be:	f7ff b928 	b.w	8005312 <HAL_RCCEx_GetPeriphCLKFreq+0x9a>
 80060c2:	2000      	movs	r0, #0
 80060c4:	f7ff b925 	b.w	8005312 <HAL_RCCEx_GetPeriphCLKFreq+0x9a>
 80060c8:	4803      	ldr	r0, [pc, #12]	@ (80060d8 <HAL_RCCEx_GetPeriphCLKFreq+0xe60>)
 80060ca:	f7ff b922 	b.w	8005312 <HAL_RCCEx_GetPeriphCLKFreq+0x9a>
 80060ce:	bf00      	nop
 80060d0:	080093b8 	.word	0x080093b8
 80060d4:	46020c00 	.word	0x46020c00
 80060d8:	00f42400 	.word	0x00f42400
 80060dc:	4812      	ldr	r0, [pc, #72]	@ (8006128 <HAL_RCCEx_GetPeriphCLKFreq+0xeb0>)
 80060de:	f7ff b918 	b.w	8005312 <HAL_RCCEx_GetPeriphCLKFreq+0x9a>
 80060e2:	4811      	ldr	r0, [pc, #68]	@ (8006128 <HAL_RCCEx_GetPeriphCLKFreq+0xeb0>)
 80060e4:	f7ff b915 	b.w	8005312 <HAL_RCCEx_GetPeriphCLKFreq+0x9a>
 80060e8:	480f      	ldr	r0, [pc, #60]	@ (8006128 <HAL_RCCEx_GetPeriphCLKFreq+0xeb0>)
 80060ea:	f7ff b912 	b.w	8005312 <HAL_RCCEx_GetPeriphCLKFreq+0x9a>
 80060ee:	2000      	movs	r0, #0
 80060f0:	f7ff b90f 	b.w	8005312 <HAL_RCCEx_GetPeriphCLKFreq+0x9a>
 80060f4:	2000      	movs	r0, #0
 80060f6:	f7ff b90c 	b.w	8005312 <HAL_RCCEx_GetPeriphCLKFreq+0x9a>
 80060fa:	f44f 4000 	mov.w	r0, #32768	@ 0x8000
 80060fe:	f7ff b908 	b.w	8005312 <HAL_RCCEx_GetPeriphCLKFreq+0x9a>
 8006102:	4618      	mov	r0, r3
 8006104:	f7ff b905 	b.w	8005312 <HAL_RCCEx_GetPeriphCLKFreq+0x9a>
 8006108:	4808      	ldr	r0, [pc, #32]	@ (800612c <HAL_RCCEx_GetPeriphCLKFreq+0xeb4>)
 800610a:	f7ff b902 	b.w	8005312 <HAL_RCCEx_GetPeriphCLKFreq+0x9a>
 800610e:	4808      	ldr	r0, [pc, #32]	@ (8006130 <HAL_RCCEx_GetPeriphCLKFreq+0xeb8>)
 8006110:	f7ff b8ff 	b.w	8005312 <HAL_RCCEx_GetPeriphCLKFreq+0x9a>
 8006114:	4804      	ldr	r0, [pc, #16]	@ (8006128 <HAL_RCCEx_GetPeriphCLKFreq+0xeb0>)
 8006116:	f7ff b8fc 	b.w	8005312 <HAL_RCCEx_GetPeriphCLKFreq+0x9a>
 800611a:	4806      	ldr	r0, [pc, #24]	@ (8006134 <HAL_RCCEx_GetPeriphCLKFreq+0xebc>)
 800611c:	f7ff b8f9 	b.w	8005312 <HAL_RCCEx_GetPeriphCLKFreq+0x9a>
 8006120:	2000      	movs	r0, #0
 8006122:	f7ff b8f6 	b.w	8005312 <HAL_RCCEx_GetPeriphCLKFreq+0x9a>
 8006126:	bf00      	nop
 8006128:	00f42400 	.word	0x00f42400
 800612c:	02dc6c00 	.word	0x02dc6c00
 8006130:	016e3600 	.word	0x016e3600
 8006134:	007a1200 	.word	0x007a1200

08006138 <SPI_CloseTransfer>:
 8006138:	6803      	ldr	r3, [r0, #0]
 800613a:	6959      	ldr	r1, [r3, #20]
 800613c:	699a      	ldr	r2, [r3, #24]
 800613e:	f042 0208 	orr.w	r2, r2, #8
 8006142:	619a      	str	r2, [r3, #24]
 8006144:	699a      	ldr	r2, [r3, #24]
 8006146:	f042 0210 	orr.w	r2, r2, #16
 800614a:	619a      	str	r2, [r3, #24]
 800614c:	681a      	ldr	r2, [r3, #0]
 800614e:	f022 0201 	bic.w	r2, r2, #1
 8006152:	601a      	str	r2, [r3, #0]
 8006154:	691a      	ldr	r2, [r3, #16]
 8006156:	f422 725b 	bic.w	r2, r2, #876	@ 0x36c
 800615a:	f022 0203 	bic.w	r2, r2, #3
 800615e:	611a      	str	r2, [r3, #16]
 8006160:	689a      	ldr	r2, [r3, #8]
 8006162:	f422 4240 	bic.w	r2, r2, #49152	@ 0xc000
 8006166:	609a      	str	r2, [r3, #8]
 8006168:	f890 2089 	ldrb.w	r2, [r0, #137]	@ 0x89
 800616c:	2a04      	cmp	r2, #4
 800616e:	d00b      	beq.n	8006188 <SPI_CloseTransfer+0x50>
 8006170:	068a      	lsls	r2, r1, #26
 8006172:	d509      	bpl.n	8006188 <SPI_CloseTransfer+0x50>
 8006174:	f8d0 208c 	ldr.w	r2, [r0, #140]	@ 0x8c
 8006178:	f042 0280 	orr.w	r2, r2, #128	@ 0x80
 800617c:	f8c0 208c 	str.w	r2, [r0, #140]	@ 0x8c
 8006180:	699a      	ldr	r2, [r3, #24]
 8006182:	f042 0220 	orr.w	r2, r2, #32
 8006186:	619a      	str	r2, [r3, #24]
 8006188:	f890 2089 	ldrb.w	r2, [r0, #137]	@ 0x89
 800618c:	2a03      	cmp	r2, #3
 800618e:	d00b      	beq.n	80061a8 <SPI_CloseTransfer+0x70>
 8006190:	064a      	lsls	r2, r1, #25
 8006192:	d509      	bpl.n	80061a8 <SPI_CloseTransfer+0x70>
 8006194:	f8d0 208c 	ldr.w	r2, [r0, #140]	@ 0x8c
 8006198:	f042 0204 	orr.w	r2, r2, #4
 800619c:	f8c0 208c 	str.w	r2, [r0, #140]	@ 0x8c
 80061a0:	699a      	ldr	r2, [r3, #24]
 80061a2:	f042 0240 	orr.w	r2, r2, #64	@ 0x40
 80061a6:	619a      	str	r2, [r3, #24]
 80061a8:	058a      	lsls	r2, r1, #22
 80061aa:	d509      	bpl.n	80061c0 <SPI_CloseTransfer+0x88>
 80061ac:	f8d0 208c 	ldr.w	r2, [r0, #140]	@ 0x8c
 80061b0:	f042 0201 	orr.w	r2, r2, #1
 80061b4:	f8c0 208c 	str.w	r2, [r0, #140]	@ 0x8c
 80061b8:	699a      	ldr	r2, [r3, #24]
 80061ba:	f442 7200 	orr.w	r2, r2, #512	@ 0x200
 80061be:	619a      	str	r2, [r3, #24]
 80061c0:	05ca      	lsls	r2, r1, #23
 80061c2:	d509      	bpl.n	80061d8 <SPI_CloseTransfer+0xa0>
 80061c4:	f8d0 208c 	ldr.w	r2, [r0, #140]	@ 0x8c
 80061c8:	f042 0208 	orr.w	r2, r2, #8
 80061cc:	f8c0 208c 	str.w	r2, [r0, #140]	@ 0x8c
 80061d0:	699a      	ldr	r2, [r3, #24]
 80061d2:	f442 7280 	orr.w	r2, r2, #256	@ 0x100
 80061d6:	619a      	str	r2, [r3, #24]
 80061d8:	2300      	movs	r3, #0
 80061da:	f8a0 306a 	strh.w	r3, [r0, #106]	@ 0x6a
 80061de:	f8a0 3072 	strh.w	r3, [r0, #114]	@ 0x72
 80061e2:	4770      	bx	lr

080061e4 <HAL_SPI_Init>:
 80061e4:	b5f8      	push	{r3, r4, r5, r6, r7, lr}
 80061e6:	4604      	mov	r4, r0
 80061e8:	b908      	cbnz	r0, 80061ee <HAL_SPI_Init+0xa>
 80061ea:	2001      	movs	r0, #1
 80061ec:	bdf8      	pop	{r3, r4, r5, r6, r7, pc}
 80061ee:	2300      	movs	r3, #0
 80061f0:	6802      	ldr	r2, [r0, #0]
 80061f2:	6283      	str	r3, [r0, #40]	@ 0x28
 80061f4:	4b48      	ldr	r3, [pc, #288]	@ (8006318 <HAL_SPI_Init+0x134>)
 80061f6:	429a      	cmp	r2, r3
 80061f8:	68c3      	ldr	r3, [r0, #12]
 80061fa:	d002      	beq.n	8006202 <HAL_SPI_Init+0x1e>
 80061fc:	4947      	ldr	r1, [pc, #284]	@ (800631c <HAL_SPI_Init+0x138>)
 80061fe:	428a      	cmp	r2, r1
 8006200:	d101      	bne.n	8006206 <HAL_SPI_Init+0x22>
 8006202:	2b0f      	cmp	r3, #15
 8006204:	d8f1      	bhi.n	80061ea <HAL_SPI_Init+0x6>
 8006206:	6be1      	ldr	r1, [r4, #60]	@ 0x3c
 8006208:	3308      	adds	r3, #8
 800620a:	0949      	lsrs	r1, r1, #5
 800620c:	08db      	lsrs	r3, r3, #3
 800620e:	fb01 3303 	mla	r3, r1, r3, r3
 8006212:	4941      	ldr	r1, [pc, #260]	@ (8006318 <HAL_SPI_Init+0x134>)
 8006214:	428a      	cmp	r2, r1
 8006216:	d07d      	beq.n	8006314 <HAL_SPI_Init+0x130>
 8006218:	f101 5180 	add.w	r1, r1, #268435456	@ 0x10000000
 800621c:	428a      	cmp	r2, r1
 800621e:	d079      	beq.n	8006314 <HAL_SPI_Init+0x130>
 8006220:	493f      	ldr	r1, [pc, #252]	@ (8006320 <HAL_SPI_Init+0x13c>)
 8006222:	428a      	cmp	r2, r1
 8006224:	d00a      	beq.n	800623c <HAL_SPI_Init+0x58>
 8006226:	f101 5180 	add.w	r1, r1, #268435456	@ 0x10000000
 800622a:	428a      	cmp	r2, r1
 800622c:	d006      	beq.n	800623c <HAL_SPI_Init+0x58>
 800622e:	493d      	ldr	r1, [pc, #244]	@ (8006324 <HAL_SPI_Init+0x140>)
 8006230:	428a      	cmp	r2, r1
 8006232:	d003      	beq.n	800623c <HAL_SPI_Init+0x58>
 8006234:	f101 5180 	add.w	r1, r1, #268435456	@ 0x10000000
 8006238:	428a      	cmp	r2, r1
 800623a:	d101      	bne.n	8006240 <HAL_SPI_Init+0x5c>
 800623c:	2b10      	cmp	r3, #16
 800623e:	d8d4      	bhi.n	80061ea <HAL_SPI_Init+0x6>
 8006240:	f894 3089 	ldrb.w	r3, [r4, #137]	@ 0x89
 8006244:	f003 02ff 	and.w	r2, r3, #255	@ 0xff
 8006248:	b923      	cbnz	r3, 8006254 <HAL_SPI_Init+0x70>
 800624a:	4620      	mov	r0, r4
 800624c:	f884 2088 	strb.w	r2, [r4, #136]	@ 0x88
 8006250:	f7fc fa00 	bl	8002654 <HAL_SPI_MspInit>
 8006254:	2302      	movs	r3, #2
 8006256:	6822      	ldr	r2, [r4, #0]
 8006258:	f884 3089 	strb.w	r3, [r4, #137]	@ 0x89
 800625c:	6813      	ldr	r3, [r2, #0]
 800625e:	6865      	ldr	r5, [r4, #4]
 8006260:	f023 0301 	bic.w	r3, r3, #1
 8006264:	6013      	str	r3, [r2, #0]
 8006266:	6893      	ldr	r3, [r2, #8]
 8006268:	6ba6      	ldr	r6, [r4, #56]	@ 0x38
 800626a:	f403 1cf8 	and.w	ip, r3, #2031616	@ 0x1f0000
 800626e:	69a3      	ldr	r3, [r4, #24]
 8006270:	f1b3 6f80 	cmp.w	r3, #67108864	@ 0x4000000
 8006274:	d104      	bne.n	8006280 <HAL_SPI_Init+0x9c>
 8006276:	f5b5 0f80 	cmp.w	r5, #4194304	@ 0x400000
 800627a:	d13e      	bne.n	80062fa <HAL_SPI_Init+0x116>
 800627c:	2e00      	cmp	r6, #0
 800627e:	d041      	beq.n	8006304 <HAL_SPI_Init+0x120>
 8006280:	f415 0180 	ands.w	r1, r5, #4194304	@ 0x400000
 8006284:	68e0      	ldr	r0, [r4, #12]
 8006286:	6817      	ldr	r7, [r2, #0]
 8006288:	d041      	beq.n	800630e <HAL_SPI_Init+0x12a>
 800628a:	2806      	cmp	r0, #6
 800628c:	d93f      	bls.n	800630e <HAL_SPI_Init+0x12a>
 800628e:	f427 7e80 	bic.w	lr, r7, #256	@ 0x100
 8006292:	6d27      	ldr	r7, [r4, #80]	@ 0x50
 8006294:	ea4e 0707 	orr.w	r7, lr, r7
 8006298:	6017      	str	r7, [r2, #0]
 800629a:	69e7      	ldr	r7, [r4, #28]
 800629c:	432b      	orrs	r3, r5
 800629e:	4338      	orrs	r0, r7
 80062a0:	6aa7      	ldr	r7, [r4, #40]	@ 0x28
 80062a2:	4333      	orrs	r3, r6
 80062a4:	4338      	orrs	r0, r7
 80062a6:	6be7      	ldr	r7, [r4, #60]	@ 0x3c
 80062a8:	4338      	orrs	r0, r7
 80062aa:	ea40 000c 	orr.w	r0, r0, ip
 80062ae:	6090      	str	r0, [r2, #8]
 80062b0:	6b60      	ldr	r0, [r4, #52]	@ 0x34
 80062b2:	4303      	orrs	r3, r0
 80062b4:	6a60      	ldr	r0, [r4, #36]	@ 0x24
 80062b6:	4303      	orrs	r3, r0
 80062b8:	6920      	ldr	r0, [r4, #16]
 80062ba:	4303      	orrs	r3, r0
 80062bc:	6960      	ldr	r0, [r4, #20]
 80062be:	4303      	orrs	r3, r0
 80062c0:	6a20      	ldr	r0, [r4, #32]
 80062c2:	4303      	orrs	r3, r0
 80062c4:	6ce0      	ldr	r0, [r4, #76]	@ 0x4c
 80062c6:	4303      	orrs	r3, r0
 80062c8:	68a0      	ldr	r0, [r4, #8]
 80062ca:	4303      	orrs	r3, r0
 80062cc:	6ca0      	ldr	r0, [r4, #72]	@ 0x48
 80062ce:	4303      	orrs	r3, r0
 80062d0:	6da0      	ldr	r0, [r4, #88]	@ 0x58
 80062d2:	4303      	orrs	r3, r0
 80062d4:	6de0      	ldr	r0, [r4, #92]	@ 0x5c
 80062d6:	4303      	orrs	r3, r0
 80062d8:	6e20      	ldr	r0, [r4, #96]	@ 0x60
 80062da:	4303      	orrs	r3, r0
 80062dc:	60d3      	str	r3, [r2, #12]
 80062de:	b129      	cbz	r1, 80062ec <HAL_SPI_Init+0x108>
 80062e0:	68d3      	ldr	r3, [r2, #12]
 80062e2:	6d61      	ldr	r1, [r4, #84]	@ 0x54
 80062e4:	f023 4300 	bic.w	r3, r3, #2147483648	@ 0x80000000
 80062e8:	430b      	orrs	r3, r1
 80062ea:	60d3      	str	r3, [r2, #12]
 80062ec:	2000      	movs	r0, #0
 80062ee:	2301      	movs	r3, #1
 80062f0:	f8c4 008c 	str.w	r0, [r4, #140]	@ 0x8c
 80062f4:	f884 3089 	strb.w	r3, [r4, #137]	@ 0x89
 80062f8:	e778      	b.n	80061ec <HAL_SPI_Init+0x8>
 80062fa:	2d00      	cmp	r5, #0
 80062fc:	d1c0      	bne.n	8006280 <HAL_SPI_Init+0x9c>
 80062fe:	f1b6 5f80 	cmp.w	r6, #268435456	@ 0x10000000
 8006302:	d1bd      	bne.n	8006280 <HAL_SPI_Init+0x9c>
 8006304:	6811      	ldr	r1, [r2, #0]
 8006306:	f441 5180 	orr.w	r1, r1, #4096	@ 0x1000
 800630a:	6011      	str	r1, [r2, #0]
 800630c:	e7b8      	b.n	8006280 <HAL_SPI_Init+0x9c>
 800630e:	f427 7780 	bic.w	r7, r7, #256	@ 0x100
 8006312:	e7c1      	b.n	8006298 <HAL_SPI_Init+0xb4>
 8006314:	2b08      	cmp	r3, #8
 8006316:	e792      	b.n	800623e <HAL_SPI_Init+0x5a>
 8006318:	46002000 	.word	0x46002000
 800631c:	56002000 	.word	0x56002000
 8006320:	40013000 	.word	0x40013000
 8006324:	40003800 	.word	0x40003800

08006328 <HAL_SPI_TransmitReceive_DMA>:
 8006328:	b5f8      	push	{r3, r4, r5, r6, r7, lr}
 800632a:	461d      	mov	r5, r3
 800632c:	f890 3089 	ldrb.w	r3, [r0, #137]	@ 0x89
 8006330:	4604      	mov	r4, r0
 8006332:	2b01      	cmp	r3, #1
 8006334:	b2d8      	uxtb	r0, r3
 8006336:	f040 811e 	bne.w	8006576 <HAL_SPI_TransmitReceive_DMA+0x24e>
 800633a:	2900      	cmp	r1, #0
 800633c:	d040      	beq.n	80063c0 <HAL_SPI_TransmitReceive_DMA+0x98>
 800633e:	2a00      	cmp	r2, #0
 8006340:	d03e      	beq.n	80063c0 <HAL_SPI_TransmitReceive_DMA+0x98>
 8006342:	2d00      	cmp	r5, #0
 8006344:	d03c      	beq.n	80063c0 <HAL_SPI_TransmitReceive_DMA+0x98>
 8006346:	f894 3088 	ldrb.w	r3, [r4, #136]	@ 0x88
 800634a:	2b01      	cmp	r3, #1
 800634c:	f000 8113 	beq.w	8006576 <HAL_SPI_TransmitReceive_DMA+0x24e>
 8006350:	2305      	movs	r3, #5
 8006352:	f884 3089 	strb.w	r3, [r4, #137]	@ 0x89
 8006356:	2300      	movs	r3, #0
 8006358:	6661      	str	r1, [r4, #100]	@ 0x64
 800635a:	6821      	ldr	r1, [r4, #0]
 800635c:	f884 0088 	strb.w	r0, [r4, #136]	@ 0x88
 8006360:	f8c4 308c 	str.w	r3, [r4, #140]	@ 0x8c
 8006364:	f8a4 506a 	strh.w	r5, [r4, #106]	@ 0x6a
 8006368:	f8a4 5072 	strh.w	r5, [r4, #114]	@ 0x72
 800636c:	e9c4 331e 	strd	r3, r3, [r4, #120]	@ 0x78
 8006370:	68cb      	ldr	r3, [r1, #12]
 8006372:	f8a4 5068 	strh.w	r5, [r4, #104]	@ 0x68
 8006376:	f423 23c0 	bic.w	r3, r3, #393216	@ 0x60000
 800637a:	66e2      	str	r2, [r4, #108]	@ 0x6c
 800637c:	f8a4 5070 	strh.w	r5, [r4, #112]	@ 0x70
 8006380:	60cb      	str	r3, [r1, #12]
 8006382:	688b      	ldr	r3, [r1, #8]
 8006384:	68e7      	ldr	r7, [r4, #12]
 8006386:	f8d4 0084 	ldr.w	r0, [r4, #132]	@ 0x84
 800638a:	f423 4340 	bic.w	r3, r3, #49152	@ 0xc000
 800638e:	2f0f      	cmp	r7, #15
 8006390:	69c6      	ldr	r6, [r0, #28]
 8006392:	608b      	str	r3, [r1, #8]
 8006394:	d916      	bls.n	80063c4 <HAL_SPI_TransmitReceive_DMA+0x9c>
 8006396:	f5b6 3f00 	cmp.w	r6, #131072	@ 0x20000
 800639a:	d026      	beq.n	80063ea <HAL_SPI_TransmitReceive_DMA+0xc2>
 800639c:	4b79      	ldr	r3, [pc, #484]	@ (8006584 <HAL_SPI_TransmitReceive_DMA+0x25c>)
 800639e:	4299      	cmp	r1, r3
 80063a0:	d00b      	beq.n	80063ba <HAL_SPI_TransmitReceive_DMA+0x92>
 80063a2:	f103 5380 	add.w	r3, r3, #268435456	@ 0x10000000
 80063a6:	4299      	cmp	r1, r3
 80063a8:	d007      	beq.n	80063ba <HAL_SPI_TransmitReceive_DMA+0x92>
 80063aa:	4b77      	ldr	r3, [pc, #476]	@ (8006588 <HAL_SPI_TransmitReceive_DMA+0x260>)
 80063ac:	4299      	cmp	r1, r3
 80063ae:	d004      	beq.n	80063ba <HAL_SPI_TransmitReceive_DMA+0x92>
 80063b0:	f103 5380 	add.w	r3, r3, #268435456	@ 0x10000000
 80063b4:	4299      	cmp	r1, r3
 80063b6:	f040 80e0 	bne.w	800657a <HAL_SPI_TransmitReceive_DMA+0x252>
 80063ba:	2300      	movs	r3, #0
 80063bc:	f884 3088 	strb.w	r3, [r4, #136]	@ 0x88
 80063c0:	2001      	movs	r0, #1
 80063c2:	bdf8      	pop	{r3, r4, r5, r6, r7, pc}
 80063c4:	2f07      	cmp	r7, #7
 80063c6:	d92d      	bls.n	8006424 <HAL_SPI_TransmitReceive_DMA+0xfc>
 80063c8:	2e00      	cmp	r6, #0
 80063ca:	d0f6      	beq.n	80063ba <HAL_SPI_TransmitReceive_DMA+0x92>
 80063cc:	f8d4 3080 	ldr.w	r3, [r4, #128]	@ 0x80
 80063d0:	699b      	ldr	r3, [r3, #24]
 80063d2:	2b02      	cmp	r3, #2
 80063d4:	d106      	bne.n	80063e4 <HAL_SPI_TransmitReceive_DMA+0xbc>
 80063d6:	f8b4 306a 	ldrh.w	r3, [r4, #106]	@ 0x6a
 80063da:	b29b      	uxth	r3, r3
 80063dc:	3301      	adds	r3, #1
 80063de:	085b      	lsrs	r3, r3, #1
 80063e0:	f8a4 306a 	strh.w	r3, [r4, #106]	@ 0x6a
 80063e4:	f5b6 3f00 	cmp.w	r6, #131072	@ 0x20000
 80063e8:	d02b      	beq.n	8006442 <HAL_SPI_TransmitReceive_DMA+0x11a>
 80063ea:	4b68      	ldr	r3, [pc, #416]	@ (800658c <HAL_SPI_TransmitReceive_DMA+0x264>)
 80063ec:	4e68      	ldr	r6, [pc, #416]	@ (8006590 <HAL_SPI_TransmitReceive_DMA+0x268>)
 80063ee:	6643      	str	r3, [r0, #100]	@ 0x64
 80063f0:	4b68      	ldr	r3, [pc, #416]	@ (8006594 <HAL_SPI_TransmitReceive_DMA+0x26c>)
 80063f2:	2f07      	cmp	r7, #7
 80063f4:	6603      	str	r3, [r0, #96]	@ 0x60
 80063f6:	f04f 0300 	mov.w	r3, #0
 80063fa:	6686      	str	r6, [r0, #104]	@ 0x68
 80063fc:	66c3      	str	r3, [r0, #108]	@ 0x6c
 80063fe:	d839      	bhi.n	8006474 <HAL_SPI_TransmitReceive_DMA+0x14c>
 8006400:	f8a4 5072 	strh.w	r5, [r4, #114]	@ 0x72
 8006404:	6d03      	ldr	r3, [r0, #80]	@ 0x50
 8006406:	061f      	lsls	r7, r3, #24
 8006408:	d563      	bpl.n	80064d2 <HAL_SPI_TransmitReceive_DMA+0x1aa>
 800640a:	6f43      	ldr	r3, [r0, #116]	@ 0x74
 800640c:	2b00      	cmp	r3, #0
 800640e:	d139      	bne.n	8006484 <HAL_SPI_TransmitReceive_DMA+0x15c>
 8006410:	f8d4 308c 	ldr.w	r3, [r4, #140]	@ 0x8c
 8006414:	f043 0310 	orr.w	r3, r3, #16
 8006418:	f8c4 308c 	str.w	r3, [r4, #140]	@ 0x8c
 800641c:	2301      	movs	r3, #1
 800641e:	f884 3089 	strb.w	r3, [r4, #137]	@ 0x89
 8006422:	e7ca      	b.n	80063ba <HAL_SPI_TransmitReceive_DMA+0x92>
 8006424:	f8d4 3080 	ldr.w	r3, [r4, #128]	@ 0x80
 8006428:	699b      	ldr	r3, [r3, #24]
 800642a:	2b01      	cmp	r3, #1
 800642c:	d10f      	bne.n	800644e <HAL_SPI_TransmitReceive_DMA+0x126>
 800642e:	f8b4 306a 	ldrh.w	r3, [r4, #106]	@ 0x6a
 8006432:	b29b      	uxth	r3, r3
 8006434:	3301      	adds	r3, #1
 8006436:	085b      	lsrs	r3, r3, #1
 8006438:	f8a4 306a 	strh.w	r3, [r4, #106]	@ 0x6a
 800643c:	f5b6 3f80 	cmp.w	r6, #65536	@ 0x10000
 8006440:	d10d      	bne.n	800645e <HAL_SPI_TransmitReceive_DMA+0x136>
 8006442:	f8b4 3072 	ldrh.w	r3, [r4, #114]	@ 0x72
 8006446:	b29b      	uxth	r3, r3
 8006448:	3301      	adds	r3, #1
 800644a:	085b      	lsrs	r3, r3, #1
 800644c:	e00f      	b.n	800646e <HAL_SPI_TransmitReceive_DMA+0x146>
 800644e:	2b02      	cmp	r3, #2
 8006450:	d1f4      	bne.n	800643c <HAL_SPI_TransmitReceive_DMA+0x114>
 8006452:	f8b4 306a 	ldrh.w	r3, [r4, #106]	@ 0x6a
 8006456:	b29b      	uxth	r3, r3
 8006458:	3303      	adds	r3, #3
 800645a:	089b      	lsrs	r3, r3, #2
 800645c:	e7ec      	b.n	8006438 <HAL_SPI_TransmitReceive_DMA+0x110>
 800645e:	f5b6 3f00 	cmp.w	r6, #131072	@ 0x20000
 8006462:	d1c2      	bne.n	80063ea <HAL_SPI_TransmitReceive_DMA+0xc2>
 8006464:	f8b4 3072 	ldrh.w	r3, [r4, #114]	@ 0x72
 8006468:	b29b      	uxth	r3, r3
 800646a:	3303      	adds	r3, #3
 800646c:	089b      	lsrs	r3, r3, #2
 800646e:	f8a4 3072 	strh.w	r3, [r4, #114]	@ 0x72
 8006472:	e7ba      	b.n	80063ea <HAL_SPI_TransmitReceive_DMA+0xc2>
 8006474:	2f0f      	cmp	r7, #15
 8006476:	bf94      	ite	ls
 8006478:	006b      	lslls	r3, r5, #1
 800647a:	00ab      	lslhi	r3, r5, #2
 800647c:	b29b      	uxth	r3, r3
 800647e:	f8a4 3072 	strh.w	r3, [r4, #114]	@ 0x72
 8006482:	e7bf      	b.n	8006404 <HAL_SPI_TransmitReceive_DMA+0xdc>
 8006484:	f8b4 7072 	ldrh.w	r7, [r4, #114]	@ 0x72
 8006488:	681b      	ldr	r3, [r3, #0]
 800648a:	b2bf      	uxth	r7, r7
 800648c:	3130      	adds	r1, #48	@ 0x30
 800648e:	e9c3 1203 	strd	r1, r2, [r3, #12]
 8006492:	609f      	str	r7, [r3, #8]
 8006494:	f7fd f812 	bl	80034bc <HAL_DMAEx_List_Start_IT>
 8006498:	4603      	mov	r3, r0
 800649a:	2800      	cmp	r0, #0
 800649c:	d1b8      	bne.n	8006410 <HAL_SPI_TransmitReceive_DMA+0xe8>
 800649e:	6822      	ldr	r2, [r4, #0]
 80064a0:	f8d4 0080 	ldr.w	r0, [r4, #128]	@ 0x80
 80064a4:	6891      	ldr	r1, [r2, #8]
 80064a6:	f441 4180 	orr.w	r1, r1, #16384	@ 0x4000
 80064aa:	6091      	str	r1, [r2, #8]
 80064ac:	e9c0 3318 	strd	r3, r3, [r0, #96]	@ 0x60
 80064b0:	e9c0 631a 	strd	r6, r3, [r0, #104]	@ 0x68
 80064b4:	68e3      	ldr	r3, [r4, #12]
 80064b6:	2b07      	cmp	r3, #7
 80064b8:	d812      	bhi.n	80064e0 <HAL_SPI_TransmitReceive_DMA+0x1b8>
 80064ba:	f8a4 506a 	strh.w	r5, [r4, #106]	@ 0x6a
 80064be:	6d03      	ldr	r3, [r0, #80]	@ 0x50
 80064c0:	0619      	lsls	r1, r3, #24
 80064c2:	d54c      	bpl.n	800655e <HAL_SPI_TransmitReceive_DMA+0x236>
 80064c4:	6f43      	ldr	r3, [r0, #116]	@ 0x74
 80064c6:	b99b      	cbnz	r3, 80064f0 <HAL_SPI_TransmitReceive_DMA+0x1c8>
 80064c8:	f8d4 0084 	ldr.w	r0, [r4, #132]	@ 0x84
 80064cc:	f7fc fea4 	bl	8003218 <HAL_DMA_Abort>
 80064d0:	e79e      	b.n	8006410 <HAL_SPI_TransmitReceive_DMA+0xe8>
 80064d2:	f8b4 3072 	ldrh.w	r3, [r4, #114]	@ 0x72
 80064d6:	3130      	adds	r1, #48	@ 0x30
 80064d8:	b29b      	uxth	r3, r3
 80064da:	f7fc fe5f 	bl	800319c <HAL_DMA_Start_IT>
 80064de:	e7db      	b.n	8006498 <HAL_SPI_TransmitReceive_DMA+0x170>
 80064e0:	2b0f      	cmp	r3, #15
 80064e2:	bf94      	ite	ls
 80064e4:	006b      	lslls	r3, r5, #1
 80064e6:	00ab      	lslhi	r3, r5, #2
 80064e8:	b29b      	uxth	r3, r3
 80064ea:	f8a4 306a 	strh.w	r3, [r4, #106]	@ 0x6a
 80064ee:	e7e6      	b.n	80064be <HAL_SPI_TransmitReceive_DMA+0x196>
 80064f0:	f8b4 106a 	ldrh.w	r1, [r4, #106]	@ 0x6a
 80064f4:	681b      	ldr	r3, [r3, #0]
 80064f6:	b289      	uxth	r1, r1
 80064f8:	6099      	str	r1, [r3, #8]
 80064fa:	6e61      	ldr	r1, [r4, #100]	@ 0x64
 80064fc:	3220      	adds	r2, #32
 80064fe:	60d9      	str	r1, [r3, #12]
 8006500:	611a      	str	r2, [r3, #16]
 8006502:	f7fc ffdb 	bl	80034bc <HAL_DMAEx_List_Start_IT>
 8006506:	f8d4 2084 	ldr.w	r2, [r4, #132]	@ 0x84
 800650a:	2800      	cmp	r0, #0
 800650c:	d1dc      	bne.n	80064c8 <HAL_SPI_TransmitReceive_DMA+0x1a0>
 800650e:	6d12      	ldr	r2, [r2, #80]	@ 0x50
 8006510:	6823      	ldr	r3, [r4, #0]
 8006512:	2a81      	cmp	r2, #129	@ 0x81
 8006514:	4920      	ldr	r1, [pc, #128]	@ (8006598 <HAL_SPI_TransmitReceive_DMA+0x270>)
 8006516:	d12a      	bne.n	800656e <HAL_SPI_TransmitReceive_DMA+0x246>
 8006518:	f8d4 2080 	ldr.w	r2, [r4, #128]	@ 0x80
 800651c:	6d12      	ldr	r2, [r2, #80]	@ 0x50
 800651e:	2a81      	cmp	r2, #129	@ 0x81
 8006520:	d125      	bne.n	800656e <HAL_SPI_TransmitReceive_DMA+0x246>
 8006522:	685a      	ldr	r2, [r3, #4]
 8006524:	400a      	ands	r2, r1
 8006526:	605a      	str	r2, [r3, #4]
 8006528:	689a      	ldr	r2, [r3, #8]
 800652a:	f442 4200 	orr.w	r2, r2, #32768	@ 0x8000
 800652e:	609a      	str	r2, [r3, #8]
 8006530:	691a      	ldr	r2, [r3, #16]
 8006532:	f442 7258 	orr.w	r2, r2, #864	@ 0x360
 8006536:	611a      	str	r2, [r3, #16]
 8006538:	681a      	ldr	r2, [r3, #0]
 800653a:	f042 0201 	orr.w	r2, r2, #1
 800653e:	601a      	str	r2, [r3, #0]
 8006540:	69da      	ldr	r2, [r3, #28]
 8006542:	0292      	lsls	r2, r2, #10
 8006544:	d407      	bmi.n	8006556 <HAL_SPI_TransmitReceive_DMA+0x22e>
 8006546:	6862      	ldr	r2, [r4, #4]
 8006548:	f5b2 0f80 	cmp.w	r2, #4194304	@ 0x400000
 800654c:	bf02      	ittt	eq
 800654e:	681a      	ldreq	r2, [r3, #0]
 8006550:	f442 7200 	orreq.w	r2, r2, #512	@ 0x200
 8006554:	601a      	streq	r2, [r3, #0]
 8006556:	2300      	movs	r3, #0
 8006558:	f884 3088 	strb.w	r3, [r4, #136]	@ 0x88
 800655c:	e731      	b.n	80063c2 <HAL_SPI_TransmitReceive_DMA+0x9a>
 800655e:	f8b4 306a 	ldrh.w	r3, [r4, #106]	@ 0x6a
 8006562:	6e61      	ldr	r1, [r4, #100]	@ 0x64
 8006564:	b29b      	uxth	r3, r3
 8006566:	3220      	adds	r2, #32
 8006568:	f7fc fe18 	bl	800319c <HAL_DMA_Start_IT>
 800656c:	e7cb      	b.n	8006506 <HAL_SPI_TransmitReceive_DMA+0x1de>
 800656e:	685a      	ldr	r2, [r3, #4]
 8006570:	400a      	ands	r2, r1
 8006572:	432a      	orrs	r2, r5
 8006574:	e7d7      	b.n	8006526 <HAL_SPI_TransmitReceive_DMA+0x1fe>
 8006576:	2002      	movs	r0, #2
 8006578:	e723      	b.n	80063c2 <HAL_SPI_TransmitReceive_DMA+0x9a>
 800657a:	2e00      	cmp	r6, #0
 800657c:	f43f af1d 	beq.w	80063ba <HAL_SPI_TransmitReceive_DMA+0x92>
 8006580:	e733      	b.n	80063ea <HAL_SPI_TransmitReceive_DMA+0xc2>
 8006582:	bf00      	nop
 8006584:	40013000 	.word	0x40013000
 8006588:	40003800 	.word	0x40003800
 800658c:	080065d5 	.word	0x080065d5
 8006590:	080065df 	.word	0x080065df
 8006594:	080065a1 	.word	0x080065a1
 8006598:	ffff0000 	.word	0xffff0000

0800659c <HAL_SPI_TxCpltCallback>:
 800659c:	4770      	bx	lr

0800659e <HAL_SPI_RxCpltCallback>:
 800659e:	4770      	bx	lr

080065a0 <SPI_DMATransmitReceiveCplt>:
 80065a0:	b508      	push	{r3, lr}
 80065a2:	6dc0      	ldr	r0, [r0, #92]	@ 0x5c
 80065a4:	f890 3089 	ldrb.w	r3, [r0, #137]	@ 0x89
 80065a8:	2b07      	cmp	r3, #7
 80065aa:	d00b      	beq.n	80065c4 <SPI_DMATransmitReceiveCplt+0x24>
 80065ac:	f8d0 3084 	ldr.w	r3, [r0, #132]	@ 0x84
 80065b0:	6d1b      	ldr	r3, [r3, #80]	@ 0x50
 80065b2:	2b81      	cmp	r3, #129	@ 0x81
 80065b4:	d107      	bne.n	80065c6 <SPI_DMATransmitReceiveCplt+0x26>
 80065b6:	f8d0 3080 	ldr.w	r3, [r0, #128]	@ 0x80
 80065ba:	6d1b      	ldr	r3, [r3, #80]	@ 0x50
 80065bc:	2b81      	cmp	r3, #129	@ 0x81
 80065be:	d102      	bne.n	80065c6 <SPI_DMATransmitReceiveCplt+0x26>
 80065c0:	f7fb f97c 	bl	80018bc <HAL_SPI_TxRxCpltCallback>
 80065c4:	bd08      	pop	{r3, pc}
 80065c6:	6802      	ldr	r2, [r0, #0]
 80065c8:	6913      	ldr	r3, [r2, #16]
 80065ca:	f043 0308 	orr.w	r3, r3, #8
 80065ce:	6113      	str	r3, [r2, #16]
 80065d0:	e7f8      	b.n	80065c4 <SPI_DMATransmitReceiveCplt+0x24>

080065d2 <HAL_SPI_TxRxHalfCpltCallback>:
 80065d2:	4770      	bx	lr

080065d4 <SPI_DMAHalfTransmitReceiveCplt>:
 80065d4:	b508      	push	{r3, lr}
 80065d6:	6dc0      	ldr	r0, [r0, #92]	@ 0x5c
 80065d8:	f7ff fffb 	bl	80065d2 <HAL_SPI_TxRxHalfCpltCallback>
 80065dc:	bd08      	pop	{r3, pc}

080065de <SPI_DMAError>:
 80065de:	b510      	push	{r4, lr}
 80065e0:	6dc4      	ldr	r4, [r0, #92]	@ 0x5c
 80065e2:	f7fc ff37 	bl	8003454 <HAL_DMA_GetError>
 80065e6:	b168      	cbz	r0, 8006604 <SPI_DMAError+0x26>
 80065e8:	4620      	mov	r0, r4
 80065ea:	f7ff fda5 	bl	8006138 <SPI_CloseTransfer>
 80065ee:	f8d4 308c 	ldr.w	r3, [r4, #140]	@ 0x8c
 80065f2:	f043 0310 	orr.w	r3, r3, #16
 80065f6:	f8c4 308c 	str.w	r3, [r4, #140]	@ 0x8c
 80065fa:	2301      	movs	r3, #1
 80065fc:	f884 3089 	strb.w	r3, [r4, #137]	@ 0x89
 8006600:	f7fb f964 	bl	80018cc <HAL_SPI_ErrorCallback>
 8006604:	bd10      	pop	{r4, pc}

08006606 <SPI_DMAAbortOnError>:
 8006606:	b508      	push	{r3, lr}
 8006608:	2300      	movs	r3, #0
 800660a:	6dc0      	ldr	r0, [r0, #92]	@ 0x5c
 800660c:	f8a0 3072 	strh.w	r3, [r0, #114]	@ 0x72
 8006610:	f8a0 306a 	strh.w	r3, [r0, #106]	@ 0x6a
 8006614:	2301      	movs	r3, #1
 8006616:	f880 3089 	strb.w	r3, [r0, #137]	@ 0x89
 800661a:	f7fb f957 	bl	80018cc <HAL_SPI_ErrorCallback>
 800661e:	bd08      	pop	{r3, pc}

08006620 <HAL_SPI_SuspendCallback>:
 8006620:	4770      	bx	lr
	...

08006624 <HAL_SPI_IRQHandler>:
 8006624:	e92d 47f0 	stmdb	sp!, {r4, r5, r6, r7, r8, r9, sl, lr}
 8006628:	6806      	ldr	r6, [r0, #0]
 800662a:	4604      	mov	r4, r0
 800662c:	6933      	ldr	r3, [r6, #16]
 800662e:	6972      	ldr	r2, [r6, #20]
 8006630:	f8d6 8008 	ldr.w	r8, [r6, #8]
 8006634:	f890 7089 	ldrb.w	r7, [r0, #137]	@ 0x89
 8006638:	0511      	lsls	r1, r2, #20
 800663a:	ea03 0502 	and.w	r5, r3, r2
 800663e:	b2ff      	uxtb	r7, r7
 8006640:	d509      	bpl.n	8006656 <HAL_SPI_IRQHandler+0x32>
 8006642:	071a      	lsls	r2, r3, #28
 8006644:	d507      	bpl.n	8006656 <HAL_SPI_IRQHandler+0x32>
 8006646:	69b3      	ldr	r3, [r6, #24]
 8006648:	f443 6300 	orr.w	r3, r3, #2048	@ 0x800
 800664c:	61b3      	str	r3, [r6, #24]
 800664e:	f7ff ffe7 	bl	8006620 <HAL_SPI_SuspendCallback>
 8006652:	e8bd 87f0 	ldmia.w	sp!, {r4, r5, r6, r7, r8, r9, sl, pc}
 8006656:	f005 0364 	and.w	r3, r5, #100	@ 0x64
 800665a:	2b04      	cmp	r3, #4
 800665c:	d118      	bne.n	8006690 <HAL_SPI_IRQHandler+0x6c>
 800665e:	4620      	mov	r0, r4
 8006660:	6fe3      	ldr	r3, [r4, #124]	@ 0x7c
 8006662:	4798      	blx	r3
 8006664:	6fa3      	ldr	r3, [r4, #120]	@ 0x78
 8006666:	4620      	mov	r0, r4
 8006668:	4798      	blx	r3
 800666a:	2301      	movs	r3, #1
 800666c:	f005 0945 	and.w	r9, r5, #69	@ 0x45
 8006670:	f1b9 0f01 	cmp.w	r9, #1
 8006674:	d103      	bne.n	800667e <HAL_SPI_IRQHandler+0x5a>
 8006676:	6fa3      	ldr	r3, [r4, #120]	@ 0x78
 8006678:	4620      	mov	r0, r4
 800667a:	4798      	blx	r3
 800667c:	464b      	mov	r3, r9
 800667e:	f005 0226 	and.w	r2, r5, #38	@ 0x26
 8006682:	2a02      	cmp	r2, #2
 8006684:	d106      	bne.n	8006694 <HAL_SPI_IRQHandler+0x70>
 8006686:	4620      	mov	r0, r4
 8006688:	6fe3      	ldr	r3, [r4, #124]	@ 0x7c
 800668a:	e8bd 47f0 	ldmia.w	sp!, {r4, r5, r6, r7, r8, r9, sl, lr}
 800668e:	4718      	bx	r3
 8006690:	2300      	movs	r3, #0
 8006692:	e7eb      	b.n	800666c <HAL_SPI_IRQHandler+0x48>
 8006694:	2b00      	cmp	r3, #0
 8006696:	d1dc      	bne.n	8006652 <HAL_SPI_IRQHandler+0x2e>
 8006698:	072b      	lsls	r3, r5, #28
 800669a:	d551      	bpl.n	8006740 <HAL_SPI_IRQHandler+0x11c>
 800669c:	6823      	ldr	r3, [r4, #0]
 800669e:	699a      	ldr	r2, [r3, #24]
 80066a0:	f042 0208 	orr.w	r2, r2, #8
 80066a4:	619a      	str	r2, [r3, #24]
 80066a6:	699a      	ldr	r2, [r3, #24]
 80066a8:	f042 0210 	orr.w	r2, r2, #16
 80066ac:	619a      	str	r2, [r3, #24]
 80066ae:	699a      	ldr	r2, [r3, #24]
 80066b0:	f442 6200 	orr.w	r2, r2, #2048	@ 0x800
 80066b4:	619a      	str	r2, [r3, #24]
 80066b6:	691a      	ldr	r2, [r3, #16]
 80066b8:	f022 0208 	bic.w	r2, r2, #8
 80066bc:	611a      	str	r2, [r3, #16]
 80066be:	689b      	ldr	r3, [r3, #8]
 80066c0:	f413 4f40 	tst.w	r3, #49152	@ 0xc000
 80066c4:	d01a      	beq.n	80066fc <HAL_SPI_IRQHandler+0xd8>
 80066c6:	4620      	mov	r0, r4
 80066c8:	f7ff fd36 	bl	8006138 <SPI_CloseTransfer>
 80066cc:	2301      	movs	r3, #1
 80066ce:	f884 3089 	strb.w	r3, [r4, #137]	@ 0x89
 80066d2:	f8d4 308c 	ldr.w	r3, [r4, #140]	@ 0x8c
 80066d6:	b323      	cbz	r3, 8006722 <HAL_SPI_IRQHandler+0xfe>
 80066d8:	f7fb f8f8 	bl	80018cc <HAL_SPI_ErrorCallback>
 80066dc:	e7b9      	b.n	8006652 <HAL_SPI_IRQHandler+0x2e>
 80066de:	68e2      	ldr	r2, [r4, #12]
 80066e0:	6ee3      	ldr	r3, [r4, #108]	@ 0x6c
 80066e2:	2a0f      	cmp	r2, #15
 80066e4:	d910      	bls.n	8006708 <HAL_SPI_IRQHandler+0xe4>
 80066e6:	6822      	ldr	r2, [r4, #0]
 80066e8:	6b12      	ldr	r2, [r2, #48]	@ 0x30
 80066ea:	f843 2b04 	str.w	r2, [r3], #4
 80066ee:	66e3      	str	r3, [r4, #108]	@ 0x6c
 80066f0:	f8b4 3072 	ldrh.w	r3, [r4, #114]	@ 0x72
 80066f4:	3b01      	subs	r3, #1
 80066f6:	b29b      	uxth	r3, r3
 80066f8:	f8a4 3072 	strh.w	r3, [r4, #114]	@ 0x72
 80066fc:	f8b4 3072 	ldrh.w	r3, [r4, #114]	@ 0x72
 8006700:	b29b      	uxth	r3, r3
 8006702:	2b00      	cmp	r3, #0
 8006704:	d1eb      	bne.n	80066de <HAL_SPI_IRQHandler+0xba>
 8006706:	e7de      	b.n	80066c6 <HAL_SPI_IRQHandler+0xa2>
 8006708:	2a07      	cmp	r2, #7
 800670a:	bf95      	itete	ls
 800670c:	6822      	ldrls	r2, [r4, #0]
 800670e:	8e32      	ldrhhi	r2, [r6, #48]	@ 0x30
 8006710:	f892 2030 	ldrbls.w	r2, [r2, #48]	@ 0x30
 8006714:	f823 2b02 	strhhi.w	r2, [r3], #2
 8006718:	bf9e      	ittt	ls
 800671a:	701a      	strbls	r2, [r3, #0]
 800671c:	6ee3      	ldrls	r3, [r4, #108]	@ 0x6c
 800671e:	3301      	addls	r3, #1
 8006720:	e7e5      	b.n	80066ee <HAL_SPI_IRQHandler+0xca>
 8006722:	2f05      	cmp	r7, #5
 8006724:	d102      	bne.n	800672c <HAL_SPI_IRQHandler+0x108>
 8006726:	f7fb f8c9 	bl	80018bc <HAL_SPI_TxRxCpltCallback>
 800672a:	e792      	b.n	8006652 <HAL_SPI_IRQHandler+0x2e>
 800672c:	2f04      	cmp	r7, #4
 800672e:	d102      	bne.n	8006736 <HAL_SPI_IRQHandler+0x112>
 8006730:	f7ff ff35 	bl	800659e <HAL_SPI_RxCpltCallback>
 8006734:	e78d      	b.n	8006652 <HAL_SPI_IRQHandler+0x2e>
 8006736:	2f03      	cmp	r7, #3
 8006738:	d18b      	bne.n	8006652 <HAL_SPI_IRQHandler+0x2e>
 800673a:	f7ff ff2f 	bl	800659c <HAL_SPI_TxCpltCallback>
 800673e:	e788      	b.n	8006652 <HAL_SPI_IRQHandler+0x2e>
 8006740:	f415 7f58 	tst.w	r5, #864	@ 0x360
 8006744:	d085      	beq.n	8006652 <HAL_SPI_IRQHandler+0x2e>
 8006746:	0668      	lsls	r0, r5, #25
 8006748:	d50a      	bpl.n	8006760 <HAL_SPI_IRQHandler+0x13c>
 800674a:	f8d4 308c 	ldr.w	r3, [r4, #140]	@ 0x8c
 800674e:	6822      	ldr	r2, [r4, #0]
 8006750:	f043 0304 	orr.w	r3, r3, #4
 8006754:	f8c4 308c 	str.w	r3, [r4, #140]	@ 0x8c
 8006758:	6993      	ldr	r3, [r2, #24]
 800675a:	f043 0340 	orr.w	r3, r3, #64	@ 0x40
 800675e:	6193      	str	r3, [r2, #24]
 8006760:	05a9      	lsls	r1, r5, #22
 8006762:	d50a      	bpl.n	800677a <HAL_SPI_IRQHandler+0x156>
 8006764:	f8d4 308c 	ldr.w	r3, [r4, #140]	@ 0x8c
 8006768:	6822      	ldr	r2, [r4, #0]
 800676a:	f043 0301 	orr.w	r3, r3, #1
 800676e:	f8c4 308c 	str.w	r3, [r4, #140]	@ 0x8c
 8006772:	6993      	ldr	r3, [r2, #24]
 8006774:	f443 7300 	orr.w	r3, r3, #512	@ 0x200
 8006778:	6193      	str	r3, [r2, #24]
 800677a:	05ea      	lsls	r2, r5, #23
 800677c:	d50a      	bpl.n	8006794 <HAL_SPI_IRQHandler+0x170>
 800677e:	f8d4 308c 	ldr.w	r3, [r4, #140]	@ 0x8c
 8006782:	6822      	ldr	r2, [r4, #0]
 8006784:	f043 0308 	orr.w	r3, r3, #8
 8006788:	f8c4 308c 	str.w	r3, [r4, #140]	@ 0x8c
 800678c:	6993      	ldr	r3, [r2, #24]
 800678e:	f443 7380 	orr.w	r3, r3, #256	@ 0x100
 8006792:	6193      	str	r3, [r2, #24]
 8006794:	06ab      	lsls	r3, r5, #26
 8006796:	d50a      	bpl.n	80067ae <HAL_SPI_IRQHandler+0x18a>
 8006798:	f8d4 308c 	ldr.w	r3, [r4, #140]	@ 0x8c
 800679c:	6822      	ldr	r2, [r4, #0]
 800679e:	f043 0380 	orr.w	r3, r3, #128	@ 0x80
 80067a2:	f8c4 308c 	str.w	r3, [r4, #140]	@ 0x8c
 80067a6:	6993      	ldr	r3, [r2, #24]
 80067a8:	f043 0320 	orr.w	r3, r3, #32
 80067ac:	6193      	str	r3, [r2, #24]
 80067ae:	f8d4 308c 	ldr.w	r3, [r4, #140]	@ 0x8c
 80067b2:	2b00      	cmp	r3, #0
 80067b4:	f43f af4d 	beq.w	8006652 <HAL_SPI_IRQHandler+0x2e>
 80067b8:	6823      	ldr	r3, [r4, #0]
 80067ba:	f408 4840 	and.w	r8, r8, #49152	@ 0xc000
 80067be:	681a      	ldr	r2, [r3, #0]
 80067c0:	f5b8 4f40 	cmp.w	r8, #49152	@ 0xc000
 80067c4:	f022 0201 	bic.w	r2, r2, #1
 80067c8:	601a      	str	r2, [r3, #0]
 80067ca:	691a      	ldr	r2, [r3, #16]
 80067cc:	f422 725a 	bic.w	r2, r2, #872	@ 0x368
 80067d0:	f022 0203 	bic.w	r2, r2, #3
 80067d4:	611a      	str	r2, [r3, #16]
 80067d6:	d124      	bne.n	8006822 <HAL_SPI_IRQHandler+0x1fe>
 80067d8:	689a      	ldr	r2, [r3, #8]
 80067da:	f8d4 0084 	ldr.w	r0, [r4, #132]	@ 0x84
 80067de:	f422 4240 	bic.w	r2, r2, #49152	@ 0xc000
 80067e2:	609a      	str	r2, [r3, #8]
 80067e4:	b150      	cbz	r0, 80067fc <HAL_SPI_IRQHandler+0x1d8>
 80067e6:	4b11      	ldr	r3, [pc, #68]	@ (800682c <HAL_SPI_IRQHandler+0x208>)
 80067e8:	66c3      	str	r3, [r0, #108]	@ 0x6c
 80067ea:	f7fc fd5f 	bl	80032ac <HAL_DMA_Abort_IT>
 80067ee:	b128      	cbz	r0, 80067fc <HAL_SPI_IRQHandler+0x1d8>
 80067f0:	f8d4 308c 	ldr.w	r3, [r4, #140]	@ 0x8c
 80067f4:	f043 0340 	orr.w	r3, r3, #64	@ 0x40
 80067f8:	f8c4 308c 	str.w	r3, [r4, #140]	@ 0x8c
 80067fc:	f8d4 0080 	ldr.w	r0, [r4, #128]	@ 0x80
 8006800:	2800      	cmp	r0, #0
 8006802:	f43f af26 	beq.w	8006652 <HAL_SPI_IRQHandler+0x2e>
 8006806:	4b09      	ldr	r3, [pc, #36]	@ (800682c <HAL_SPI_IRQHandler+0x208>)
 8006808:	66c3      	str	r3, [r0, #108]	@ 0x6c
 800680a:	f7fc fd4f 	bl	80032ac <HAL_DMA_Abort_IT>
 800680e:	2800      	cmp	r0, #0
 8006810:	f43f af1f 	beq.w	8006652 <HAL_SPI_IRQHandler+0x2e>
 8006814:	f8d4 308c 	ldr.w	r3, [r4, #140]	@ 0x8c
 8006818:	f043 0340 	orr.w	r3, r3, #64	@ 0x40
 800681c:	f8c4 308c 	str.w	r3, [r4, #140]	@ 0x8c
 8006820:	e717      	b.n	8006652 <HAL_SPI_IRQHandler+0x2e>
 8006822:	2301      	movs	r3, #1
 8006824:	4620      	mov	r0, r4
 8006826:	f884 3089 	strb.w	r3, [r4, #137]	@ 0x89
 800682a:	e755      	b.n	80066d8 <HAL_SPI_IRQHandler+0xb4>
 800682c:	08006607 	.word	0x08006607

08006830 <HAL_SPIEx_SetConfigAutonomousMode>:
 8006830:	b530      	push	{r4, r5, lr}
 8006832:	f890 2089 	ldrb.w	r2, [r0, #137]	@ 0x89
 8006836:	4603      	mov	r3, r0
 8006838:	2a01      	cmp	r2, #1
 800683a:	b2d4      	uxtb	r4, r2
 800683c:	d119      	bne.n	8006872 <HAL_SPIEx_SetConfigAutonomousMode+0x42>
 800683e:	f890 2088 	ldrb.w	r2, [r0, #136]	@ 0x88
 8006842:	2002      	movs	r0, #2
 8006844:	2a01      	cmp	r2, #1
 8006846:	d013      	beq.n	8006870 <HAL_SPIEx_SetConfigAutonomousMode+0x40>
 8006848:	f883 0089 	strb.w	r0, [r3, #137]	@ 0x89
 800684c:	6818      	ldr	r0, [r3, #0]
 800684e:	688d      	ldr	r5, [r1, #8]
 8006850:	6802      	ldr	r2, [r0, #0]
 8006852:	f022 0201 	bic.w	r2, r2, #1
 8006856:	6002      	str	r2, [r0, #0]
 8006858:	680a      	ldr	r2, [r1, #0]
 800685a:	6849      	ldr	r1, [r1, #4]
 800685c:	432a      	orrs	r2, r5
 800685e:	f401 2170 	and.w	r1, r1, #983040	@ 0xf0000
 8006862:	430a      	orrs	r2, r1
 8006864:	61c2      	str	r2, [r0, #28]
 8006866:	2000      	movs	r0, #0
 8006868:	f883 4089 	strb.w	r4, [r3, #137]	@ 0x89
 800686c:	f883 0088 	strb.w	r0, [r3, #136]	@ 0x88
 8006870:	bd30      	pop	{r4, r5, pc}
 8006872:	2001      	movs	r0, #1
 8006874:	e7fc      	b.n	8006870 <HAL_SPIEx_SetConfigAutonomousMode+0x40>
	...

08006878 <TIM_OC1_SetConfig>:
 8006878:	6a03      	ldr	r3, [r0, #32]
 800687a:	6a02      	ldr	r2, [r0, #32]
 800687c:	b570      	push	{r4, r5, r6, lr}
 800687e:	f022 0201 	bic.w	r2, r2, #1
 8006882:	6202      	str	r2, [r0, #32]
 8006884:	6844      	ldr	r4, [r0, #4]
 8006886:	6982      	ldr	r2, [r0, #24]
 8006888:	680d      	ldr	r5, [r1, #0]
 800688a:	f422 3280 	bic.w	r2, r2, #65536	@ 0x10000
 800688e:	f022 0273 	bic.w	r2, r2, #115	@ 0x73
 8006892:	432a      	orrs	r2, r5
 8006894:	688d      	ldr	r5, [r1, #8]
 8006896:	f023 0302 	bic.w	r3, r3, #2
 800689a:	432b      	orrs	r3, r5
 800689c:	4d2b      	ldr	r5, [pc, #172]	@ (800694c <TIM_OC1_SetConfig+0xd4>)
 800689e:	42a8      	cmp	r0, r5
 80068a0:	d01f      	beq.n	80068e2 <TIM_OC1_SetConfig+0x6a>
 80068a2:	f105 5580 	add.w	r5, r5, #268435456	@ 0x10000000
 80068a6:	42a8      	cmp	r0, r5
 80068a8:	d01b      	beq.n	80068e2 <TIM_OC1_SetConfig+0x6a>
 80068aa:	4d29      	ldr	r5, [pc, #164]	@ (8006950 <TIM_OC1_SetConfig+0xd8>)
 80068ac:	42a8      	cmp	r0, r5
 80068ae:	d018      	beq.n	80068e2 <TIM_OC1_SetConfig+0x6a>
 80068b0:	f105 5580 	add.w	r5, r5, #268435456	@ 0x10000000
 80068b4:	42a8      	cmp	r0, r5
 80068b6:	d014      	beq.n	80068e2 <TIM_OC1_SetConfig+0x6a>
 80068b8:	4d26      	ldr	r5, [pc, #152]	@ (8006954 <TIM_OC1_SetConfig+0xdc>)
 80068ba:	42a8      	cmp	r0, r5
 80068bc:	d011      	beq.n	80068e2 <TIM_OC1_SetConfig+0x6a>
 80068be:	f105 5580 	add.w	r5, r5, #268435456	@ 0x10000000
 80068c2:	42a8      	cmp	r0, r5
 80068c4:	d00d      	beq.n	80068e2 <TIM_OC1_SetConfig+0x6a>
 80068c6:	4d24      	ldr	r5, [pc, #144]	@ (8006958 <TIM_OC1_SetConfig+0xe0>)
 80068c8:	42a8      	cmp	r0, r5
 80068ca:	d00a      	beq.n	80068e2 <TIM_OC1_SetConfig+0x6a>
 80068cc:	f105 5580 	add.w	r5, r5, #268435456	@ 0x10000000
 80068d0:	42a8      	cmp	r0, r5
 80068d2:	d006      	beq.n	80068e2 <TIM_OC1_SetConfig+0x6a>
 80068d4:	4d21      	ldr	r5, [pc, #132]	@ (800695c <TIM_OC1_SetConfig+0xe4>)
 80068d6:	42a8      	cmp	r0, r5
 80068d8:	d003      	beq.n	80068e2 <TIM_OC1_SetConfig+0x6a>
 80068da:	f105 5580 	add.w	r5, r5, #268435456	@ 0x10000000
 80068de:	42a8      	cmp	r0, r5
 80068e0:	d12e      	bne.n	8006940 <TIM_OC1_SetConfig+0xc8>
 80068e2:	68cd      	ldr	r5, [r1, #12]
 80068e4:	f023 0308 	bic.w	r3, r3, #8
 80068e8:	432b      	orrs	r3, r5
 80068ea:	4d18      	ldr	r5, [pc, #96]	@ (800694c <TIM_OC1_SetConfig+0xd4>)
 80068ec:	f023 0304 	bic.w	r3, r3, #4
 80068f0:	42a8      	cmp	r0, r5
 80068f2:	d01f      	beq.n	8006934 <TIM_OC1_SetConfig+0xbc>
 80068f4:	f105 5580 	add.w	r5, r5, #268435456	@ 0x10000000
 80068f8:	42a8      	cmp	r0, r5
 80068fa:	d01b      	beq.n	8006934 <TIM_OC1_SetConfig+0xbc>
 80068fc:	4d14      	ldr	r5, [pc, #80]	@ (8006950 <TIM_OC1_SetConfig+0xd8>)
 80068fe:	42a8      	cmp	r0, r5
 8006900:	d018      	beq.n	8006934 <TIM_OC1_SetConfig+0xbc>
 8006902:	f105 5580 	add.w	r5, r5, #268435456	@ 0x10000000
 8006906:	42a8      	cmp	r0, r5
 8006908:	d014      	beq.n	8006934 <TIM_OC1_SetConfig+0xbc>
 800690a:	4d12      	ldr	r5, [pc, #72]	@ (8006954 <TIM_OC1_SetConfig+0xdc>)
 800690c:	42a8      	cmp	r0, r5
 800690e:	d011      	beq.n	8006934 <TIM_OC1_SetConfig+0xbc>
 8006910:	f105 5580 	add.w	r5, r5, #268435456	@ 0x10000000
 8006914:	42a8      	cmp	r0, r5
 8006916:	d00d      	beq.n	8006934 <TIM_OC1_SetConfig+0xbc>
 8006918:	4d0f      	ldr	r5, [pc, #60]	@ (8006958 <TIM_OC1_SetConfig+0xe0>)
 800691a:	42a8      	cmp	r0, r5
 800691c:	d00a      	beq.n	8006934 <TIM_OC1_SetConfig+0xbc>
 800691e:	f105 5580 	add.w	r5, r5, #268435456	@ 0x10000000
 8006922:	42a8      	cmp	r0, r5
 8006924:	d006      	beq.n	8006934 <TIM_OC1_SetConfig+0xbc>
 8006926:	4d0d      	ldr	r5, [pc, #52]	@ (800695c <TIM_OC1_SetConfig+0xe4>)
 8006928:	42a8      	cmp	r0, r5
 800692a:	d003      	beq.n	8006934 <TIM_OC1_SetConfig+0xbc>
 800692c:	f105 5580 	add.w	r5, r5, #268435456	@ 0x10000000
 8006930:	42a8      	cmp	r0, r5
 8006932:	d105      	bne.n	8006940 <TIM_OC1_SetConfig+0xc8>
 8006934:	f424 7540 	bic.w	r5, r4, #768	@ 0x300
 8006938:	e9d1 4605 	ldrd	r4, r6, [r1, #20]
 800693c:	4334      	orrs	r4, r6
 800693e:	432c      	orrs	r4, r5
 8006940:	6044      	str	r4, [r0, #4]
 8006942:	6182      	str	r2, [r0, #24]
 8006944:	684a      	ldr	r2, [r1, #4]
 8006946:	6342      	str	r2, [r0, #52]	@ 0x34
 8006948:	6203      	str	r3, [r0, #32]
 800694a:	bd70      	pop	{r4, r5, r6, pc}
 800694c:	40012c00 	.word	0x40012c00
 8006950:	40013400 	.word	0x40013400
 8006954:	40014000 	.word	0x40014000
 8006958:	40014400 	.word	0x40014400
 800695c:	40014800 	.word	0x40014800

08006960 <TIM_OC3_SetConfig>:
 8006960:	6a03      	ldr	r3, [r0, #32]
 8006962:	6a02      	ldr	r2, [r0, #32]
 8006964:	b570      	push	{r4, r5, r6, lr}
 8006966:	f422 7280 	bic.w	r2, r2, #256	@ 0x100
 800696a:	6202      	str	r2, [r0, #32]
 800696c:	6844      	ldr	r4, [r0, #4]
 800696e:	69c2      	ldr	r2, [r0, #28]
 8006970:	680d      	ldr	r5, [r1, #0]
 8006972:	f422 3280 	bic.w	r2, r2, #65536	@ 0x10000
 8006976:	f022 0273 	bic.w	r2, r2, #115	@ 0x73
 800697a:	432a      	orrs	r2, r5
 800697c:	688d      	ldr	r5, [r1, #8]
 800697e:	f423 7300 	bic.w	r3, r3, #512	@ 0x200
 8006982:	ea43 2305 	orr.w	r3, r3, r5, lsl #8
 8006986:	4d22      	ldr	r5, [pc, #136]	@ (8006a10 <TIM_OC3_SetConfig+0xb0>)
 8006988:	42a8      	cmp	r0, r5
 800698a:	d00a      	beq.n	80069a2 <TIM_OC3_SetConfig+0x42>
 800698c:	f105 5580 	add.w	r5, r5, #268435456	@ 0x10000000
 8006990:	42a8      	cmp	r0, r5
 8006992:	d006      	beq.n	80069a2 <TIM_OC3_SetConfig+0x42>
 8006994:	4d1f      	ldr	r5, [pc, #124]	@ (8006a14 <TIM_OC3_SetConfig+0xb4>)
 8006996:	42a8      	cmp	r0, r5
 8006998:	d003      	beq.n	80069a2 <TIM_OC3_SetConfig+0x42>
 800699a:	f105 5580 	add.w	r5, r5, #268435456	@ 0x10000000
 800699e:	42a8      	cmp	r0, r5
 80069a0:	d114      	bne.n	80069cc <TIM_OC3_SetConfig+0x6c>
 80069a2:	68cd      	ldr	r5, [r1, #12]
 80069a4:	f423 6300 	bic.w	r3, r3, #2048	@ 0x800
 80069a8:	ea43 2305 	orr.w	r3, r3, r5, lsl #8
 80069ac:	4d18      	ldr	r5, [pc, #96]	@ (8006a10 <TIM_OC3_SetConfig+0xb0>)
 80069ae:	f423 6380 	bic.w	r3, r3, #1024	@ 0x400
 80069b2:	42a8      	cmp	r0, r5
 80069b4:	d01f      	beq.n	80069f6 <TIM_OC3_SetConfig+0x96>
 80069b6:	f105 5580 	add.w	r5, r5, #268435456	@ 0x10000000
 80069ba:	42a8      	cmp	r0, r5
 80069bc:	d01b      	beq.n	80069f6 <TIM_OC3_SetConfig+0x96>
 80069be:	4d15      	ldr	r5, [pc, #84]	@ (8006a14 <TIM_OC3_SetConfig+0xb4>)
 80069c0:	42a8      	cmp	r0, r5
 80069c2:	d018      	beq.n	80069f6 <TIM_OC3_SetConfig+0x96>
 80069c4:	f105 5580 	add.w	r5, r5, #268435456	@ 0x10000000
 80069c8:	42a8      	cmp	r0, r5
 80069ca:	d014      	beq.n	80069f6 <TIM_OC3_SetConfig+0x96>
 80069cc:	4d12      	ldr	r5, [pc, #72]	@ (8006a18 <TIM_OC3_SetConfig+0xb8>)
 80069ce:	42a8      	cmp	r0, r5
 80069d0:	d011      	beq.n	80069f6 <TIM_OC3_SetConfig+0x96>
 80069d2:	f105 5580 	add.w	r5, r5, #268435456	@ 0x10000000
 80069d6:	42a8      	cmp	r0, r5
 80069d8:	d00d      	beq.n	80069f6 <TIM_OC3_SetConfig+0x96>
 80069da:	4d10      	ldr	r5, [pc, #64]	@ (8006a1c <TIM_OC3_SetConfig+0xbc>)
 80069dc:	42a8      	cmp	r0, r5
 80069de:	d00a      	beq.n	80069f6 <TIM_OC3_SetConfig+0x96>
 80069e0:	f105 5580 	add.w	r5, r5, #268435456	@ 0x10000000
 80069e4:	42a8      	cmp	r0, r5
 80069e6:	d006      	beq.n	80069f6 <TIM_OC3_SetConfig+0x96>
 80069e8:	4d0d      	ldr	r5, [pc, #52]	@ (8006a20 <TIM_OC3_SetConfig+0xc0>)
 80069ea:	42a8      	cmp	r0, r5
 80069ec:	d003      	beq.n	80069f6 <TIM_OC3_SetConfig+0x96>
 80069ee:	f105 5580 	add.w	r5, r5, #268435456	@ 0x10000000
 80069f2:	42a8      	cmp	r0, r5
 80069f4:	d106      	bne.n	8006a04 <TIM_OC3_SetConfig+0xa4>
 80069f6:	f424 5540 	bic.w	r5, r4, #12288	@ 0x3000
 80069fa:	e9d1 4605 	ldrd	r4, r6, [r1, #20]
 80069fe:	4334      	orrs	r4, r6
 8006a00:	ea45 1404 	orr.w	r4, r5, r4, lsl #4
 8006a04:	6044      	str	r4, [r0, #4]
 8006a06:	61c2      	str	r2, [r0, #28]
 8006a08:	684a      	ldr	r2, [r1, #4]
 8006a0a:	63c2      	str	r2, [r0, #60]	@ 0x3c
 8006a0c:	6203      	str	r3, [r0, #32]
 8006a0e:	bd70      	pop	{r4, r5, r6, pc}
 8006a10:	40012c00 	.word	0x40012c00
 8006a14:	40013400 	.word	0x40013400
 8006a18:	40014000 	.word	0x40014000
 8006a1c:	40014400 	.word	0x40014400
 8006a20:	40014800 	.word	0x40014800

08006a24 <TIM_OC4_SetConfig>:
 8006a24:	6a03      	ldr	r3, [r0, #32]
 8006a26:	6a02      	ldr	r2, [r0, #32]
 8006a28:	b570      	push	{r4, r5, r6, lr}
 8006a2a:	f422 5280 	bic.w	r2, r2, #4096	@ 0x1000
 8006a2e:	6202      	str	r2, [r0, #32]
 8006a30:	6844      	ldr	r4, [r0, #4]
 8006a32:	69c2      	ldr	r2, [r0, #28]
 8006a34:	680d      	ldr	r5, [r1, #0]
 8006a36:	f022 7280 	bic.w	r2, r2, #16777216	@ 0x1000000
 8006a3a:	f422 42e6 	bic.w	r2, r2, #29440	@ 0x7300
 8006a3e:	ea42 2205 	orr.w	r2, r2, r5, lsl #8
 8006a42:	688d      	ldr	r5, [r1, #8]
 8006a44:	f423 5300 	bic.w	r3, r3, #8192	@ 0x2000
 8006a48:	ea43 3305 	orr.w	r3, r3, r5, lsl #12
 8006a4c:	4d22      	ldr	r5, [pc, #136]	@ (8006ad8 <TIM_OC4_SetConfig+0xb4>)
 8006a4e:	42a8      	cmp	r0, r5
 8006a50:	d00a      	beq.n	8006a68 <TIM_OC4_SetConfig+0x44>
 8006a52:	f105 5580 	add.w	r5, r5, #268435456	@ 0x10000000
 8006a56:	42a8      	cmp	r0, r5
 8006a58:	d006      	beq.n	8006a68 <TIM_OC4_SetConfig+0x44>
 8006a5a:	4d20      	ldr	r5, [pc, #128]	@ (8006adc <TIM_OC4_SetConfig+0xb8>)
 8006a5c:	42a8      	cmp	r0, r5
 8006a5e:	d003      	beq.n	8006a68 <TIM_OC4_SetConfig+0x44>
 8006a60:	f105 5580 	add.w	r5, r5, #268435456	@ 0x10000000
 8006a64:	42a8      	cmp	r0, r5
 8006a66:	d114      	bne.n	8006a92 <TIM_OC4_SetConfig+0x6e>
 8006a68:	68cd      	ldr	r5, [r1, #12]
 8006a6a:	f423 4300 	bic.w	r3, r3, #32768	@ 0x8000
 8006a6e:	ea43 3305 	orr.w	r3, r3, r5, lsl #12
 8006a72:	4d19      	ldr	r5, [pc, #100]	@ (8006ad8 <TIM_OC4_SetConfig+0xb4>)
 8006a74:	f423 4380 	bic.w	r3, r3, #16384	@ 0x4000
 8006a78:	42a8      	cmp	r0, r5
 8006a7a:	d01f      	beq.n	8006abc <TIM_OC4_SetConfig+0x98>
 8006a7c:	f105 5580 	add.w	r5, r5, #268435456	@ 0x10000000
 8006a80:	42a8      	cmp	r0, r5
 8006a82:	d01b      	beq.n	8006abc <TIM_OC4_SetConfig+0x98>
 8006a84:	4d15      	ldr	r5, [pc, #84]	@ (8006adc <TIM_OC4_SetConfig+0xb8>)
 8006a86:	42a8      	cmp	r0, r5
 8006a88:	d018      	beq.n	8006abc <TIM_OC4_SetConfig+0x98>
 8006a8a:	f105 5580 	add.w	r5, r5, #268435456	@ 0x10000000
 8006a8e:	42a8      	cmp	r0, r5
 8006a90:	d014      	beq.n	8006abc <TIM_OC4_SetConfig+0x98>
 8006a92:	4d13      	ldr	r5, [pc, #76]	@ (8006ae0 <TIM_OC4_SetConfig+0xbc>)
 8006a94:	42a8      	cmp	r0, r5
 8006a96:	d011      	beq.n	8006abc <TIM_OC4_SetConfig+0x98>
 8006a98:	f105 5580 	add.w	r5, r5, #268435456	@ 0x10000000
 8006a9c:	42a8      	cmp	r0, r5
 8006a9e:	d00d      	beq.n	8006abc <TIM_OC4_SetConfig+0x98>
 8006aa0:	4d10      	ldr	r5, [pc, #64]	@ (8006ae4 <TIM_OC4_SetConfig+0xc0>)
 8006aa2:	42a8      	cmp	r0, r5
 8006aa4:	d00a      	beq.n	8006abc <TIM_OC4_SetConfig+0x98>
 8006aa6:	f105 5580 	add.w	r5, r5, #268435456	@ 0x10000000
 8006aaa:	42a8      	cmp	r0, r5
 8006aac:	d006      	beq.n	8006abc <TIM_OC4_SetConfig+0x98>
 8006aae:	4d0e      	ldr	r5, [pc, #56]	@ (8006ae8 <TIM_OC4_SetConfig+0xc4>)
 8006ab0:	42a8      	cmp	r0, r5
 8006ab2:	d003      	beq.n	8006abc <TIM_OC4_SetConfig+0x98>
 8006ab4:	f105 5580 	add.w	r5, r5, #268435456	@ 0x10000000
 8006ab8:	42a8      	cmp	r0, r5
 8006aba:	d106      	bne.n	8006aca <TIM_OC4_SetConfig+0xa6>
 8006abc:	f424 4540 	bic.w	r5, r4, #49152	@ 0xc000
 8006ac0:	e9d1 4605 	ldrd	r4, r6, [r1, #20]
 8006ac4:	4334      	orrs	r4, r6
 8006ac6:	ea45 1484 	orr.w	r4, r5, r4, lsl #6
 8006aca:	6044      	str	r4, [r0, #4]
 8006acc:	61c2      	str	r2, [r0, #28]
 8006ace:	684a      	ldr	r2, [r1, #4]
 8006ad0:	6402      	str	r2, [r0, #64]	@ 0x40
 8006ad2:	6203      	str	r3, [r0, #32]
 8006ad4:	bd70      	pop	{r4, r5, r6, pc}
 8006ad6:	bf00      	nop
 8006ad8:	40012c00 	.word	0x40012c00
 8006adc:	40013400 	.word	0x40013400
 8006ae0:	40014000 	.word	0x40014000
 8006ae4:	40014400 	.word	0x40014400
 8006ae8:	40014800 	.word	0x40014800

08006aec <TIM_OC5_SetConfig>:
 8006aec:	6a03      	ldr	r3, [r0, #32]
 8006aee:	6a02      	ldr	r2, [r0, #32]
 8006af0:	b530      	push	{r4, r5, lr}
 8006af2:	f422 3280 	bic.w	r2, r2, #65536	@ 0x10000
 8006af6:	6202      	str	r2, [r0, #32]
 8006af8:	6844      	ldr	r4, [r0, #4]
 8006afa:	6d02      	ldr	r2, [r0, #80]	@ 0x50
 8006afc:	680d      	ldr	r5, [r1, #0]
 8006afe:	f422 3280 	bic.w	r2, r2, #65536	@ 0x10000
 8006b02:	f022 0270 	bic.w	r2, r2, #112	@ 0x70
 8006b06:	432a      	orrs	r2, r5
 8006b08:	688d      	ldr	r5, [r1, #8]
 8006b0a:	f423 3300 	bic.w	r3, r3, #131072	@ 0x20000
 8006b0e:	ea43 4305 	orr.w	r3, r3, r5, lsl #16
 8006b12:	4d17      	ldr	r5, [pc, #92]	@ (8006b70 <TIM_OC5_SetConfig+0x84>)
 8006b14:	42a8      	cmp	r0, r5
 8006b16:	d01f      	beq.n	8006b58 <TIM_OC5_SetConfig+0x6c>
 8006b18:	f105 5580 	add.w	r5, r5, #268435456	@ 0x10000000
 8006b1c:	42a8      	cmp	r0, r5
 8006b1e:	d01b      	beq.n	8006b58 <TIM_OC5_SetConfig+0x6c>
 8006b20:	4d14      	ldr	r5, [pc, #80]	@ (8006b74 <TIM_OC5_SetConfig+0x88>)
 8006b22:	42a8      	cmp	r0, r5
 8006b24:	d018      	beq.n	8006b58 <TIM_OC5_SetConfig+0x6c>
 8006b26:	f105 5580 	add.w	r5, r5, #268435456	@ 0x10000000
 8006b2a:	42a8      	cmp	r0, r5
 8006b2c:	d014      	beq.n	8006b58 <TIM_OC5_SetConfig+0x6c>
 8006b2e:	4d12      	ldr	r5, [pc, #72]	@ (8006b78 <TIM_OC5_SetConfig+0x8c>)
 8006b30:	42a8      	cmp	r0, r5
 8006b32:	d011      	beq.n	8006b58 <TIM_OC5_SetConfig+0x6c>
 8006b34:	f105 5580 	add.w	r5, r5, #268435456	@ 0x10000000
 8006b38:	42a8      	cmp	r0, r5
 8006b3a:	d00d      	beq.n	8006b58 <TIM_OC5_SetConfig+0x6c>
 8006b3c:	4d0f      	ldr	r5, [pc, #60]	@ (8006b7c <TIM_OC5_SetConfig+0x90>)
 8006b3e:	42a8      	cmp	r0, r5
 8006b40:	d00a      	beq.n	8006b58 <TIM_OC5_SetConfig+0x6c>
 8006b42:	f105 5580 	add.w	r5, r5, #268435456	@ 0x10000000
 8006b46:	42a8      	cmp	r0, r5
 8006b48:	d006      	beq.n	8006b58 <TIM_OC5_SetConfig+0x6c>
 8006b4a:	4d0d      	ldr	r5, [pc, #52]	@ (8006b80 <TIM_OC5_SetConfig+0x94>)
 8006b4c:	42a8      	cmp	r0, r5
 8006b4e:	d003      	beq.n	8006b58 <TIM_OC5_SetConfig+0x6c>
 8006b50:	f105 5580 	add.w	r5, r5, #268435456	@ 0x10000000
 8006b54:	42a8      	cmp	r0, r5
 8006b56:	d104      	bne.n	8006b62 <TIM_OC5_SetConfig+0x76>
 8006b58:	694d      	ldr	r5, [r1, #20]
 8006b5a:	f424 3480 	bic.w	r4, r4, #65536	@ 0x10000
 8006b5e:	ea44 2405 	orr.w	r4, r4, r5, lsl #8
 8006b62:	6044      	str	r4, [r0, #4]
 8006b64:	6502      	str	r2, [r0, #80]	@ 0x50
 8006b66:	684a      	ldr	r2, [r1, #4]
 8006b68:	6482      	str	r2, [r0, #72]	@ 0x48
 8006b6a:	6203      	str	r3, [r0, #32]
 8006b6c:	bd30      	pop	{r4, r5, pc}
 8006b6e:	bf00      	nop
 8006b70:	40012c00 	.word	0x40012c00
 8006b74:	40013400 	.word	0x40013400
 8006b78:	40014000 	.word	0x40014000
 8006b7c:	40014400 	.word	0x40014400
 8006b80:	40014800 	.word	0x40014800

08006b84 <TIM_OC6_SetConfig>:
 8006b84:	6a03      	ldr	r3, [r0, #32]
 8006b86:	6a02      	ldr	r2, [r0, #32]
 8006b88:	b530      	push	{r4, r5, lr}
 8006b8a:	f422 1280 	bic.w	r2, r2, #1048576	@ 0x100000
 8006b8e:	6202      	str	r2, [r0, #32]
 8006b90:	6844      	ldr	r4, [r0, #4]
 8006b92:	6d02      	ldr	r2, [r0, #80]	@ 0x50
 8006b94:	680d      	ldr	r5, [r1, #0]
 8006b96:	f022 7280 	bic.w	r2, r2, #16777216	@ 0x1000000
 8006b9a:	f422 42e0 	bic.w	r2, r2, #28672	@ 0x7000
 8006b9e:	ea42 2205 	orr.w	r2, r2, r5, lsl #8
 8006ba2:	688d      	ldr	r5, [r1, #8]
 8006ba4:	f423 1300 	bic.w	r3, r3, #2097152	@ 0x200000
 8006ba8:	ea43 5305 	orr.w	r3, r3, r5, lsl #20
 8006bac:	4d16      	ldr	r5, [pc, #88]	@ (8006c08 <TIM_OC6_SetConfig+0x84>)
 8006bae:	42a8      	cmp	r0, r5
 8006bb0:	d01f      	beq.n	8006bf2 <TIM_OC6_SetConfig+0x6e>
 8006bb2:	f105 5580 	add.w	r5, r5, #268435456	@ 0x10000000
 8006bb6:	42a8      	cmp	r0, r5
 8006bb8:	d01b      	beq.n	8006bf2 <TIM_OC6_SetConfig+0x6e>
 8006bba:	4d14      	ldr	r5, [pc, #80]	@ (8006c0c <TIM_OC6_SetConfig+0x88>)
 8006bbc:	42a8      	cmp	r0, r5
 8006bbe:	d018      	beq.n	8006bf2 <TIM_OC6_SetConfig+0x6e>
 8006bc0:	f105 5580 	add.w	r5, r5, #268435456	@ 0x10000000
 8006bc4:	42a8      	cmp	r0, r5
 8006bc6:	d014      	beq.n	8006bf2 <TIM_OC6_SetConfig+0x6e>
 8006bc8:	4d11      	ldr	r5, [pc, #68]	@ (8006c10 <TIM_OC6_SetConfig+0x8c>)
 8006bca:	42a8      	cmp	r0, r5
 8006bcc:	d011      	beq.n	8006bf2 <TIM_OC6_SetConfig+0x6e>
 8006bce:	f105 5580 	add.w	r5, r5, #268435456	@ 0x10000000
 8006bd2:	42a8      	cmp	r0, r5
 8006bd4:	d00d      	beq.n	8006bf2 <TIM_OC6_SetConfig+0x6e>
 8006bd6:	4d0f      	ldr	r5, [pc, #60]	@ (8006c14 <TIM_OC6_SetConfig+0x90>)
 8006bd8:	42a8      	cmp	r0, r5
 8006bda:	d00a      	beq.n	8006bf2 <TIM_OC6_SetConfig+0x6e>
 8006bdc:	f105 5580 	add.w	r5, r5, #268435456	@ 0x10000000
 8006be0:	42a8      	cmp	r0, r5
 8006be2:	d006      	beq.n	8006bf2 <TIM_OC6_SetConfig+0x6e>
 8006be4:	4d0c      	ldr	r5, [pc, #48]	@ (8006c18 <TIM_OC6_SetConfig+0x94>)
 8006be6:	42a8      	cmp	r0, r5
 8006be8:	d003      	beq.n	8006bf2 <TIM_OC6_SetConfig+0x6e>
 8006bea:	f105 5580 	add.w	r5, r5, #268435456	@ 0x10000000
 8006bee:	42a8      	cmp	r0, r5
 8006bf0:	d104      	bne.n	8006bfc <TIM_OC6_SetConfig+0x78>
 8006bf2:	694d      	ldr	r5, [r1, #20]
 8006bf4:	f424 2480 	bic.w	r4, r4, #262144	@ 0x40000
 8006bf8:	ea44 2485 	orr.w	r4, r4, r5, lsl #10
 8006bfc:	6044      	str	r4, [r0, #4]
 8006bfe:	6502      	str	r2, [r0, #80]	@ 0x50
 8006c00:	684a      	ldr	r2, [r1, #4]
 8006c02:	64c2      	str	r2, [r0, #76]	@ 0x4c
 8006c04:	6203      	str	r3, [r0, #32]
 8006c06:	bd30      	pop	{r4, r5, pc}
 8006c08:	40012c00 	.word	0x40012c00
 8006c0c:	40013400 	.word	0x40013400
 8006c10:	40014000 	.word	0x40014000
 8006c14:	40014400 	.word	0x40014400
 8006c18:	40014800 	.word	0x40014800

08006c1c <HAL_TIM_Base_Start_IT>:
 8006c1c:	f890 303d 	ldrb.w	r3, [r0, #61]	@ 0x3d
 8006c20:	2b01      	cmp	r3, #1
 8006c22:	d145      	bne.n	8006cb0 <HAL_TIM_Base_Start_IT+0x94>
 8006c24:	2302      	movs	r3, #2
 8006c26:	f880 303d 	strb.w	r3, [r0, #61]	@ 0x3d
 8006c2a:	6803      	ldr	r3, [r0, #0]
 8006c2c:	68da      	ldr	r2, [r3, #12]
 8006c2e:	f042 0201 	orr.w	r2, r2, #1
 8006c32:	60da      	str	r2, [r3, #12]
 8006c34:	4a1f      	ldr	r2, [pc, #124]	@ (8006cb4 <HAL_TIM_Base_Start_IT+0x98>)
 8006c36:	4293      	cmp	r3, r2
 8006c38:	d02c      	beq.n	8006c94 <HAL_TIM_Base_Start_IT+0x78>
 8006c3a:	f102 5280 	add.w	r2, r2, #268435456	@ 0x10000000
 8006c3e:	4293      	cmp	r3, r2
 8006c40:	d028      	beq.n	8006c94 <HAL_TIM_Base_Start_IT+0x78>
 8006c42:	f1b3 4f80 	cmp.w	r3, #1073741824	@ 0x40000000
 8006c46:	d025      	beq.n	8006c94 <HAL_TIM_Base_Start_IT+0x78>
 8006c48:	f1b3 4fa0 	cmp.w	r3, #1342177280	@ 0x50000000
 8006c4c:	d022      	beq.n	8006c94 <HAL_TIM_Base_Start_IT+0x78>
 8006c4e:	4a1a      	ldr	r2, [pc, #104]	@ (8006cb8 <HAL_TIM_Base_Start_IT+0x9c>)
 8006c50:	4293      	cmp	r3, r2
 8006c52:	d01f      	beq.n	8006c94 <HAL_TIM_Base_Start_IT+0x78>
 8006c54:	f102 5280 	add.w	r2, r2, #268435456	@ 0x10000000
 8006c58:	4293      	cmp	r3, r2
 8006c5a:	d01b      	beq.n	8006c94 <HAL_TIM_Base_Start_IT+0x78>
 8006c5c:	4a17      	ldr	r2, [pc, #92]	@ (8006cbc <HAL_TIM_Base_Start_IT+0xa0>)
 8006c5e:	4293      	cmp	r3, r2
 8006c60:	d018      	beq.n	8006c94 <HAL_TIM_Base_Start_IT+0x78>
 8006c62:	f102 5280 	add.w	r2, r2, #268435456	@ 0x10000000
 8006c66:	4293      	cmp	r3, r2
 8006c68:	d014      	beq.n	8006c94 <HAL_TIM_Base_Start_IT+0x78>
 8006c6a:	4a15      	ldr	r2, [pc, #84]	@ (8006cc0 <HAL_TIM_Base_Start_IT+0xa4>)
 8006c6c:	4293      	cmp	r3, r2
 8006c6e:	d011      	beq.n	8006c94 <HAL_TIM_Base_Start_IT+0x78>
 8006c70:	f102 5280 	add.w	r2, r2, #268435456	@ 0x10000000
 8006c74:	4293      	cmp	r3, r2
 8006c76:	d00d      	beq.n	8006c94 <HAL_TIM_Base_Start_IT+0x78>
 8006c78:	4a12      	ldr	r2, [pc, #72]	@ (8006cc4 <HAL_TIM_Base_Start_IT+0xa8>)
 8006c7a:	4293      	cmp	r3, r2
 8006c7c:	d00a      	beq.n	8006c94 <HAL_TIM_Base_Start_IT+0x78>
 8006c7e:	f102 5280 	add.w	r2, r2, #268435456	@ 0x10000000
 8006c82:	4293      	cmp	r3, r2
 8006c84:	d006      	beq.n	8006c94 <HAL_TIM_Base_Start_IT+0x78>
 8006c86:	4a10      	ldr	r2, [pc, #64]	@ (8006cc8 <HAL_TIM_Base_Start_IT+0xac>)
 8006c88:	4293      	cmp	r3, r2
 8006c8a:	d003      	beq.n	8006c94 <HAL_TIM_Base_Start_IT+0x78>
 8006c8c:	f102 5280 	add.w	r2, r2, #268435456	@ 0x10000000
 8006c90:	4293      	cmp	r3, r2
 8006c92:	d107      	bne.n	8006ca4 <HAL_TIM_Base_Start_IT+0x88>
 8006c94:	6899      	ldr	r1, [r3, #8]
 8006c96:	4a0d      	ldr	r2, [pc, #52]	@ (8006ccc <HAL_TIM_Base_Start_IT+0xb0>)
 8006c98:	400a      	ands	r2, r1
 8006c9a:	2a06      	cmp	r2, #6
 8006c9c:	d006      	beq.n	8006cac <HAL_TIM_Base_Start_IT+0x90>
 8006c9e:	f5b2 3f80 	cmp.w	r2, #65536	@ 0x10000
 8006ca2:	d003      	beq.n	8006cac <HAL_TIM_Base_Start_IT+0x90>
 8006ca4:	681a      	ldr	r2, [r3, #0]
 8006ca6:	f042 0201 	orr.w	r2, r2, #1
 8006caa:	601a      	str	r2, [r3, #0]
 8006cac:	2000      	movs	r0, #0
 8006cae:	4770      	bx	lr
 8006cb0:	2001      	movs	r0, #1
 8006cb2:	4770      	bx	lr
 8006cb4:	40012c00 	.word	0x40012c00
 8006cb8:	40000400 	.word	0x40000400
 8006cbc:	40000800 	.word	0x40000800
 8006cc0:	40000c00 	.word	0x40000c00
 8006cc4:	40013400 	.word	0x40013400
 8006cc8:	40014000 	.word	0x40014000
 8006ccc:	00010007 	.word	0x00010007

08006cd0 <HAL_TIM_Base_Stop_IT>:
 8006cd0:	6803      	ldr	r3, [r0, #0]
 8006cd2:	68da      	ldr	r2, [r3, #12]
 8006cd4:	f022 0201 	bic.w	r2, r2, #1
 8006cd8:	60da      	str	r2, [r3, #12]
 8006cda:	f241 1211 	movw	r2, #4369	@ 0x1111
 8006cde:	6a19      	ldr	r1, [r3, #32]
 8006ce0:	4211      	tst	r1, r2
 8006ce2:	d108      	bne.n	8006cf6 <HAL_TIM_Base_Stop_IT+0x26>
 8006ce4:	f244 4244 	movw	r2, #17476	@ 0x4444
 8006ce8:	6a19      	ldr	r1, [r3, #32]
 8006cea:	4211      	tst	r1, r2
 8006cec:	bf02      	ittt	eq
 8006cee:	681a      	ldreq	r2, [r3, #0]
 8006cf0:	f022 0201 	biceq.w	r2, r2, #1
 8006cf4:	601a      	streq	r2, [r3, #0]
 8006cf6:	2301      	movs	r3, #1
 8006cf8:	f880 303d 	strb.w	r3, [r0, #61]	@ 0x3d
 8006cfc:	2000      	movs	r0, #0
 8006cfe:	4770      	bx	lr

08006d00 <HAL_TIM_OC_DelayElapsedCallback>:
 8006d00:	4770      	bx	lr

08006d02 <HAL_TIM_IC_CaptureCallback>:
 8006d02:	4770      	bx	lr

08006d04 <HAL_TIM_PWM_PulseFinishedCallback>:
 8006d04:	4770      	bx	lr

08006d06 <HAL_TIM_TriggerCallback>:
 8006d06:	4770      	bx	lr

08006d08 <HAL_TIM_IRQHandler>:
 8006d08:	6803      	ldr	r3, [r0, #0]
 8006d0a:	b570      	push	{r4, r5, r6, lr}
 8006d0c:	68dd      	ldr	r5, [r3, #12]
 8006d0e:	691e      	ldr	r6, [r3, #16]
 8006d10:	4604      	mov	r4, r0
 8006d12:	07b2      	lsls	r2, r6, #30
 8006d14:	d50e      	bpl.n	8006d34 <HAL_TIM_IRQHandler+0x2c>
 8006d16:	07a9      	lsls	r1, r5, #30
 8006d18:	d50c      	bpl.n	8006d34 <HAL_TIM_IRQHandler+0x2c>
 8006d1a:	f06f 0202 	mvn.w	r2, #2
 8006d1e:	611a      	str	r2, [r3, #16]
 8006d20:	2201      	movs	r2, #1
 8006d22:	7702      	strb	r2, [r0, #28]
 8006d24:	699b      	ldr	r3, [r3, #24]
 8006d26:	079a      	lsls	r2, r3, #30
 8006d28:	f000 80a4 	beq.w	8006e74 <HAL_TIM_IRQHandler+0x16c>
 8006d2c:	f7ff ffe9 	bl	8006d02 <HAL_TIM_IC_CaptureCallback>
 8006d30:	2300      	movs	r3, #0
 8006d32:	7723      	strb	r3, [r4, #28]
 8006d34:	0773      	lsls	r3, r6, #29
 8006d36:	d511      	bpl.n	8006d5c <HAL_TIM_IRQHandler+0x54>
 8006d38:	0768      	lsls	r0, r5, #29
 8006d3a:	d50f      	bpl.n	8006d5c <HAL_TIM_IRQHandler+0x54>
 8006d3c:	f06f 0204 	mvn.w	r2, #4
 8006d40:	6823      	ldr	r3, [r4, #0]
 8006d42:	4620      	mov	r0, r4
 8006d44:	611a      	str	r2, [r3, #16]
 8006d46:	2202      	movs	r2, #2
 8006d48:	7722      	strb	r2, [r4, #28]
 8006d4a:	699b      	ldr	r3, [r3, #24]
 8006d4c:	f413 7f40 	tst.w	r3, #768	@ 0x300
 8006d50:	f000 8096 	beq.w	8006e80 <HAL_TIM_IRQHandler+0x178>
 8006d54:	f7ff ffd5 	bl	8006d02 <HAL_TIM_IC_CaptureCallback>
 8006d58:	2300      	movs	r3, #0
 8006d5a:	7723      	strb	r3, [r4, #28]
 8006d5c:	0731      	lsls	r1, r6, #28
 8006d5e:	d510      	bpl.n	8006d82 <HAL_TIM_IRQHandler+0x7a>
 8006d60:	072a      	lsls	r2, r5, #28
 8006d62:	d50e      	bpl.n	8006d82 <HAL_TIM_IRQHandler+0x7a>
 8006d64:	f06f 0208 	mvn.w	r2, #8
 8006d68:	6823      	ldr	r3, [r4, #0]
 8006d6a:	4620      	mov	r0, r4
 8006d6c:	611a      	str	r2, [r3, #16]
 8006d6e:	2204      	movs	r2, #4
 8006d70:	7722      	strb	r2, [r4, #28]
 8006d72:	69db      	ldr	r3, [r3, #28]
 8006d74:	079b      	lsls	r3, r3, #30
 8006d76:	f000 8089 	beq.w	8006e8c <HAL_TIM_IRQHandler+0x184>
 8006d7a:	f7ff ffc2 	bl	8006d02 <HAL_TIM_IC_CaptureCallback>
 8006d7e:	2300      	movs	r3, #0
 8006d80:	7723      	strb	r3, [r4, #28]
 8006d82:	06f1      	lsls	r1, r6, #27
 8006d84:	d510      	bpl.n	8006da8 <HAL_TIM_IRQHandler+0xa0>
 8006d86:	06ea      	lsls	r2, r5, #27
 8006d88:	d50e      	bpl.n	8006da8 <HAL_TIM_IRQHandler+0xa0>
 8006d8a:	f06f 0210 	mvn.w	r2, #16
 8006d8e:	6823      	ldr	r3, [r4, #0]
 8006d90:	4620      	mov	r0, r4
 8006d92:	611a      	str	r2, [r3, #16]
 8006d94:	2208      	movs	r2, #8
 8006d96:	7722      	strb	r2, [r4, #28]
 8006d98:	69db      	ldr	r3, [r3, #28]
 8006d9a:	f413 7f40 	tst.w	r3, #768	@ 0x300
 8006d9e:	d07b      	beq.n	8006e98 <HAL_TIM_IRQHandler+0x190>
 8006da0:	f7ff ffaf 	bl	8006d02 <HAL_TIM_IC_CaptureCallback>
 8006da4:	2300      	movs	r3, #0
 8006da6:	7723      	strb	r3, [r4, #28]
 8006da8:	07f3      	lsls	r3, r6, #31
 8006daa:	d508      	bpl.n	8006dbe <HAL_TIM_IRQHandler+0xb6>
 8006dac:	07e8      	lsls	r0, r5, #31
 8006dae:	d506      	bpl.n	8006dbe <HAL_TIM_IRQHandler+0xb6>
 8006db0:	f06f 0201 	mvn.w	r2, #1
 8006db4:	6823      	ldr	r3, [r4, #0]
 8006db6:	4620      	mov	r0, r4
 8006db8:	611a      	str	r2, [r3, #16]
 8006dba:	f7fb fdfb 	bl	80029b4 <HAL_TIM_PeriodElapsedCallback>
 8006dbe:	f416 5f02 	tst.w	r6, #8320	@ 0x2080
 8006dc2:	d008      	beq.n	8006dd6 <HAL_TIM_IRQHandler+0xce>
 8006dc4:	0629      	lsls	r1, r5, #24
 8006dc6:	d506      	bpl.n	8006dd6 <HAL_TIM_IRQHandler+0xce>
 8006dc8:	f46f 5202 	mvn.w	r2, #8320	@ 0x2080
 8006dcc:	6823      	ldr	r3, [r4, #0]
 8006dce:	4620      	mov	r0, r4
 8006dd0:	611a      	str	r2, [r3, #16]
 8006dd2:	f000 fa56 	bl	8007282 <HAL_TIMEx_BreakCallback>
 8006dd6:	05f2      	lsls	r2, r6, #23
 8006dd8:	d508      	bpl.n	8006dec <HAL_TIM_IRQHandler+0xe4>
 8006dda:	062b      	lsls	r3, r5, #24
 8006ddc:	d506      	bpl.n	8006dec <HAL_TIM_IRQHandler+0xe4>
 8006dde:	f46f 7280 	mvn.w	r2, #256	@ 0x100
 8006de2:	6823      	ldr	r3, [r4, #0]
 8006de4:	4620      	mov	r0, r4
 8006de6:	611a      	str	r2, [r3, #16]
 8006de8:	f000 fa4c 	bl	8007284 <HAL_TIMEx_Break2Callback>
 8006dec:	0670      	lsls	r0, r6, #25
 8006dee:	d508      	bpl.n	8006e02 <HAL_TIM_IRQHandler+0xfa>
 8006df0:	0669      	lsls	r1, r5, #25
 8006df2:	d506      	bpl.n	8006e02 <HAL_TIM_IRQHandler+0xfa>
 8006df4:	f06f 0240 	mvn.w	r2, #64	@ 0x40
 8006df8:	6823      	ldr	r3, [r4, #0]
 8006dfa:	4620      	mov	r0, r4
 8006dfc:	611a      	str	r2, [r3, #16]
 8006dfe:	f7ff ff82 	bl	8006d06 <HAL_TIM_TriggerCallback>
 8006e02:	06b2      	lsls	r2, r6, #26
 8006e04:	d508      	bpl.n	8006e18 <HAL_TIM_IRQHandler+0x110>
 8006e06:	06ab      	lsls	r3, r5, #26
 8006e08:	d506      	bpl.n	8006e18 <HAL_TIM_IRQHandler+0x110>
 8006e0a:	f06f 0220 	mvn.w	r2, #32
 8006e0e:	6823      	ldr	r3, [r4, #0]
 8006e10:	4620      	mov	r0, r4
 8006e12:	611a      	str	r2, [r3, #16]
 8006e14:	f000 fa34 	bl	8007280 <HAL_TIMEx_CommutCallback>
 8006e18:	02f0      	lsls	r0, r6, #11
 8006e1a:	d508      	bpl.n	8006e2e <HAL_TIM_IRQHandler+0x126>
 8006e1c:	02e9      	lsls	r1, r5, #11
 8006e1e:	d506      	bpl.n	8006e2e <HAL_TIM_IRQHandler+0x126>
 8006e20:	f46f 1280 	mvn.w	r2, #1048576	@ 0x100000
 8006e24:	6823      	ldr	r3, [r4, #0]
 8006e26:	4620      	mov	r0, r4
 8006e28:	611a      	str	r2, [r3, #16]
 8006e2a:	f000 fa2c 	bl	8007286 <HAL_TIMEx_EncoderIndexCallback>
 8006e2e:	02b2      	lsls	r2, r6, #10
 8006e30:	d508      	bpl.n	8006e44 <HAL_TIM_IRQHandler+0x13c>
 8006e32:	02ab      	lsls	r3, r5, #10
 8006e34:	d506      	bpl.n	8006e44 <HAL_TIM_IRQHandler+0x13c>
 8006e36:	f46f 1200 	mvn.w	r2, #2097152	@ 0x200000
 8006e3a:	6823      	ldr	r3, [r4, #0]
 8006e3c:	4620      	mov	r0, r4
 8006e3e:	611a      	str	r2, [r3, #16]
 8006e40:	f000 fa22 	bl	8007288 <HAL_TIMEx_DirectionChangeCallback>
 8006e44:	0270      	lsls	r0, r6, #9
 8006e46:	d508      	bpl.n	8006e5a <HAL_TIM_IRQHandler+0x152>
 8006e48:	0269      	lsls	r1, r5, #9
 8006e4a:	d506      	bpl.n	8006e5a <HAL_TIM_IRQHandler+0x152>
 8006e4c:	f46f 0280 	mvn.w	r2, #4194304	@ 0x400000
 8006e50:	6823      	ldr	r3, [r4, #0]
 8006e52:	4620      	mov	r0, r4
 8006e54:	611a      	str	r2, [r3, #16]
 8006e56:	f000 fa18 	bl	800728a <HAL_TIMEx_IndexErrorCallback>
 8006e5a:	0232      	lsls	r2, r6, #8
 8006e5c:	d522      	bpl.n	8006ea4 <HAL_TIM_IRQHandler+0x19c>
 8006e5e:	022b      	lsls	r3, r5, #8
 8006e60:	d520      	bpl.n	8006ea4 <HAL_TIM_IRQHandler+0x19c>
 8006e62:	f46f 0200 	mvn.w	r2, #8388608	@ 0x800000
 8006e66:	6823      	ldr	r3, [r4, #0]
 8006e68:	4620      	mov	r0, r4
 8006e6a:	e8bd 4070 	ldmia.w	sp!, {r4, r5, r6, lr}
 8006e6e:	611a      	str	r2, [r3, #16]
 8006e70:	f000 ba0c 	b.w	800728c <HAL_TIMEx_TransitionErrorCallback>
 8006e74:	f7ff ff44 	bl	8006d00 <HAL_TIM_OC_DelayElapsedCallback>
 8006e78:	4620      	mov	r0, r4
 8006e7a:	f7ff ff43 	bl	8006d04 <HAL_TIM_PWM_PulseFinishedCallback>
 8006e7e:	e757      	b.n	8006d30 <HAL_TIM_IRQHandler+0x28>
 8006e80:	f7ff ff3e 	bl	8006d00 <HAL_TIM_OC_DelayElapsedCallback>
 8006e84:	4620      	mov	r0, r4
 8006e86:	f7ff ff3d 	bl	8006d04 <HAL_TIM_PWM_PulseFinishedCallback>
 8006e8a:	e765      	b.n	8006d58 <HAL_TIM_IRQHandler+0x50>
 8006e8c:	f7ff ff38 	bl	8006d00 <HAL_TIM_OC_DelayElapsedCallback>
 8006e90:	4620      	mov	r0, r4
 8006e92:	f7ff ff37 	bl	8006d04 <HAL_TIM_PWM_PulseFinishedCallback>
 8006e96:	e772      	b.n	8006d7e <HAL_TIM_IRQHandler+0x76>
 8006e98:	f7ff ff32 	bl	8006d00 <HAL_TIM_OC_DelayElapsedCallback>
 8006e9c:	4620      	mov	r0, r4
 8006e9e:	f7ff ff31 	bl	8006d04 <HAL_TIM_PWM_PulseFinishedCallback>
 8006ea2:	e77f      	b.n	8006da4 <HAL_TIM_IRQHandler+0x9c>
 8006ea4:	bd70      	pop	{r4, r5, r6, pc}
	...

08006ea8 <TIM_Base_SetConfig>:
 8006ea8:	4a53      	ldr	r2, [pc, #332]	@ (8006ff8 <TIM_Base_SetConfig+0x150>)
 8006eaa:	6803      	ldr	r3, [r0, #0]
 8006eac:	4290      	cmp	r0, r2
 8006eae:	d025      	beq.n	8006efc <TIM_Base_SetConfig+0x54>
 8006eb0:	f102 5280 	add.w	r2, r2, #268435456	@ 0x10000000
 8006eb4:	4290      	cmp	r0, r2
 8006eb6:	d021      	beq.n	8006efc <TIM_Base_SetConfig+0x54>
 8006eb8:	f1b0 4f80 	cmp.w	r0, #1073741824	@ 0x40000000
 8006ebc:	d01e      	beq.n	8006efc <TIM_Base_SetConfig+0x54>
 8006ebe:	f1b0 4fa0 	cmp.w	r0, #1342177280	@ 0x50000000
 8006ec2:	d01b      	beq.n	8006efc <TIM_Base_SetConfig+0x54>
 8006ec4:	4a4d      	ldr	r2, [pc, #308]	@ (8006ffc <TIM_Base_SetConfig+0x154>)
 8006ec6:	4290      	cmp	r0, r2
 8006ec8:	d018      	beq.n	8006efc <TIM_Base_SetConfig+0x54>
 8006eca:	f102 5280 	add.w	r2, r2, #268435456	@ 0x10000000
 8006ece:	4290      	cmp	r0, r2
 8006ed0:	d014      	beq.n	8006efc <TIM_Base_SetConfig+0x54>
 8006ed2:	4a4b      	ldr	r2, [pc, #300]	@ (8007000 <TIM_Base_SetConfig+0x158>)
 8006ed4:	4290      	cmp	r0, r2
 8006ed6:	d011      	beq.n	8006efc <TIM_Base_SetConfig+0x54>
 8006ed8:	f102 5280 	add.w	r2, r2, #268435456	@ 0x10000000
 8006edc:	4290      	cmp	r0, r2
 8006ede:	d00d      	beq.n	8006efc <TIM_Base_SetConfig+0x54>
 8006ee0:	4a48      	ldr	r2, [pc, #288]	@ (8007004 <TIM_Base_SetConfig+0x15c>)
 8006ee2:	4290      	cmp	r0, r2
 8006ee4:	d00a      	beq.n	8006efc <TIM_Base_SetConfig+0x54>
 8006ee6:	f102 5280 	add.w	r2, r2, #268435456	@ 0x10000000
 8006eea:	4290      	cmp	r0, r2
 8006eec:	d006      	beq.n	8006efc <TIM_Base_SetConfig+0x54>
 8006eee:	4a46      	ldr	r2, [pc, #280]	@ (8007008 <TIM_Base_SetConfig+0x160>)
 8006ef0:	4290      	cmp	r0, r2
 8006ef2:	d003      	beq.n	8006efc <TIM_Base_SetConfig+0x54>
 8006ef4:	f102 5280 	add.w	r2, r2, #268435456	@ 0x10000000
 8006ef8:	4290      	cmp	r0, r2
 8006efa:	d12c      	bne.n	8006f56 <TIM_Base_SetConfig+0xae>
 8006efc:	684a      	ldr	r2, [r1, #4]
 8006efe:	f023 0370 	bic.w	r3, r3, #112	@ 0x70
 8006f02:	4313      	orrs	r3, r2
 8006f04:	4a3c      	ldr	r2, [pc, #240]	@ (8006ff8 <TIM_Base_SetConfig+0x150>)
 8006f06:	4290      	cmp	r0, r2
 8006f08:	d03a      	beq.n	8006f80 <TIM_Base_SetConfig+0xd8>
 8006f0a:	f102 5280 	add.w	r2, r2, #268435456	@ 0x10000000
 8006f0e:	4290      	cmp	r0, r2
 8006f10:	d036      	beq.n	8006f80 <TIM_Base_SetConfig+0xd8>
 8006f12:	f1b0 4f80 	cmp.w	r0, #1073741824	@ 0x40000000
 8006f16:	d033      	beq.n	8006f80 <TIM_Base_SetConfig+0xd8>
 8006f18:	f1b0 4fa0 	cmp.w	r0, #1342177280	@ 0x50000000
 8006f1c:	d030      	beq.n	8006f80 <TIM_Base_SetConfig+0xd8>
 8006f1e:	4a37      	ldr	r2, [pc, #220]	@ (8006ffc <TIM_Base_SetConfig+0x154>)
 8006f20:	4290      	cmp	r0, r2
 8006f22:	d02d      	beq.n	8006f80 <TIM_Base_SetConfig+0xd8>
 8006f24:	f102 5280 	add.w	r2, r2, #268435456	@ 0x10000000
 8006f28:	4290      	cmp	r0, r2
 8006f2a:	d029      	beq.n	8006f80 <TIM_Base_SetConfig+0xd8>
 8006f2c:	4a34      	ldr	r2, [pc, #208]	@ (8007000 <TIM_Base_SetConfig+0x158>)
 8006f2e:	4290      	cmp	r0, r2
 8006f30:	d026      	beq.n	8006f80 <TIM_Base_SetConfig+0xd8>
 8006f32:	f102 5280 	add.w	r2, r2, #268435456	@ 0x10000000
 8006f36:	4290      	cmp	r0, r2
 8006f38:	d022      	beq.n	8006f80 <TIM_Base_SetConfig+0xd8>
 8006f3a:	4a32      	ldr	r2, [pc, #200]	@ (8007004 <TIM_Base_SetConfig+0x15c>)
 8006f3c:	4290      	cmp	r0, r2
 8006f3e:	d01f      	beq.n	8006f80 <TIM_Base_SetConfig+0xd8>
 8006f40:	f102 5280 	add.w	r2, r2, #268435456	@ 0x10000000
 8006f44:	4290      	cmp	r0, r2
 8006f46:	d01b      	beq.n	8006f80 <TIM_Base_SetConfig+0xd8>
 8006f48:	4a2f      	ldr	r2, [pc, #188]	@ (8007008 <TIM_Base_SetConfig+0x160>)
 8006f4a:	4290      	cmp	r0, r2
 8006f4c:	d018      	beq.n	8006f80 <TIM_Base_SetConfig+0xd8>
 8006f4e:	f102 5280 	add.w	r2, r2, #268435456	@ 0x10000000
 8006f52:	4290      	cmp	r0, r2
 8006f54:	d014      	beq.n	8006f80 <TIM_Base_SetConfig+0xd8>
 8006f56:	4a2d      	ldr	r2, [pc, #180]	@ (800700c <TIM_Base_SetConfig+0x164>)
 8006f58:	4290      	cmp	r0, r2
 8006f5a:	d011      	beq.n	8006f80 <TIM_Base_SetConfig+0xd8>
 8006f5c:	f102 5280 	add.w	r2, r2, #268435456	@ 0x10000000
 8006f60:	4290      	cmp	r0, r2
 8006f62:	d00d      	beq.n	8006f80 <TIM_Base_SetConfig+0xd8>
 8006f64:	4a2a      	ldr	r2, [pc, #168]	@ (8007010 <TIM_Base_SetConfig+0x168>)
 8006f66:	4290      	cmp	r0, r2
 8006f68:	d00a      	beq.n	8006f80 <TIM_Base_SetConfig+0xd8>
 8006f6a:	f102 5280 	add.w	r2, r2, #268435456	@ 0x10000000
 8006f6e:	4290      	cmp	r0, r2
 8006f70:	d006      	beq.n	8006f80 <TIM_Base_SetConfig+0xd8>
 8006f72:	4a28      	ldr	r2, [pc, #160]	@ (8007014 <TIM_Base_SetConfig+0x16c>)
 8006f74:	4290      	cmp	r0, r2
 8006f76:	d003      	beq.n	8006f80 <TIM_Base_SetConfig+0xd8>
 8006f78:	f102 5280 	add.w	r2, r2, #268435456	@ 0x10000000
 8006f7c:	4290      	cmp	r0, r2
 8006f7e:	d103      	bne.n	8006f88 <TIM_Base_SetConfig+0xe0>
 8006f80:	68ca      	ldr	r2, [r1, #12]
 8006f82:	f423 7340 	bic.w	r3, r3, #768	@ 0x300
 8006f86:	4313      	orrs	r3, r2
 8006f88:	694a      	ldr	r2, [r1, #20]
 8006f8a:	f023 0380 	bic.w	r3, r3, #128	@ 0x80
 8006f8e:	4313      	orrs	r3, r2
 8006f90:	6003      	str	r3, [r0, #0]
 8006f92:	688b      	ldr	r3, [r1, #8]
 8006f94:	62c3      	str	r3, [r0, #44]	@ 0x2c
 8006f96:	680b      	ldr	r3, [r1, #0]
 8006f98:	6283      	str	r3, [r0, #40]	@ 0x28
 8006f9a:	4b17      	ldr	r3, [pc, #92]	@ (8006ff8 <TIM_Base_SetConfig+0x150>)
 8006f9c:	4298      	cmp	r0, r3
 8006f9e:	d01f      	beq.n	8006fe0 <TIM_Base_SetConfig+0x138>
 8006fa0:	f103 5380 	add.w	r3, r3, #268435456	@ 0x10000000
 8006fa4:	4298      	cmp	r0, r3
 8006fa6:	d01b      	beq.n	8006fe0 <TIM_Base_SetConfig+0x138>
 8006fa8:	4b17      	ldr	r3, [pc, #92]	@ (8007008 <TIM_Base_SetConfig+0x160>)
 8006faa:	4298      	cmp	r0, r3
 8006fac:	d018      	beq.n	8006fe0 <TIM_Base_SetConfig+0x138>
 8006fae:	f103 5380 	add.w	r3, r3, #268435456	@ 0x10000000
 8006fb2:	4298      	cmp	r0, r3
 8006fb4:	d014      	beq.n	8006fe0 <TIM_Base_SetConfig+0x138>
 8006fb6:	4b15      	ldr	r3, [pc, #84]	@ (800700c <TIM_Base_SetConfig+0x164>)
 8006fb8:	4298      	cmp	r0, r3
 8006fba:	d011      	beq.n	8006fe0 <TIM_Base_SetConfig+0x138>
 8006fbc:	f103 5380 	add.w	r3, r3, #268435456	@ 0x10000000
 8006fc0:	4298      	cmp	r0, r3
 8006fc2:	d00d      	beq.n	8006fe0 <TIM_Base_SetConfig+0x138>
 8006fc4:	4b12      	ldr	r3, [pc, #72]	@ (8007010 <TIM_Base_SetConfig+0x168>)
 8006fc6:	4298      	cmp	r0, r3
 8006fc8:	d00a      	beq.n	8006fe0 <TIM_Base_SetConfig+0x138>
 8006fca:	f103 5380 	add.w	r3, r3, #268435456	@ 0x10000000
 8006fce:	4298      	cmp	r0, r3
 8006fd0:	d006      	beq.n	8006fe0 <TIM_Base_SetConfig+0x138>
 8006fd2:	4b10      	ldr	r3, [pc, #64]	@ (8007014 <TIM_Base_SetConfig+0x16c>)
 8006fd4:	4298      	cmp	r0, r3
 8006fd6:	d003      	beq.n	8006fe0 <TIM_Base_SetConfig+0x138>
 8006fd8:	f103 5380 	add.w	r3, r3, #268435456	@ 0x10000000
 8006fdc:	4298      	cmp	r0, r3
 8006fde:	d101      	bne.n	8006fe4 <TIM_Base_SetConfig+0x13c>
 8006fe0:	690b      	ldr	r3, [r1, #16]
 8006fe2:	6303      	str	r3, [r0, #48]	@ 0x30
 8006fe4:	2301      	movs	r3, #1
 8006fe6:	6143      	str	r3, [r0, #20]
 8006fe8:	6903      	ldr	r3, [r0, #16]
 8006fea:	07db      	lsls	r3, r3, #31
 8006fec:	bf42      	ittt	mi
 8006fee:	6903      	ldrmi	r3, [r0, #16]
 8006ff0:	f023 0301 	bicmi.w	r3, r3, #1
 8006ff4:	6103      	strmi	r3, [r0, #16]
 8006ff6:	4770      	bx	lr
 8006ff8:	40012c00 	.word	0x40012c00
 8006ffc:	40000400 	.word	0x40000400
 8007000:	40000800 	.word	0x40000800
 8007004:	40000c00 	.word	0x40000c00
 8007008:	40013400 	.word	0x40013400
 800700c:	40014000 	.word	0x40014000
 8007010:	40014400 	.word	0x40014400
 8007014:	40014800 	.word	0x40014800

08007018 <HAL_TIM_OC_Init>:
 8007018:	b510      	push	{r4, lr}
 800701a:	4604      	mov	r4, r0
 800701c:	b350      	cbz	r0, 8007074 <HAL_TIM_OC_Init+0x5c>
 800701e:	f890 303d 	ldrb.w	r3, [r0, #61]	@ 0x3d
 8007022:	f003 02ff 	and.w	r2, r3, #255	@ 0xff
 8007026:	b91b      	cbnz	r3, 8007030 <HAL_TIM_OC_Init+0x18>
 8007028:	f880 203c 	strb.w	r2, [r0, #60]	@ 0x3c
 800702c:	f7fb fbd8 	bl	80027e0 <HAL_TIM_OC_MspInit>
 8007030:	2302      	movs	r3, #2
 8007032:	6820      	ldr	r0, [r4, #0]
 8007034:	f884 303d 	strb.w	r3, [r4, #61]	@ 0x3d
 8007038:	1d21      	adds	r1, r4, #4
 800703a:	f7ff ff35 	bl	8006ea8 <TIM_Base_SetConfig>
 800703e:	2301      	movs	r3, #1
 8007040:	2000      	movs	r0, #0
 8007042:	f884 3048 	strb.w	r3, [r4, #72]	@ 0x48
 8007046:	f884 303e 	strb.w	r3, [r4, #62]	@ 0x3e
 800704a:	f884 303f 	strb.w	r3, [r4, #63]	@ 0x3f
 800704e:	f884 3040 	strb.w	r3, [r4, #64]	@ 0x40
 8007052:	f884 3041 	strb.w	r3, [r4, #65]	@ 0x41
 8007056:	f884 3042 	strb.w	r3, [r4, #66]	@ 0x42
 800705a:	f884 3043 	strb.w	r3, [r4, #67]	@ 0x43
 800705e:	f884 3044 	strb.w	r3, [r4, #68]	@ 0x44
 8007062:	f884 3045 	strb.w	r3, [r4, #69]	@ 0x45
 8007066:	f884 3046 	strb.w	r3, [r4, #70]	@ 0x46
 800706a:	f884 3047 	strb.w	r3, [r4, #71]	@ 0x47
 800706e:	f884 303d 	strb.w	r3, [r4, #61]	@ 0x3d
 8007072:	bd10      	pop	{r4, pc}
 8007074:	2001      	movs	r0, #1
 8007076:	e7fc      	b.n	8007072 <HAL_TIM_OC_Init+0x5a>

08007078 <TIM_OC2_SetConfig>:
 8007078:	6a03      	ldr	r3, [r0, #32]
 800707a:	6a02      	ldr	r2, [r0, #32]
 800707c:	b570      	push	{r4, r5, r6, lr}
 800707e:	f022 0210 	bic.w	r2, r2, #16
 8007082:	6202      	str	r2, [r0, #32]
 8007084:	6844      	ldr	r4, [r0, #4]
 8007086:	6982      	ldr	r2, [r0, #24]
 8007088:	680d      	ldr	r5, [r1, #0]
 800708a:	f022 7280 	bic.w	r2, r2, #16777216	@ 0x1000000
 800708e:	f422 42e6 	bic.w	r2, r2, #29440	@ 0x7300
 8007092:	ea42 2205 	orr.w	r2, r2, r5, lsl #8
 8007096:	688d      	ldr	r5, [r1, #8]
 8007098:	f023 0320 	bic.w	r3, r3, #32
 800709c:	ea43 1305 	orr.w	r3, r3, r5, lsl #4
 80070a0:	4d22      	ldr	r5, [pc, #136]	@ (800712c <TIM_OC2_SetConfig+0xb4>)
 80070a2:	42a8      	cmp	r0, r5
 80070a4:	d00a      	beq.n	80070bc <TIM_OC2_SetConfig+0x44>
 80070a6:	f105 5580 	add.w	r5, r5, #268435456	@ 0x10000000
 80070aa:	42a8      	cmp	r0, r5
 80070ac:	d006      	beq.n	80070bc <TIM_OC2_SetConfig+0x44>
 80070ae:	4d20      	ldr	r5, [pc, #128]	@ (8007130 <TIM_OC2_SetConfig+0xb8>)
 80070b0:	42a8      	cmp	r0, r5
 80070b2:	d003      	beq.n	80070bc <TIM_OC2_SetConfig+0x44>
 80070b4:	f105 5580 	add.w	r5, r5, #268435456	@ 0x10000000
 80070b8:	42a8      	cmp	r0, r5
 80070ba:	d114      	bne.n	80070e6 <TIM_OC2_SetConfig+0x6e>
 80070bc:	68cd      	ldr	r5, [r1, #12]
 80070be:	f023 0380 	bic.w	r3, r3, #128	@ 0x80
 80070c2:	ea43 1305 	orr.w	r3, r3, r5, lsl #4
 80070c6:	4d19      	ldr	r5, [pc, #100]	@ (800712c <TIM_OC2_SetConfig+0xb4>)
 80070c8:	f023 0340 	bic.w	r3, r3, #64	@ 0x40
 80070cc:	42a8      	cmp	r0, r5
 80070ce:	d01f      	beq.n	8007110 <TIM_OC2_SetConfig+0x98>
 80070d0:	f105 5580 	add.w	r5, r5, #268435456	@ 0x10000000
 80070d4:	42a8      	cmp	r0, r5
 80070d6:	d01b      	beq.n	8007110 <TIM_OC2_SetConfig+0x98>
 80070d8:	4d15      	ldr	r5, [pc, #84]	@ (8007130 <TIM_OC2_SetConfig+0xb8>)
 80070da:	42a8      	cmp	r0, r5
 80070dc:	d018      	beq.n	8007110 <TIM_OC2_SetConfig+0x98>
 80070de:	f105 5580 	add.w	r5, r5, #268435456	@ 0x10000000
 80070e2:	42a8      	cmp	r0, r5
 80070e4:	d014      	beq.n	8007110 <TIM_OC2_SetConfig+0x98>
 80070e6:	4d13      	ldr	r5, [pc, #76]	@ (8007134 <TIM_OC2_SetConfig+0xbc>)
 80070e8:	42a8      	cmp	r0, r5
 80070ea:	d011      	beq.n	8007110 <TIM_OC2_SetConfig+0x98>
 80070ec:	f105 5580 	add.w	r5, r5, #268435456	@ 0x10000000
 80070f0:	42a8      	cmp	r0, r5
 80070f2:	d00d      	beq.n	8007110 <TIM_OC2_SetConfig+0x98>
 80070f4:	4d10      	ldr	r5, [pc, #64]	@ (8007138 <TIM_OC2_SetConfig+0xc0>)
 80070f6:	42a8      	cmp	r0, r5
 80070f8:	d00a      	beq.n	8007110 <TIM_OC2_SetConfig+0x98>
 80070fa:	f105 5580 	add.w	r5, r5, #268435456	@ 0x10000000
 80070fe:	42a8      	cmp	r0, r5
 8007100:	d006      	beq.n	8007110 <TIM_OC2_SetConfig+0x98>
 8007102:	4d0e      	ldr	r5, [pc, #56]	@ (800713c <TIM_OC2_SetConfig+0xc4>)
 8007104:	42a8      	cmp	r0, r5
 8007106:	d003      	beq.n	8007110 <TIM_OC2_SetConfig+0x98>
 8007108:	f105 5580 	add.w	r5, r5, #268435456	@ 0x10000000
 800710c:	42a8      	cmp	r0, r5
 800710e:	d106      	bne.n	800711e <TIM_OC2_SetConfig+0xa6>
 8007110:	f424 6540 	bic.w	r5, r4, #3072	@ 0xc00
 8007114:	e9d1 4605 	ldrd	r4, r6, [r1, #20]
 8007118:	4334      	orrs	r4, r6
 800711a:	ea45 0484 	orr.w	r4, r5, r4, lsl #2
 800711e:	6044      	str	r4, [r0, #4]
 8007120:	6182      	str	r2, [r0, #24]
 8007122:	684a      	ldr	r2, [r1, #4]
 8007124:	6382      	str	r2, [r0, #56]	@ 0x38
 8007126:	6203      	str	r3, [r0, #32]
 8007128:	bd70      	pop	{r4, r5, r6, pc}
 800712a:	bf00      	nop
 800712c:	40012c00 	.word	0x40012c00
 8007130:	40013400 	.word	0x40013400
 8007134:	40014000 	.word	0x40014000
 8007138:	40014400 	.word	0x40014400
 800713c:	40014800 	.word	0x40014800

08007140 <HAL_TIM_OC_ConfigChannel>:
 8007140:	b510      	push	{r4, lr}
 8007142:	f890 303c 	ldrb.w	r3, [r0, #60]	@ 0x3c
 8007146:	4604      	mov	r4, r0
 8007148:	2b01      	cmp	r3, #1
 800714a:	d029      	beq.n	80071a0 <HAL_TIM_OC_ConfigChannel+0x60>
 800714c:	2a0c      	cmp	r2, #12
 800714e:	d01f      	beq.n	8007190 <HAL_TIM_OC_ConfigChannel+0x50>
 8007150:	d809      	bhi.n	8007166 <HAL_TIM_OC_ConfigChannel+0x26>
 8007152:	2a04      	cmp	r2, #4
 8007154:	d014      	beq.n	8007180 <HAL_TIM_OC_ConfigChannel+0x40>
 8007156:	2a08      	cmp	r2, #8
 8007158:	d016      	beq.n	8007188 <HAL_TIM_OC_ConfigChannel+0x48>
 800715a:	b162      	cbz	r2, 8007176 <HAL_TIM_OC_ConfigChannel+0x36>
 800715c:	2001      	movs	r0, #1
 800715e:	2300      	movs	r3, #0
 8007160:	f884 303c 	strb.w	r3, [r4, #60]	@ 0x3c
 8007164:	bd10      	pop	{r4, pc}
 8007166:	2a10      	cmp	r2, #16
 8007168:	d016      	beq.n	8007198 <HAL_TIM_OC_ConfigChannel+0x58>
 800716a:	2a14      	cmp	r2, #20
 800716c:	d1f6      	bne.n	800715c <HAL_TIM_OC_ConfigChannel+0x1c>
 800716e:	6800      	ldr	r0, [r0, #0]
 8007170:	f7ff fd08 	bl	8006b84 <TIM_OC6_SetConfig>
 8007174:	e002      	b.n	800717c <HAL_TIM_OC_ConfigChannel+0x3c>
 8007176:	6800      	ldr	r0, [r0, #0]
 8007178:	f7ff fb7e 	bl	8006878 <TIM_OC1_SetConfig>
 800717c:	2000      	movs	r0, #0
 800717e:	e7ee      	b.n	800715e <HAL_TIM_OC_ConfigChannel+0x1e>
 8007180:	6800      	ldr	r0, [r0, #0]
 8007182:	f7ff ff79 	bl	8007078 <TIM_OC2_SetConfig>
 8007186:	e7f9      	b.n	800717c <HAL_TIM_OC_ConfigChannel+0x3c>
 8007188:	6800      	ldr	r0, [r0, #0]
 800718a:	f7ff fbe9 	bl	8006960 <TIM_OC3_SetConfig>
 800718e:	e7f5      	b.n	800717c <HAL_TIM_OC_ConfigChannel+0x3c>
 8007190:	6800      	ldr	r0, [r0, #0]
 8007192:	f7ff fc47 	bl	8006a24 <TIM_OC4_SetConfig>
 8007196:	e7f1      	b.n	800717c <HAL_TIM_OC_ConfigChannel+0x3c>
 8007198:	6800      	ldr	r0, [r0, #0]
 800719a:	f7ff fca7 	bl	8006aec <TIM_OC5_SetConfig>
 800719e:	e7ed      	b.n	800717c <HAL_TIM_OC_ConfigChannel+0x3c>
 80071a0:	2002      	movs	r0, #2
 80071a2:	e7df      	b.n	8007164 <HAL_TIM_OC_ConfigChannel+0x24>

080071a4 <HAL_TIMEx_MasterConfigSynchronization>:
 80071a4:	b530      	push	{r4, r5, lr}
 80071a6:	f890 303c 	ldrb.w	r3, [r0, #60]	@ 0x3c
 80071aa:	4604      	mov	r4, r0
 80071ac:	2b01      	cmp	r3, #1
 80071ae:	f04f 0002 	mov.w	r0, #2
 80071b2:	d058      	beq.n	8007266 <HAL_TIMEx_MasterConfigSynchronization+0xc2>
 80071b4:	6823      	ldr	r3, [r4, #0]
 80071b6:	4d2c      	ldr	r5, [pc, #176]	@ (8007268 <HAL_TIMEx_MasterConfigSynchronization+0xc4>)
 80071b8:	f884 003d 	strb.w	r0, [r4, #61]	@ 0x3d
 80071bc:	42ab      	cmp	r3, r5
 80071be:	685a      	ldr	r2, [r3, #4]
 80071c0:	6898      	ldr	r0, [r3, #8]
 80071c2:	d00a      	beq.n	80071da <HAL_TIMEx_MasterConfigSynchronization+0x36>
 80071c4:	f105 5580 	add.w	r5, r5, #268435456	@ 0x10000000
 80071c8:	42ab      	cmp	r3, r5
 80071ca:	d006      	beq.n	80071da <HAL_TIMEx_MasterConfigSynchronization+0x36>
 80071cc:	4d27      	ldr	r5, [pc, #156]	@ (800726c <HAL_TIMEx_MasterConfigSynchronization+0xc8>)
 80071ce:	42ab      	cmp	r3, r5
 80071d0:	d003      	beq.n	80071da <HAL_TIMEx_MasterConfigSynchronization+0x36>
 80071d2:	f105 5580 	add.w	r5, r5, #268435456	@ 0x10000000
 80071d6:	42ab      	cmp	r3, r5
 80071d8:	d103      	bne.n	80071e2 <HAL_TIMEx_MasterConfigSynchronization+0x3e>
 80071da:	684d      	ldr	r5, [r1, #4]
 80071dc:	f422 0270 	bic.w	r2, r2, #15728640	@ 0xf00000
 80071e0:	432a      	orrs	r2, r5
 80071e2:	680d      	ldr	r5, [r1, #0]
 80071e4:	f022 7200 	bic.w	r2, r2, #33554432	@ 0x2000000
 80071e8:	f022 0270 	bic.w	r2, r2, #112	@ 0x70
 80071ec:	432a      	orrs	r2, r5
 80071ee:	605a      	str	r2, [r3, #4]
 80071f0:	4a1d      	ldr	r2, [pc, #116]	@ (8007268 <HAL_TIMEx_MasterConfigSynchronization+0xc4>)
 80071f2:	4293      	cmp	r3, r2
 80071f4:	d02c      	beq.n	8007250 <HAL_TIMEx_MasterConfigSynchronization+0xac>
 80071f6:	f102 5280 	add.w	r2, r2, #268435456	@ 0x10000000
 80071fa:	4293      	cmp	r3, r2
 80071fc:	d028      	beq.n	8007250 <HAL_TIMEx_MasterConfigSynchronization+0xac>
 80071fe:	f1b3 4f80 	cmp.w	r3, #1073741824	@ 0x40000000
 8007202:	d025      	beq.n	8007250 <HAL_TIMEx_MasterConfigSynchronization+0xac>
 8007204:	f1b3 4fa0 	cmp.w	r3, #1342177280	@ 0x50000000
 8007208:	d022      	beq.n	8007250 <HAL_TIMEx_MasterConfigSynchronization+0xac>
 800720a:	4a19      	ldr	r2, [pc, #100]	@ (8007270 <HAL_TIMEx_MasterConfigSynchronization+0xcc>)
 800720c:	4293      	cmp	r3, r2
 800720e:	d01f      	beq.n	8007250 <HAL_TIMEx_MasterConfigSynchronization+0xac>
 8007210:	f102 5280 	add.w	r2, r2, #268435456	@ 0x10000000
 8007214:	4293      	cmp	r3, r2
 8007216:	d01b      	beq.n	8007250 <HAL_TIMEx_MasterConfigSynchronization+0xac>
 8007218:	4a16      	ldr	r2, [pc, #88]	@ (8007274 <HAL_TIMEx_MasterConfigSynchronization+0xd0>)
 800721a:	4293      	cmp	r3, r2
 800721c:	d018      	beq.n	8007250 <HAL_TIMEx_MasterConfigSynchronization+0xac>
 800721e:	f102 5280 	add.w	r2, r2, #268435456	@ 0x10000000
 8007222:	4293      	cmp	r3, r2
 8007224:	d014      	beq.n	8007250 <HAL_TIMEx_MasterConfigSynchronization+0xac>
 8007226:	4a14      	ldr	r2, [pc, #80]	@ (8007278 <HAL_TIMEx_MasterConfigSynchronization+0xd4>)
 8007228:	4293      	cmp	r3, r2
 800722a:	d011      	beq.n	8007250 <HAL_TIMEx_MasterConfigSynchronization+0xac>
 800722c:	f102 5280 	add.w	r2, r2, #268435456	@ 0x10000000
 8007230:	4293      	cmp	r3, r2
 8007232:	d00d      	beq.n	8007250 <HAL_TIMEx_MasterConfigSynchronization+0xac>
 8007234:	4a0d      	ldr	r2, [pc, #52]	@ (800726c <HAL_TIMEx_MasterConfigSynchronization+0xc8>)
 8007236:	4293      	cmp	r3, r2
 8007238:	d00a      	beq.n	8007250 <HAL_TIMEx_MasterConfigSynchronization+0xac>
 800723a:	f102 5280 	add.w	r2, r2, #268435456	@ 0x10000000
 800723e:	4293      	cmp	r3, r2
 8007240:	d006      	beq.n	8007250 <HAL_TIMEx_MasterConfigSynchronization+0xac>
 8007242:	4a0e      	ldr	r2, [pc, #56]	@ (800727c <HAL_TIMEx_MasterConfigSynchronization+0xd8>)
 8007244:	4293      	cmp	r3, r2
 8007246:	d003      	beq.n	8007250 <HAL_TIMEx_MasterConfigSynchronization+0xac>
 8007248:	f102 5280 	add.w	r2, r2, #268435456	@ 0x10000000
 800724c:	4293      	cmp	r3, r2
 800724e:	d104      	bne.n	800725a <HAL_TIMEx_MasterConfigSynchronization+0xb6>
 8007250:	6889      	ldr	r1, [r1, #8]
 8007252:	f020 0280 	bic.w	r2, r0, #128	@ 0x80
 8007256:	430a      	orrs	r2, r1
 8007258:	609a      	str	r2, [r3, #8]
 800725a:	2301      	movs	r3, #1
 800725c:	2000      	movs	r0, #0
 800725e:	f884 303d 	strb.w	r3, [r4, #61]	@ 0x3d
 8007262:	f884 003c 	strb.w	r0, [r4, #60]	@ 0x3c
 8007266:	bd30      	pop	{r4, r5, pc}
 8007268:	40012c00 	.word	0x40012c00
 800726c:	40013400 	.word	0x40013400
 8007270:	40000400 	.word	0x40000400
 8007274:	40000800 	.word	0x40000800
 8007278:	40000c00 	.word	0x40000c00
 800727c:	40014000 	.word	0x40014000

08007280 <HAL_TIMEx_CommutCallback>:
 8007280:	4770      	bx	lr

08007282 <HAL_TIMEx_BreakCallback>:
 8007282:	4770      	bx	lr

08007284 <HAL_TIMEx_Break2Callback>:
 8007284:	4770      	bx	lr

08007286 <HAL_TIMEx_EncoderIndexCallback>:
 8007286:	4770      	bx	lr

08007288 <HAL_TIMEx_DirectionChangeCallback>:
 8007288:	4770      	bx	lr

0800728a <HAL_TIMEx_IndexErrorCallback>:
 800728a:	4770      	bx	lr

0800728c <HAL_TIMEx_TransitionErrorCallback>:
 800728c:	4770      	bx	lr

0800728e <UART_EndTxTransfer>:
 800728e:	6802      	ldr	r2, [r0, #0]
 8007290:	e852 3f00 	ldrex	r3, [r2]
 8007294:	f023 03c0 	bic.w	r3, r3, #192	@ 0xc0
 8007298:	e842 3100 	strex	r1, r3, [r2]
 800729c:	6802      	ldr	r2, [r0, #0]
 800729e:	2900      	cmp	r1, #0
 80072a0:	d1f5      	bne.n	800728e <UART_EndTxTransfer>
 80072a2:	f102 0308 	add.w	r3, r2, #8
 80072a6:	e853 3f00 	ldrex	r3, [r3]
 80072aa:	f423 0300 	bic.w	r3, r3, #8388608	@ 0x800000
 80072ae:	f102 0c08 	add.w	ip, r2, #8
 80072b2:	e84c 3100 	strex	r1, r3, [ip]
 80072b6:	2900      	cmp	r1, #0
 80072b8:	d1f3      	bne.n	80072a2 <UART_EndTxTransfer+0x14>
 80072ba:	2320      	movs	r3, #32
 80072bc:	f8c0 3088 	str.w	r3, [r0, #136]	@ 0x88
 80072c0:	4770      	bx	lr
	...

080072c4 <UART_EndRxTransfer>:
 80072c4:	b510      	push	{r4, lr}
 80072c6:	6802      	ldr	r2, [r0, #0]
 80072c8:	e852 3f00 	ldrex	r3, [r2]
 80072cc:	f423 7390 	bic.w	r3, r3, #288	@ 0x120
 80072d0:	e842 3100 	strex	r1, r3, [r2]
 80072d4:	6802      	ldr	r2, [r0, #0]
 80072d6:	2900      	cmp	r1, #0
 80072d8:	d1f5      	bne.n	80072c6 <UART_EndRxTransfer+0x2>
 80072da:	4c0f      	ldr	r4, [pc, #60]	@ (8007318 <UART_EndRxTransfer+0x54>)
 80072dc:	f102 0308 	add.w	r3, r2, #8
 80072e0:	e853 3f00 	ldrex	r3, [r3]
 80072e4:	4023      	ands	r3, r4
 80072e6:	f102 0c08 	add.w	ip, r2, #8
 80072ea:	e84c 3100 	strex	r1, r3, [ip]
 80072ee:	2900      	cmp	r1, #0
 80072f0:	d1f4      	bne.n	80072dc <UART_EndRxTransfer+0x18>
 80072f2:	6ec3      	ldr	r3, [r0, #108]	@ 0x6c
 80072f4:	2b01      	cmp	r3, #1
 80072f6:	d107      	bne.n	8007308 <UART_EndRxTransfer+0x44>
 80072f8:	e852 3f00 	ldrex	r3, [r2]
 80072fc:	f023 0310 	bic.w	r3, r3, #16
 8007300:	e842 3100 	strex	r1, r3, [r2]
 8007304:	2900      	cmp	r1, #0
 8007306:	d1f7      	bne.n	80072f8 <UART_EndRxTransfer+0x34>
 8007308:	2320      	movs	r3, #32
 800730a:	f8c0 308c 	str.w	r3, [r0, #140]	@ 0x8c
 800730e:	2300      	movs	r3, #0
 8007310:	66c3      	str	r3, [r0, #108]	@ 0x6c
 8007312:	6743      	str	r3, [r0, #116]	@ 0x74
 8007314:	bd10      	pop	{r4, pc}
 8007316:	bf00      	nop
 8007318:	effffffe 	.word	0xeffffffe

0800731c <HAL_UART_Transmit_DMA>:
 800731c:	b538      	push	{r3, r4, r5, lr}
 800731e:	4613      	mov	r3, r2
 8007320:	f8d0 2088 	ldr.w	r2, [r0, #136]	@ 0x88
 8007324:	4604      	mov	r4, r0
 8007326:	2a20      	cmp	r2, #32
 8007328:	d14c      	bne.n	80073c4 <HAL_UART_Transmit_DMA+0xa8>
 800732a:	b339      	cbz	r1, 800737c <HAL_UART_Transmit_DMA+0x60>
 800732c:	b333      	cbz	r3, 800737c <HAL_UART_Transmit_DMA+0x60>
 800732e:	2200      	movs	r2, #0
 8007330:	f8a0 3056 	strh.w	r3, [r0, #86]	@ 0x56
 8007334:	6501      	str	r1, [r0, #80]	@ 0x50
 8007336:	f8a0 3054 	strh.w	r3, [r0, #84]	@ 0x54
 800733a:	f8c0 2090 	str.w	r2, [r0, #144]	@ 0x90
 800733e:	2021      	movs	r0, #33	@ 0x21
 8007340:	f8c4 0088 	str.w	r0, [r4, #136]	@ 0x88
 8007344:	6fe0      	ldr	r0, [r4, #124]	@ 0x7c
 8007346:	b338      	cbz	r0, 8007398 <HAL_UART_Transmit_DMA+0x7c>
 8007348:	4d1f      	ldr	r5, [pc, #124]	@ (80073c8 <HAL_UART_Transmit_DMA+0xac>)
 800734a:	6605      	str	r5, [r0, #96]	@ 0x60
 800734c:	4d1f      	ldr	r5, [pc, #124]	@ (80073cc <HAL_UART_Transmit_DMA+0xb0>)
 800734e:	6645      	str	r5, [r0, #100]	@ 0x64
 8007350:	4d1f      	ldr	r5, [pc, #124]	@ (80073d0 <HAL_UART_Transmit_DMA+0xb4>)
 8007352:	e9c0 521a 	strd	r5, r2, [r0, #104]	@ 0x68
 8007356:	68a2      	ldr	r2, [r4, #8]
 8007358:	f5b2 5f80 	cmp.w	r2, #4096	@ 0x1000
 800735c:	d103      	bne.n	8007366 <HAL_UART_Transmit_DMA+0x4a>
 800735e:	6922      	ldr	r2, [r4, #16]
 8007360:	b90a      	cbnz	r2, 8007366 <HAL_UART_Transmit_DMA+0x4a>
 8007362:	005b      	lsls	r3, r3, #1
 8007364:	b29b      	uxth	r3, r3
 8007366:	6d02      	ldr	r2, [r0, #80]	@ 0x50
 8007368:	0612      	lsls	r2, r2, #24
 800736a:	d526      	bpl.n	80073ba <HAL_UART_Transmit_DMA+0x9e>
 800736c:	6f42      	ldr	r2, [r0, #116]	@ 0x74
 800736e:	b93a      	cbnz	r2, 8007380 <HAL_UART_Transmit_DMA+0x64>
 8007370:	2310      	movs	r3, #16
 8007372:	f8c4 3090 	str.w	r3, [r4, #144]	@ 0x90
 8007376:	2320      	movs	r3, #32
 8007378:	f8c4 3088 	str.w	r3, [r4, #136]	@ 0x88
 800737c:	2001      	movs	r0, #1
 800737e:	e01b      	b.n	80073b8 <HAL_UART_Transmit_DMA+0x9c>
 8007380:	6812      	ldr	r2, [r2, #0]
 8007382:	2a00      	cmp	r2, #0
 8007384:	d0f4      	beq.n	8007370 <HAL_UART_Transmit_DMA+0x54>
 8007386:	e9c2 3102 	strd	r3, r1, [r2, #8]
 800738a:	6823      	ldr	r3, [r4, #0]
 800738c:	3328      	adds	r3, #40	@ 0x28
 800738e:	6113      	str	r3, [r2, #16]
 8007390:	f7fc f894 	bl	80034bc <HAL_DMAEx_List_Start_IT>
 8007394:	2800      	cmp	r0, #0
 8007396:	d1eb      	bne.n	8007370 <HAL_UART_Transmit_DMA+0x54>
 8007398:	2240      	movs	r2, #64	@ 0x40
 800739a:	6823      	ldr	r3, [r4, #0]
 800739c:	621a      	str	r2, [r3, #32]
 800739e:	6822      	ldr	r2, [r4, #0]
 80073a0:	f102 0308 	add.w	r3, r2, #8
 80073a4:	e853 3f00 	ldrex	r3, [r3]
 80073a8:	f043 0380 	orr.w	r3, r3, #128	@ 0x80
 80073ac:	f102 0108 	add.w	r1, r2, #8
 80073b0:	e841 3000 	strex	r0, r3, [r1]
 80073b4:	2800      	cmp	r0, #0
 80073b6:	d1f3      	bne.n	80073a0 <HAL_UART_Transmit_DMA+0x84>
 80073b8:	bd38      	pop	{r3, r4, r5, pc}
 80073ba:	6822      	ldr	r2, [r4, #0]
 80073bc:	3228      	adds	r2, #40	@ 0x28
 80073be:	f7fb feed 	bl	800319c <HAL_DMA_Start_IT>
 80073c2:	e7e7      	b.n	8007394 <HAL_UART_Transmit_DMA+0x78>
 80073c4:	2002      	movs	r0, #2
 80073c6:	e7f7      	b.n	80073b8 <HAL_UART_Transmit_DMA+0x9c>
 80073c8:	080073d5 	.word	0x080073d5
 80073cc:	0800741b 	.word	0x0800741b
 80073d0:	08007427 	.word	0x08007427

080073d4 <UART_DMATransmitCplt>:
 80073d4:	b508      	push	{r3, lr}
 80073d6:	4603      	mov	r3, r0
 80073d8:	6d1b      	ldr	r3, [r3, #80]	@ 0x50
 80073da:	6dc0      	ldr	r0, [r0, #92]	@ 0x5c
 80073dc:	2b81      	cmp	r3, #129	@ 0x81
 80073de:	d018      	beq.n	8007412 <UART_DMATransmitCplt+0x3e>
 80073e0:	2300      	movs	r3, #0
 80073e2:	f8a0 3056 	strh.w	r3, [r0, #86]	@ 0x56
 80073e6:	6802      	ldr	r2, [r0, #0]
 80073e8:	f102 0308 	add.w	r3, r2, #8
 80073ec:	e853 3f00 	ldrex	r3, [r3]
 80073f0:	f023 0380 	bic.w	r3, r3, #128	@ 0x80
 80073f4:	3208      	adds	r2, #8
 80073f6:	e842 3100 	strex	r1, r3, [r2]
 80073fa:	6802      	ldr	r2, [r0, #0]
 80073fc:	2900      	cmp	r1, #0
 80073fe:	d1f2      	bne.n	80073e6 <UART_DMATransmitCplt+0x12>
 8007400:	e852 3f00 	ldrex	r3, [r2]
 8007404:	f043 0340 	orr.w	r3, r3, #64	@ 0x40
 8007408:	e842 3100 	strex	r1, r3, [r2]
 800740c:	2900      	cmp	r1, #0
 800740e:	d1f7      	bne.n	8007400 <UART_DMATransmitCplt+0x2c>
 8007410:	bd08      	pop	{r3, pc}
 8007412:	f7fa fa61 	bl	80018d8 <HAL_UART_TxCpltCallback>
 8007416:	e7fb      	b.n	8007410 <UART_DMATransmitCplt+0x3c>

08007418 <HAL_UART_TxHalfCpltCallback>:
 8007418:	4770      	bx	lr

0800741a <UART_DMATxHalfCplt>:
 800741a:	b508      	push	{r3, lr}
 800741c:	6dc0      	ldr	r0, [r0, #92]	@ 0x5c
 800741e:	f7ff fffb 	bl	8007418 <HAL_UART_TxHalfCpltCallback>
 8007422:	bd08      	pop	{r3, pc}

08007424 <HAL_UART_ErrorCallback>:
 8007424:	4770      	bx	lr

08007426 <UART_DMAError>:
 8007426:	6dc0      	ldr	r0, [r0, #92]	@ 0x5c
 8007428:	b538      	push	{r3, r4, r5, lr}
 800742a:	6804      	ldr	r4, [r0, #0]
 800742c:	f8d0 3088 	ldr.w	r3, [r0, #136]	@ 0x88
 8007430:	f8d0 508c 	ldr.w	r5, [r0, #140]	@ 0x8c
 8007434:	68a2      	ldr	r2, [r4, #8]
 8007436:	0612      	lsls	r2, r2, #24
 8007438:	d506      	bpl.n	8007448 <UART_DMAError+0x22>
 800743a:	2b21      	cmp	r3, #33	@ 0x21
 800743c:	d104      	bne.n	8007448 <UART_DMAError+0x22>
 800743e:	2300      	movs	r3, #0
 8007440:	f8a0 3056 	strh.w	r3, [r0, #86]	@ 0x56
 8007444:	f7ff ff23 	bl	800728e <UART_EndTxTransfer>
 8007448:	68a3      	ldr	r3, [r4, #8]
 800744a:	065b      	lsls	r3, r3, #25
 800744c:	d506      	bpl.n	800745c <UART_DMAError+0x36>
 800744e:	2d22      	cmp	r5, #34	@ 0x22
 8007450:	d104      	bne.n	800745c <UART_DMAError+0x36>
 8007452:	2300      	movs	r3, #0
 8007454:	f8a0 305e 	strh.w	r3, [r0, #94]	@ 0x5e
 8007458:	f7ff ff34 	bl	80072c4 <UART_EndRxTransfer>
 800745c:	f8d0 3090 	ldr.w	r3, [r0, #144]	@ 0x90
 8007460:	f043 0310 	orr.w	r3, r3, #16
 8007464:	f8c0 3090 	str.w	r3, [r0, #144]	@ 0x90
 8007468:	f7ff ffdc 	bl	8007424 <HAL_UART_ErrorCallback>
 800746c:	bd38      	pop	{r3, r4, r5, pc}

0800746e <UART_DMAAbortOnError>:
 800746e:	b508      	push	{r3, lr}
 8007470:	2300      	movs	r3, #0
 8007472:	6dc0      	ldr	r0, [r0, #92]	@ 0x5c
 8007474:	f8a0 305e 	strh.w	r3, [r0, #94]	@ 0x5e
 8007478:	f8a0 3056 	strh.w	r3, [r0, #86]	@ 0x56
 800747c:	f7ff ffd2 	bl	8007424 <HAL_UART_ErrorCallback>
 8007480:	bd08      	pop	{r3, pc}

08007482 <HAL_UARTEx_RxEventCallback>:
 8007482:	4770      	bx	lr

08007484 <HAL_UART_IRQHandler>:
 8007484:	e92d 41f0 	stmdb	sp!, {r4, r5, r6, r7, r8, lr}
 8007488:	f640 060f 	movw	r6, #2063	@ 0x80f
 800748c:	6803      	ldr	r3, [r0, #0]
 800748e:	4604      	mov	r4, r0
 8007490:	69d9      	ldr	r1, [r3, #28]
 8007492:	681a      	ldr	r2, [r3, #0]
 8007494:	4231      	tst	r1, r6
 8007496:	689d      	ldr	r5, [r3, #8]
 8007498:	d110      	bne.n	80074bc <HAL_UART_IRQHandler+0x38>
 800749a:	068e      	lsls	r6, r1, #26
 800749c:	f140 8097 	bpl.w	80075ce <HAL_UART_IRQHandler+0x14a>
 80074a0:	f002 0620 	and.w	r6, r2, #32
 80074a4:	f005 5780 	and.w	r7, r5, #268435456	@ 0x10000000
 80074a8:	433e      	orrs	r6, r7
 80074aa:	f000 8090 	beq.w	80075ce <HAL_UART_IRQHandler+0x14a>
 80074ae:	6f43      	ldr	r3, [r0, #116]	@ 0x74
 80074b0:	2b00      	cmp	r3, #0
 80074b2:	f000 8085 	beq.w	80075c0 <HAL_UART_IRQHandler+0x13c>
 80074b6:	e8bd 41f0 	ldmia.w	sp!, {r4, r5, r6, r7, r8, lr}
 80074ba:	4718      	bx	r3
 80074bc:	4ea5      	ldr	r6, [pc, #660]	@ (8007754 <HAL_UART_IRQHandler+0x2d0>)
 80074be:	48a6      	ldr	r0, [pc, #664]	@ (8007758 <HAL_UART_IRQHandler+0x2d4>)
 80074c0:	402e      	ands	r6, r5
 80074c2:	4010      	ands	r0, r2
 80074c4:	4330      	orrs	r0, r6
 80074c6:	f000 8082 	beq.w	80075ce <HAL_UART_IRQHandler+0x14a>
 80074ca:	07cf      	lsls	r7, r1, #31
 80074cc:	d509      	bpl.n	80074e2 <HAL_UART_IRQHandler+0x5e>
 80074ce:	05d0      	lsls	r0, r2, #23
 80074d0:	d507      	bpl.n	80074e2 <HAL_UART_IRQHandler+0x5e>
 80074d2:	2001      	movs	r0, #1
 80074d4:	6218      	str	r0, [r3, #32]
 80074d6:	f8d4 0090 	ldr.w	r0, [r4, #144]	@ 0x90
 80074da:	f040 0001 	orr.w	r0, r0, #1
 80074de:	f8c4 0090 	str.w	r0, [r4, #144]	@ 0x90
 80074e2:	078f      	lsls	r7, r1, #30
 80074e4:	d509      	bpl.n	80074fa <HAL_UART_IRQHandler+0x76>
 80074e6:	07e8      	lsls	r0, r5, #31
 80074e8:	d507      	bpl.n	80074fa <HAL_UART_IRQHandler+0x76>
 80074ea:	2002      	movs	r0, #2
 80074ec:	6218      	str	r0, [r3, #32]
 80074ee:	f8d4 0090 	ldr.w	r0, [r4, #144]	@ 0x90
 80074f2:	f040 0004 	orr.w	r0, r0, #4
 80074f6:	f8c4 0090 	str.w	r0, [r4, #144]	@ 0x90
 80074fa:	074f      	lsls	r7, r1, #29
 80074fc:	d509      	bpl.n	8007512 <HAL_UART_IRQHandler+0x8e>
 80074fe:	07e8      	lsls	r0, r5, #31
 8007500:	d507      	bpl.n	8007512 <HAL_UART_IRQHandler+0x8e>
 8007502:	2004      	movs	r0, #4
 8007504:	6218      	str	r0, [r3, #32]
 8007506:	f8d4 0090 	ldr.w	r0, [r4, #144]	@ 0x90
 800750a:	f040 0002 	orr.w	r0, r0, #2
 800750e:	f8c4 0090 	str.w	r0, [r4, #144]	@ 0x90
 8007512:	070f      	lsls	r7, r1, #28
 8007514:	d50b      	bpl.n	800752e <HAL_UART_IRQHandler+0xaa>
 8007516:	f002 0020 	and.w	r0, r2, #32
 800751a:	4330      	orrs	r0, r6
 800751c:	d007      	beq.n	800752e <HAL_UART_IRQHandler+0xaa>
 800751e:	2008      	movs	r0, #8
 8007520:	6218      	str	r0, [r3, #32]
 8007522:	f8d4 0090 	ldr.w	r0, [r4, #144]	@ 0x90
 8007526:	f040 0008 	orr.w	r0, r0, #8
 800752a:	f8c4 0090 	str.w	r0, [r4, #144]	@ 0x90
 800752e:	050e      	lsls	r6, r1, #20
 8007530:	d50a      	bpl.n	8007548 <HAL_UART_IRQHandler+0xc4>
 8007532:	0150      	lsls	r0, r2, #5
 8007534:	d508      	bpl.n	8007548 <HAL_UART_IRQHandler+0xc4>
 8007536:	f44f 6000 	mov.w	r0, #2048	@ 0x800
 800753a:	6218      	str	r0, [r3, #32]
 800753c:	f8d4 3090 	ldr.w	r3, [r4, #144]	@ 0x90
 8007540:	f043 0320 	orr.w	r3, r3, #32
 8007544:	f8c4 3090 	str.w	r3, [r4, #144]	@ 0x90
 8007548:	f8d4 3090 	ldr.w	r3, [r4, #144]	@ 0x90
 800754c:	2b00      	cmp	r3, #0
 800754e:	d037      	beq.n	80075c0 <HAL_UART_IRQHandler+0x13c>
 8007550:	0689      	lsls	r1, r1, #26
 8007552:	d509      	bpl.n	8007568 <HAL_UART_IRQHandler+0xe4>
 8007554:	f002 0220 	and.w	r2, r2, #32
 8007558:	f005 5580 	and.w	r5, r5, #268435456	@ 0x10000000
 800755c:	432a      	orrs	r2, r5
 800755e:	d003      	beq.n	8007568 <HAL_UART_IRQHandler+0xe4>
 8007560:	6f63      	ldr	r3, [r4, #116]	@ 0x74
 8007562:	b10b      	cbz	r3, 8007568 <HAL_UART_IRQHandler+0xe4>
 8007564:	4620      	mov	r0, r4
 8007566:	4798      	blx	r3
 8007568:	6826      	ldr	r6, [r4, #0]
 800756a:	f8d4 2090 	ldr.w	r2, [r4, #144]	@ 0x90
 800756e:	68b3      	ldr	r3, [r6, #8]
 8007570:	f002 0228 	and.w	r2, r2, #40	@ 0x28
 8007574:	f003 0340 	and.w	r3, r3, #64	@ 0x40
 8007578:	ea53 0502 	orrs.w	r5, r3, r2
 800757c:	4620      	mov	r0, r4
 800757e:	d021      	beq.n	80075c4 <HAL_UART_IRQHandler+0x140>
 8007580:	f7ff fea0 	bl	80072c4 <UART_EndRxTransfer>
 8007584:	68b3      	ldr	r3, [r6, #8]
 8007586:	065b      	lsls	r3, r3, #25
 8007588:	d517      	bpl.n	80075ba <HAL_UART_IRQHandler+0x136>
 800758a:	6822      	ldr	r2, [r4, #0]
 800758c:	f102 0308 	add.w	r3, r2, #8
 8007590:	e853 3f00 	ldrex	r3, [r3]
 8007594:	f023 0340 	bic.w	r3, r3, #64	@ 0x40
 8007598:	3208      	adds	r2, #8
 800759a:	e842 3100 	strex	r1, r3, [r2]
 800759e:	2900      	cmp	r1, #0
 80075a0:	d1f3      	bne.n	800758a <HAL_UART_IRQHandler+0x106>
 80075a2:	f8d4 0080 	ldr.w	r0, [r4, #128]	@ 0x80
 80075a6:	b140      	cbz	r0, 80075ba <HAL_UART_IRQHandler+0x136>
 80075a8:	4b6c      	ldr	r3, [pc, #432]	@ (800775c <HAL_UART_IRQHandler+0x2d8>)
 80075aa:	66c3      	str	r3, [r0, #108]	@ 0x6c
 80075ac:	f7fb fe7e 	bl	80032ac <HAL_DMA_Abort_IT>
 80075b0:	b130      	cbz	r0, 80075c0 <HAL_UART_IRQHandler+0x13c>
 80075b2:	f8d4 0080 	ldr.w	r0, [r4, #128]	@ 0x80
 80075b6:	6ec3      	ldr	r3, [r0, #108]	@ 0x6c
 80075b8:	e77d      	b.n	80074b6 <HAL_UART_IRQHandler+0x32>
 80075ba:	4620      	mov	r0, r4
 80075bc:	f7ff ff32 	bl	8007424 <HAL_UART_ErrorCallback>
 80075c0:	e8bd 81f0 	ldmia.w	sp!, {r4, r5, r6, r7, r8, pc}
 80075c4:	f7ff ff2e 	bl	8007424 <HAL_UART_ErrorCallback>
 80075c8:	f8c4 5090 	str.w	r5, [r4, #144]	@ 0x90
 80075cc:	e7f8      	b.n	80075c0 <HAL_UART_IRQHandler+0x13c>
 80075ce:	6ee0      	ldr	r0, [r4, #108]	@ 0x6c
 80075d0:	2801      	cmp	r0, #1
 80075d2:	f040 8089 	bne.w	80076e8 <HAL_UART_IRQHandler+0x264>
 80075d6:	06cf      	lsls	r7, r1, #27
 80075d8:	f140 8086 	bpl.w	80076e8 <HAL_UART_IRQHandler+0x264>
 80075dc:	06d6      	lsls	r6, r2, #27
 80075de:	f140 8083 	bpl.w	80076e8 <HAL_UART_IRQHandler+0x264>
 80075e2:	2210      	movs	r2, #16
 80075e4:	621a      	str	r2, [r3, #32]
 80075e6:	689a      	ldr	r2, [r3, #8]
 80075e8:	0655      	lsls	r5, r2, #25
 80075ea:	d54b      	bpl.n	8007684 <HAL_UART_IRQHandler+0x200>
 80075ec:	f8d4 1080 	ldr.w	r1, [r4, #128]	@ 0x80
 80075f0:	680a      	ldr	r2, [r1, #0]
 80075f2:	6c92      	ldr	r2, [r2, #72]	@ 0x48
 80075f4:	b292      	uxth	r2, r2
 80075f6:	2a00      	cmp	r2, #0
 80075f8:	d0e2      	beq.n	80075c0 <HAL_UART_IRQHandler+0x13c>
 80075fa:	f8b4 005c 	ldrh.w	r0, [r4, #92]	@ 0x5c
 80075fe:	4290      	cmp	r0, r2
 8007600:	d9de      	bls.n	80075c0 <HAL_UART_IRQHandler+0x13c>
 8007602:	f8a4 205e 	strh.w	r2, [r4, #94]	@ 0x5e
 8007606:	6d0a      	ldr	r2, [r1, #80]	@ 0x50
 8007608:	2a81      	cmp	r2, #129	@ 0x81
 800760a:	d02f      	beq.n	800766c <HAL_UART_IRQHandler+0x1e8>
 800760c:	e853 2f00 	ldrex	r2, [r3]
 8007610:	f422 7280 	bic.w	r2, r2, #256	@ 0x100
 8007614:	e843 2100 	strex	r1, r2, [r3]
 8007618:	2900      	cmp	r1, #0
 800761a:	d1f7      	bne.n	800760c <HAL_UART_IRQHandler+0x188>
 800761c:	f103 0208 	add.w	r2, r3, #8
 8007620:	e852 2f00 	ldrex	r2, [r2]
 8007624:	f022 0201 	bic.w	r2, r2, #1
 8007628:	f103 0008 	add.w	r0, r3, #8
 800762c:	e840 2100 	strex	r1, r2, [r0]
 8007630:	2900      	cmp	r1, #0
 8007632:	d1f3      	bne.n	800761c <HAL_UART_IRQHandler+0x198>
 8007634:	f103 0208 	add.w	r2, r3, #8
 8007638:	e852 2f00 	ldrex	r2, [r2]
 800763c:	f022 0240 	bic.w	r2, r2, #64	@ 0x40
 8007640:	f103 0008 	add.w	r0, r3, #8
 8007644:	e840 2100 	strex	r1, r2, [r0]
 8007648:	2900      	cmp	r1, #0
 800764a:	d1f3      	bne.n	8007634 <HAL_UART_IRQHandler+0x1b0>
 800764c:	2220      	movs	r2, #32
 800764e:	f8c4 208c 	str.w	r2, [r4, #140]	@ 0x8c
 8007652:	66e1      	str	r1, [r4, #108]	@ 0x6c
 8007654:	e853 2f00 	ldrex	r2, [r3]
 8007658:	f022 0210 	bic.w	r2, r2, #16
 800765c:	e843 2100 	strex	r1, r2, [r3]
 8007660:	2900      	cmp	r1, #0
 8007662:	d1f7      	bne.n	8007654 <HAL_UART_IRQHandler+0x1d0>
 8007664:	f8d4 0080 	ldr.w	r0, [r4, #128]	@ 0x80
 8007668:	f7fb fdd6 	bl	8003218 <HAL_DMA_Abort>
 800766c:	2302      	movs	r3, #2
 800766e:	6723      	str	r3, [r4, #112]	@ 0x70
 8007670:	f8b4 305e 	ldrh.w	r3, [r4, #94]	@ 0x5e
 8007674:	f8b4 105c 	ldrh.w	r1, [r4, #92]	@ 0x5c
 8007678:	1ac9      	subs	r1, r1, r3
 800767a:	b289      	uxth	r1, r1
 800767c:	4620      	mov	r0, r4
 800767e:	f7ff ff00 	bl	8007482 <HAL_UARTEx_RxEventCallback>
 8007682:	e79d      	b.n	80075c0 <HAL_UART_IRQHandler+0x13c>
 8007684:	f8b4 205e 	ldrh.w	r2, [r4, #94]	@ 0x5e
 8007688:	f8b4 005e 	ldrh.w	r0, [r4, #94]	@ 0x5e
 800768c:	f8b4 105c 	ldrh.w	r1, [r4, #92]	@ 0x5c
 8007690:	b280      	uxth	r0, r0
 8007692:	b292      	uxth	r2, r2
 8007694:	2800      	cmp	r0, #0
 8007696:	d093      	beq.n	80075c0 <HAL_UART_IRQHandler+0x13c>
 8007698:	1a89      	subs	r1, r1, r2
 800769a:	b289      	uxth	r1, r1
 800769c:	2900      	cmp	r1, #0
 800769e:	d08f      	beq.n	80075c0 <HAL_UART_IRQHandler+0x13c>
 80076a0:	e853 2f00 	ldrex	r2, [r3]
 80076a4:	f422 7290 	bic.w	r2, r2, #288	@ 0x120
 80076a8:	e843 2000 	strex	r0, r2, [r3]
 80076ac:	2800      	cmp	r0, #0
 80076ae:	d1f7      	bne.n	80076a0 <HAL_UART_IRQHandler+0x21c>
 80076b0:	4d2b      	ldr	r5, [pc, #172]	@ (8007760 <HAL_UART_IRQHandler+0x2dc>)
 80076b2:	f103 0208 	add.w	r2, r3, #8
 80076b6:	e852 2f00 	ldrex	r2, [r2]
 80076ba:	402a      	ands	r2, r5
 80076bc:	f103 0608 	add.w	r6, r3, #8
 80076c0:	e846 2000 	strex	r0, r2, [r6]
 80076c4:	2800      	cmp	r0, #0
 80076c6:	d1f4      	bne.n	80076b2 <HAL_UART_IRQHandler+0x22e>
 80076c8:	2220      	movs	r2, #32
 80076ca:	6760      	str	r0, [r4, #116]	@ 0x74
 80076cc:	f8c4 208c 	str.w	r2, [r4, #140]	@ 0x8c
 80076d0:	66e0      	str	r0, [r4, #108]	@ 0x6c
 80076d2:	e853 2f00 	ldrex	r2, [r3]
 80076d6:	f022 0210 	bic.w	r2, r2, #16
 80076da:	e843 2000 	strex	r0, r2, [r3]
 80076de:	2800      	cmp	r0, #0
 80076e0:	d1f7      	bne.n	80076d2 <HAL_UART_IRQHandler+0x24e>
 80076e2:	2302      	movs	r3, #2
 80076e4:	6723      	str	r3, [r4, #112]	@ 0x70
 80076e6:	e7c9      	b.n	800767c <HAL_UART_IRQHandler+0x1f8>
 80076e8:	0608      	lsls	r0, r1, #24
 80076ea:	d50b      	bpl.n	8007704 <HAL_UART_IRQHandler+0x280>
 80076ec:	f002 0080 	and.w	r0, r2, #128	@ 0x80
 80076f0:	f405 0500 	and.w	r5, r5, #8388608	@ 0x800000
 80076f4:	4328      	orrs	r0, r5
 80076f6:	d005      	beq.n	8007704 <HAL_UART_IRQHandler+0x280>
 80076f8:	6fa3      	ldr	r3, [r4, #120]	@ 0x78
 80076fa:	2b00      	cmp	r3, #0
 80076fc:	f43f af60 	beq.w	80075c0 <HAL_UART_IRQHandler+0x13c>
 8007700:	4620      	mov	r0, r4
 8007702:	e6d8      	b.n	80074b6 <HAL_UART_IRQHandler+0x32>
 8007704:	064f      	lsls	r7, r1, #25
 8007706:	d511      	bpl.n	800772c <HAL_UART_IRQHandler+0x2a8>
 8007708:	0656      	lsls	r6, r2, #25
 800770a:	d50f      	bpl.n	800772c <HAL_UART_IRQHandler+0x2a8>
 800770c:	e853 2f00 	ldrex	r2, [r3]
 8007710:	f022 0240 	bic.w	r2, r2, #64	@ 0x40
 8007714:	e843 2100 	strex	r1, r2, [r3]
 8007718:	2900      	cmp	r1, #0
 800771a:	d1f7      	bne.n	800770c <HAL_UART_IRQHandler+0x288>
 800771c:	2320      	movs	r3, #32
 800771e:	4620      	mov	r0, r4
 8007720:	f8c4 3088 	str.w	r3, [r4, #136]	@ 0x88
 8007724:	67a1      	str	r1, [r4, #120]	@ 0x78
 8007726:	f7fa f8d7 	bl	80018d8 <HAL_UART_TxCpltCallback>
 800772a:	e749      	b.n	80075c0 <HAL_UART_IRQHandler+0x13c>
 800772c:	020d      	lsls	r5, r1, #8
 800772e:	d506      	bpl.n	800773e <HAL_UART_IRQHandler+0x2ba>
 8007730:	0050      	lsls	r0, r2, #1
 8007732:	d504      	bpl.n	800773e <HAL_UART_IRQHandler+0x2ba>
 8007734:	4620      	mov	r0, r4
 8007736:	e8bd 41f0 	ldmia.w	sp!, {r4, r5, r6, r7, r8, lr}
 800773a:	f000 ba32 	b.w	8007ba2 <HAL_UARTEx_TxFifoEmptyCallback>
 800773e:	01cb      	lsls	r3, r1, #7
 8007740:	f57f af3e 	bpl.w	80075c0 <HAL_UART_IRQHandler+0x13c>
 8007744:	2a00      	cmp	r2, #0
 8007746:	f6bf af3b 	bge.w	80075c0 <HAL_UART_IRQHandler+0x13c>
 800774a:	4620      	mov	r0, r4
 800774c:	e8bd 41f0 	ldmia.w	sp!, {r4, r5, r6, r7, r8, lr}
 8007750:	f000 ba26 	b.w	8007ba0 <HAL_UARTEx_RxFifoFullCallback>
 8007754:	10000001 	.word	0x10000001
 8007758:	04000120 	.word	0x04000120
 800775c:	0800746f 	.word	0x0800746f
 8007760:	effffffe 	.word	0xeffffffe

08007764 <UART_SetConfig>:
 8007764:	b538      	push	{r3, r4, r5, lr}
 8007766:	4604      	mov	r4, r0
 8007768:	6803      	ldr	r3, [r0, #0]
 800776a:	69c1      	ldr	r1, [r0, #28]
 800776c:	6882      	ldr	r2, [r0, #8]
 800776e:	6900      	ldr	r0, [r0, #16]
 8007770:	681d      	ldr	r5, [r3, #0]
 8007772:	4302      	orrs	r2, r0
 8007774:	6960      	ldr	r0, [r4, #20]
 8007776:	4302      	orrs	r2, r0
 8007778:	485f      	ldr	r0, [pc, #380]	@ (80078f8 <UART_SetConfig+0x194>)
 800777a:	430a      	orrs	r2, r1
 800777c:	4028      	ands	r0, r5
 800777e:	4302      	orrs	r2, r0
 8007780:	601a      	str	r2, [r3, #0]
 8007782:	685a      	ldr	r2, [r3, #4]
 8007784:	68e0      	ldr	r0, [r4, #12]
 8007786:	f422 5240 	bic.w	r2, r2, #12288	@ 0x3000
 800778a:	4302      	orrs	r2, r0
 800778c:	605a      	str	r2, [r3, #4]
 800778e:	4a5b      	ldr	r2, [pc, #364]	@ (80078fc <UART_SetConfig+0x198>)
 8007790:	69a0      	ldr	r0, [r4, #24]
 8007792:	4293      	cmp	r3, r2
 8007794:	d005      	beq.n	80077a2 <UART_SetConfig+0x3e>
 8007796:	f102 5280 	add.w	r2, r2, #268435456	@ 0x10000000
 800779a:	4293      	cmp	r3, r2
 800779c:	bf1c      	itt	ne
 800779e:	6a22      	ldrne	r2, [r4, #32]
 80077a0:	4310      	orrne	r0, r2
 80077a2:	689a      	ldr	r2, [r3, #8]
 80077a4:	f022 426e 	bic.w	r2, r2, #3992977408	@ 0xee000000
 80077a8:	f422 6230 	bic.w	r2, r2, #2816	@ 0xb00
 80077ac:	4302      	orrs	r2, r0
 80077ae:	609a      	str	r2, [r3, #8]
 80077b0:	6ada      	ldr	r2, [r3, #44]	@ 0x2c
 80077b2:	6a60      	ldr	r0, [r4, #36]	@ 0x24
 80077b4:	f022 020f 	bic.w	r2, r2, #15
 80077b8:	4302      	orrs	r2, r0
 80077ba:	62da      	str	r2, [r3, #44]	@ 0x2c
 80077bc:	4a50      	ldr	r2, [pc, #320]	@ (8007900 <UART_SetConfig+0x19c>)
 80077be:	4293      	cmp	r3, r2
 80077c0:	d052      	beq.n	8007868 <UART_SetConfig+0x104>
 80077c2:	f5a2 4274 	sub.w	r2, r2, #62464	@ 0xf400
 80077c6:	4293      	cmp	r3, r2
 80077c8:	d073      	beq.n	80078b2 <UART_SetConfig+0x14e>
 80077ca:	f502 6280 	add.w	r2, r2, #1024	@ 0x400
 80077ce:	4293      	cmp	r3, r2
 80077d0:	d071      	beq.n	80078b6 <UART_SetConfig+0x152>
 80077d2:	f502 6280 	add.w	r2, r2, #1024	@ 0x400
 80077d6:	4293      	cmp	r3, r2
 80077d8:	d06f      	beq.n	80078ba <UART_SetConfig+0x156>
 80077da:	f502 6280 	add.w	r2, r2, #1024	@ 0x400
 80077de:	4293      	cmp	r3, r2
 80077e0:	d06d      	beq.n	80078be <UART_SetConfig+0x15a>
 80077e2:	f502 52a0 	add.w	r2, r2, #5120	@ 0x1400
 80077e6:	4293      	cmp	r3, r2
 80077e8:	d06b      	beq.n	80078c2 <UART_SetConfig+0x15e>
 80077ea:	4a44      	ldr	r2, [pc, #272]	@ (80078fc <UART_SetConfig+0x198>)
 80077ec:	4293      	cmp	r3, r2
 80077ee:	d01c      	beq.n	800782a <UART_SetConfig+0xc6>
 80077f0:	f102 5280 	add.w	r2, r2, #268435456	@ 0x10000000
 80077f4:	4293      	cmp	r3, r2
 80077f6:	f04f 0000 	mov.w	r0, #0
 80077fa:	d136      	bne.n	800786a <UART_SetConfig+0x106>
 80077fc:	2100      	movs	r1, #0
 80077fe:	f7fd fd3b 	bl	8005278 <HAL_RCCEx_GetPeriphCLKFreq>
 8007802:	b378      	cbz	r0, 8007864 <UART_SetConfig+0x100>
 8007804:	6a61      	ldr	r1, [r4, #36]	@ 0x24
 8007806:	4a3f      	ldr	r2, [pc, #252]	@ (8007904 <UART_SetConfig+0x1a0>)
 8007808:	6865      	ldr	r5, [r4, #4]
 800780a:	f832 2011 	ldrh.w	r2, [r2, r1, lsl #1]
 800780e:	eb05 0145 	add.w	r1, r5, r5, lsl #1
 8007812:	fbb0 f3f2 	udiv	r3, r0, r2
 8007816:	4299      	cmp	r1, r3
 8007818:	d909      	bls.n	800782e <UART_SetConfig+0xca>
 800781a:	2001      	movs	r0, #1
 800781c:	f04f 1301 	mov.w	r3, #65537	@ 0x10001
 8007820:	66a3      	str	r3, [r4, #104]	@ 0x68
 8007822:	2300      	movs	r3, #0
 8007824:	e9c4 331d 	strd	r3, r3, [r4, #116]	@ 0x74
 8007828:	bd38      	pop	{r3, r4, r5, pc}
 800782a:	2020      	movs	r0, #32
 800782c:	e7e6      	b.n	80077fc <UART_SetConfig+0x98>
 800782e:	ebb3 3f05 	cmp.w	r3, r5, lsl #12
 8007832:	d8f2      	bhi.n	800781a <UART_SetConfig+0xb6>
 8007834:	2300      	movs	r3, #0
 8007836:	4619      	mov	r1, r3
 8007838:	f7f9 f9b6 	bl	8000ba8 <__aeabi_uldivmod>
 800783c:	0209      	lsls	r1, r1, #8
 800783e:	ea41 6110 	orr.w	r1, r1, r0, lsr #24
 8007842:	086b      	lsrs	r3, r5, #1
 8007844:	0200      	lsls	r0, r0, #8
 8007846:	18c0      	adds	r0, r0, r3
 8007848:	462a      	mov	r2, r5
 800784a:	f04f 0300 	mov.w	r3, #0
 800784e:	f141 0100 	adc.w	r1, r1, #0
 8007852:	f7f9 f9a9 	bl	8000ba8 <__aeabi_uldivmod>
 8007856:	4b2c      	ldr	r3, [pc, #176]	@ (8007908 <UART_SetConfig+0x1a4>)
 8007858:	f5a0 7240 	sub.w	r2, r0, #768	@ 0x300
 800785c:	429a      	cmp	r2, r3
 800785e:	d8dc      	bhi.n	800781a <UART_SetConfig+0xb6>
 8007860:	6823      	ldr	r3, [r4, #0]
 8007862:	60d8      	str	r0, [r3, #12]
 8007864:	2000      	movs	r0, #0
 8007866:	e7d9      	b.n	800781c <UART_SetConfig+0xb8>
 8007868:	2001      	movs	r0, #1
 800786a:	f5b1 4f00 	cmp.w	r1, #32768	@ 0x8000
 800786e:	f04f 0100 	mov.w	r1, #0
 8007872:	d129      	bne.n	80078c8 <UART_SetConfig+0x164>
 8007874:	f7fd fd00 	bl	8005278 <HAL_RCCEx_GetPeriphCLKFreq>
 8007878:	2800      	cmp	r0, #0
 800787a:	d0f3      	beq.n	8007864 <UART_SetConfig+0x100>
 800787c:	6a61      	ldr	r1, [r4, #36]	@ 0x24
 800787e:	4b21      	ldr	r3, [pc, #132]	@ (8007904 <UART_SetConfig+0x1a0>)
 8007880:	6862      	ldr	r2, [r4, #4]
 8007882:	f833 3011 	ldrh.w	r3, [r3, r1, lsl #1]
 8007886:	fbb0 f0f3 	udiv	r0, r0, r3
 800788a:	0853      	lsrs	r3, r2, #1
 800788c:	eb03 0340 	add.w	r3, r3, r0, lsl #1
 8007890:	fbb3 f3f2 	udiv	r3, r3, r2
 8007894:	f64f 72ef 	movw	r2, #65519	@ 0xffef
 8007898:	f1a3 0110 	sub.w	r1, r3, #16
 800789c:	4291      	cmp	r1, r2
 800789e:	d8bc      	bhi.n	800781a <UART_SetConfig+0xb6>
 80078a0:	f023 020f 	bic.w	r2, r3, #15
 80078a4:	6821      	ldr	r1, [r4, #0]
 80078a6:	b292      	uxth	r2, r2
 80078a8:	f3c3 0342 	ubfx	r3, r3, #1, #3
 80078ac:	4313      	orrs	r3, r2
 80078ae:	60cb      	str	r3, [r1, #12]
 80078b0:	e7d8      	b.n	8007864 <UART_SetConfig+0x100>
 80078b2:	2002      	movs	r0, #2
 80078b4:	e7d9      	b.n	800786a <UART_SetConfig+0x106>
 80078b6:	2004      	movs	r0, #4
 80078b8:	e7d7      	b.n	800786a <UART_SetConfig+0x106>
 80078ba:	2008      	movs	r0, #8
 80078bc:	e7d5      	b.n	800786a <UART_SetConfig+0x106>
 80078be:	2010      	movs	r0, #16
 80078c0:	e7d3      	b.n	800786a <UART_SetConfig+0x106>
 80078c2:	f04f 5000 	mov.w	r0, #536870912	@ 0x20000000
 80078c6:	e7d0      	b.n	800786a <UART_SetConfig+0x106>
 80078c8:	f7fd fcd6 	bl	8005278 <HAL_RCCEx_GetPeriphCLKFreq>
 80078cc:	2800      	cmp	r0, #0
 80078ce:	d0c9      	beq.n	8007864 <UART_SetConfig+0x100>
 80078d0:	6a61      	ldr	r1, [r4, #36]	@ 0x24
 80078d2:	4b0c      	ldr	r3, [pc, #48]	@ (8007904 <UART_SetConfig+0x1a0>)
 80078d4:	6862      	ldr	r2, [r4, #4]
 80078d6:	f833 3011 	ldrh.w	r3, [r3, r1, lsl #1]
 80078da:	fbb0 f3f3 	udiv	r3, r0, r3
 80078de:	eb03 0352 	add.w	r3, r3, r2, lsr #1
 80078e2:	fbb3 f3f2 	udiv	r3, r3, r2
 80078e6:	f64f 72ef 	movw	r2, #65519	@ 0xffef
 80078ea:	f1a3 0110 	sub.w	r1, r3, #16
 80078ee:	4291      	cmp	r1, r2
 80078f0:	d893      	bhi.n	800781a <UART_SetConfig+0xb6>
 80078f2:	6822      	ldr	r2, [r4, #0]
 80078f4:	60d3      	str	r3, [r2, #12]
 80078f6:	e7b5      	b.n	8007864 <UART_SetConfig+0x100>
 80078f8:	cfff69f3 	.word	0xcfff69f3
 80078fc:	46002400 	.word	0x46002400
 8007900:	40013800 	.word	0x40013800
 8007904:	08009490 	.word	0x08009490
 8007908:	000ffcff 	.word	0x000ffcff

0800790c <UART_AdvFeatureConfig>:
 800790c:	6a83      	ldr	r3, [r0, #40]	@ 0x28
 800790e:	b510      	push	{r4, lr}
 8007910:	071a      	lsls	r2, r3, #28
 8007912:	d506      	bpl.n	8007922 <UART_AdvFeatureConfig+0x16>
 8007914:	6801      	ldr	r1, [r0, #0]
 8007916:	6b84      	ldr	r4, [r0, #56]	@ 0x38
 8007918:	684a      	ldr	r2, [r1, #4]
 800791a:	f422 4200 	bic.w	r2, r2, #32768	@ 0x8000
 800791e:	4322      	orrs	r2, r4
 8007920:	604a      	str	r2, [r1, #4]
 8007922:	07dc      	lsls	r4, r3, #31
 8007924:	d506      	bpl.n	8007934 <UART_AdvFeatureConfig+0x28>
 8007926:	6801      	ldr	r1, [r0, #0]
 8007928:	6ac4      	ldr	r4, [r0, #44]	@ 0x2c
 800792a:	684a      	ldr	r2, [r1, #4]
 800792c:	f422 3200 	bic.w	r2, r2, #131072	@ 0x20000
 8007930:	4322      	orrs	r2, r4
 8007932:	604a      	str	r2, [r1, #4]
 8007934:	0799      	lsls	r1, r3, #30
 8007936:	d506      	bpl.n	8007946 <UART_AdvFeatureConfig+0x3a>
 8007938:	6801      	ldr	r1, [r0, #0]
 800793a:	6b04      	ldr	r4, [r0, #48]	@ 0x30
 800793c:	684a      	ldr	r2, [r1, #4]
 800793e:	f422 3280 	bic.w	r2, r2, #65536	@ 0x10000
 8007942:	4322      	orrs	r2, r4
 8007944:	604a      	str	r2, [r1, #4]
 8007946:	075a      	lsls	r2, r3, #29
 8007948:	d506      	bpl.n	8007958 <UART_AdvFeatureConfig+0x4c>
 800794a:	6801      	ldr	r1, [r0, #0]
 800794c:	6b44      	ldr	r4, [r0, #52]	@ 0x34
 800794e:	684a      	ldr	r2, [r1, #4]
 8007950:	f422 2280 	bic.w	r2, r2, #262144	@ 0x40000
 8007954:	4322      	orrs	r2, r4
 8007956:	604a      	str	r2, [r1, #4]
 8007958:	06dc      	lsls	r4, r3, #27
 800795a:	d506      	bpl.n	800796a <UART_AdvFeatureConfig+0x5e>
 800795c:	6801      	ldr	r1, [r0, #0]
 800795e:	6bc4      	ldr	r4, [r0, #60]	@ 0x3c
 8007960:	688a      	ldr	r2, [r1, #8]
 8007962:	f422 5280 	bic.w	r2, r2, #4096	@ 0x1000
 8007966:	4322      	orrs	r2, r4
 8007968:	608a      	str	r2, [r1, #8]
 800796a:	0699      	lsls	r1, r3, #26
 800796c:	d506      	bpl.n	800797c <UART_AdvFeatureConfig+0x70>
 800796e:	6801      	ldr	r1, [r0, #0]
 8007970:	6c04      	ldr	r4, [r0, #64]	@ 0x40
 8007972:	688a      	ldr	r2, [r1, #8]
 8007974:	f422 5200 	bic.w	r2, r2, #8192	@ 0x2000
 8007978:	4322      	orrs	r2, r4
 800797a:	608a      	str	r2, [r1, #8]
 800797c:	065a      	lsls	r2, r3, #25
 800797e:	d510      	bpl.n	80079a2 <UART_AdvFeatureConfig+0x96>
 8007980:	6801      	ldr	r1, [r0, #0]
 8007982:	6c44      	ldr	r4, [r0, #68]	@ 0x44
 8007984:	684a      	ldr	r2, [r1, #4]
 8007986:	f5b4 1f80 	cmp.w	r4, #1048576	@ 0x100000
 800798a:	f422 1280 	bic.w	r2, r2, #1048576	@ 0x100000
 800798e:	ea42 0204 	orr.w	r2, r2, r4
 8007992:	604a      	str	r2, [r1, #4]
 8007994:	d105      	bne.n	80079a2 <UART_AdvFeatureConfig+0x96>
 8007996:	684a      	ldr	r2, [r1, #4]
 8007998:	6c84      	ldr	r4, [r0, #72]	@ 0x48
 800799a:	f422 02c0 	bic.w	r2, r2, #6291456	@ 0x600000
 800799e:	4322      	orrs	r2, r4
 80079a0:	604a      	str	r2, [r1, #4]
 80079a2:	061b      	lsls	r3, r3, #24
 80079a4:	d506      	bpl.n	80079b4 <UART_AdvFeatureConfig+0xa8>
 80079a6:	6802      	ldr	r2, [r0, #0]
 80079a8:	6cc1      	ldr	r1, [r0, #76]	@ 0x4c
 80079aa:	6853      	ldr	r3, [r2, #4]
 80079ac:	f423 2300 	bic.w	r3, r3, #524288	@ 0x80000
 80079b0:	430b      	orrs	r3, r1
 80079b2:	6053      	str	r3, [r2, #4]
 80079b4:	bd10      	pop	{r4, pc}

080079b6 <UART_WaitOnFlagUntilTimeout>:
 80079b6:	e92d 43f8 	stmdb	sp!, {r3, r4, r5, r6, r7, r8, r9, lr}
 80079ba:	4604      	mov	r4, r0
 80079bc:	460d      	mov	r5, r1
 80079be:	4617      	mov	r7, r2
 80079c0:	4698      	mov	r8, r3
 80079c2:	f8dd 9020 	ldr.w	r9, [sp, #32]
 80079c6:	6822      	ldr	r2, [r4, #0]
 80079c8:	69d3      	ldr	r3, [r2, #28]
 80079ca:	ea35 0303 	bics.w	r3, r5, r3
 80079ce:	bf0c      	ite	eq
 80079d0:	2301      	moveq	r3, #1
 80079d2:	2300      	movne	r3, #0
 80079d4:	42bb      	cmp	r3, r7
 80079d6:	d001      	beq.n	80079dc <UART_WaitOnFlagUntilTimeout+0x26>
 80079d8:	2000      	movs	r0, #0
 80079da:	e022      	b.n	8007a22 <UART_WaitOnFlagUntilTimeout+0x6c>
 80079dc:	f1b9 3fff 	cmp.w	r9, #4294967295
 80079e0:	d0f2      	beq.n	80079c8 <UART_WaitOnFlagUntilTimeout+0x12>
 80079e2:	f7fb f959 	bl	8002c98 <HAL_GetTick>
 80079e6:	eba0 0008 	sub.w	r0, r0, r8
 80079ea:	4548      	cmp	r0, r9
 80079ec:	d829      	bhi.n	8007a42 <UART_WaitOnFlagUntilTimeout+0x8c>
 80079ee:	f1b9 0f00 	cmp.w	r9, #0
 80079f2:	d026      	beq.n	8007a42 <UART_WaitOnFlagUntilTimeout+0x8c>
 80079f4:	6821      	ldr	r1, [r4, #0]
 80079f6:	680b      	ldr	r3, [r1, #0]
 80079f8:	075a      	lsls	r2, r3, #29
 80079fa:	d5e4      	bpl.n	80079c6 <UART_WaitOnFlagUntilTimeout+0x10>
 80079fc:	2d80      	cmp	r5, #128	@ 0x80
 80079fe:	d0e2      	beq.n	80079c6 <UART_WaitOnFlagUntilTimeout+0x10>
 8007a00:	2d40      	cmp	r5, #64	@ 0x40
 8007a02:	d0e0      	beq.n	80079c6 <UART_WaitOnFlagUntilTimeout+0x10>
 8007a04:	69ce      	ldr	r6, [r1, #28]
 8007a06:	f016 0608 	ands.w	r6, r6, #8
 8007a0a:	d00c      	beq.n	8007a26 <UART_WaitOnFlagUntilTimeout+0x70>
 8007a0c:	2508      	movs	r5, #8
 8007a0e:	4620      	mov	r0, r4
 8007a10:	620d      	str	r5, [r1, #32]
 8007a12:	f7ff fc57 	bl	80072c4 <UART_EndRxTransfer>
 8007a16:	2300      	movs	r3, #0
 8007a18:	2001      	movs	r0, #1
 8007a1a:	f8c4 5090 	str.w	r5, [r4, #144]	@ 0x90
 8007a1e:	f884 3084 	strb.w	r3, [r4, #132]	@ 0x84
 8007a22:	e8bd 83f8 	ldmia.w	sp!, {r3, r4, r5, r6, r7, r8, r9, pc}
 8007a26:	69cb      	ldr	r3, [r1, #28]
 8007a28:	051b      	lsls	r3, r3, #20
 8007a2a:	d5cc      	bpl.n	80079c6 <UART_WaitOnFlagUntilTimeout+0x10>
 8007a2c:	f44f 6300 	mov.w	r3, #2048	@ 0x800
 8007a30:	4620      	mov	r0, r4
 8007a32:	620b      	str	r3, [r1, #32]
 8007a34:	f7ff fc46 	bl	80072c4 <UART_EndRxTransfer>
 8007a38:	2320      	movs	r3, #32
 8007a3a:	f884 6084 	strb.w	r6, [r4, #132]	@ 0x84
 8007a3e:	f8c4 3090 	str.w	r3, [r4, #144]	@ 0x90
 8007a42:	2003      	movs	r0, #3
 8007a44:	e7ed      	b.n	8007a22 <UART_WaitOnFlagUntilTimeout+0x6c>

08007a46 <UART_CheckIdleState>:
 8007a46:	b573      	push	{r0, r1, r4, r5, r6, lr}
 8007a48:	2600      	movs	r6, #0
 8007a4a:	4604      	mov	r4, r0
 8007a4c:	f8c0 6090 	str.w	r6, [r0, #144]	@ 0x90
 8007a50:	f7fb f922 	bl	8002c98 <HAL_GetTick>
 8007a54:	6823      	ldr	r3, [r4, #0]
 8007a56:	4605      	mov	r5, r0
 8007a58:	681b      	ldr	r3, [r3, #0]
 8007a5a:	071a      	lsls	r2, r3, #28
 8007a5c:	d51c      	bpl.n	8007a98 <UART_CheckIdleState+0x52>
 8007a5e:	f06f 437e 	mvn.w	r3, #4261412864	@ 0xfe000000
 8007a62:	4632      	mov	r2, r6
 8007a64:	9300      	str	r3, [sp, #0]
 8007a66:	f44f 1100 	mov.w	r1, #2097152	@ 0x200000
 8007a6a:	4603      	mov	r3, r0
 8007a6c:	4620      	mov	r0, r4
 8007a6e:	f7ff ffa2 	bl	80079b6 <UART_WaitOnFlagUntilTimeout>
 8007a72:	b188      	cbz	r0, 8007a98 <UART_CheckIdleState+0x52>
 8007a74:	6822      	ldr	r2, [r4, #0]
 8007a76:	e852 3f00 	ldrex	r3, [r2]
 8007a7a:	f023 0380 	bic.w	r3, r3, #128	@ 0x80
 8007a7e:	e842 3100 	strex	r1, r3, [r2]
 8007a82:	2900      	cmp	r1, #0
 8007a84:	d1f6      	bne.n	8007a74 <UART_CheckIdleState+0x2e>
 8007a86:	2320      	movs	r3, #32
 8007a88:	f8c4 3088 	str.w	r3, [r4, #136]	@ 0x88
 8007a8c:	2003      	movs	r0, #3
 8007a8e:	2300      	movs	r3, #0
 8007a90:	f884 3084 	strb.w	r3, [r4, #132]	@ 0x84
 8007a94:	b002      	add	sp, #8
 8007a96:	bd70      	pop	{r4, r5, r6, pc}
 8007a98:	6823      	ldr	r3, [r4, #0]
 8007a9a:	681b      	ldr	r3, [r3, #0]
 8007a9c:	075b      	lsls	r3, r3, #29
 8007a9e:	d524      	bpl.n	8007aea <UART_CheckIdleState+0xa4>
 8007aa0:	f06f 437e 	mvn.w	r3, #4261412864	@ 0xfe000000
 8007aa4:	2200      	movs	r2, #0
 8007aa6:	9300      	str	r3, [sp, #0]
 8007aa8:	f44f 0180 	mov.w	r1, #4194304	@ 0x400000
 8007aac:	462b      	mov	r3, r5
 8007aae:	4620      	mov	r0, r4
 8007ab0:	f7ff ff81 	bl	80079b6 <UART_WaitOnFlagUntilTimeout>
 8007ab4:	b1c8      	cbz	r0, 8007aea <UART_CheckIdleState+0xa4>
 8007ab6:	6822      	ldr	r2, [r4, #0]
 8007ab8:	e852 3f00 	ldrex	r3, [r2]
 8007abc:	f423 7390 	bic.w	r3, r3, #288	@ 0x120
 8007ac0:	e842 3100 	strex	r1, r3, [r2]
 8007ac4:	6822      	ldr	r2, [r4, #0]
 8007ac6:	2900      	cmp	r1, #0
 8007ac8:	d1f5      	bne.n	8007ab6 <UART_CheckIdleState+0x70>
 8007aca:	f102 0308 	add.w	r3, r2, #8
 8007ace:	e853 3f00 	ldrex	r3, [r3]
 8007ad2:	f023 0301 	bic.w	r3, r3, #1
 8007ad6:	f102 0008 	add.w	r0, r2, #8
 8007ada:	e840 3100 	strex	r1, r3, [r0]
 8007ade:	2900      	cmp	r1, #0
 8007ae0:	d1f3      	bne.n	8007aca <UART_CheckIdleState+0x84>
 8007ae2:	2320      	movs	r3, #32
 8007ae4:	f8c4 308c 	str.w	r3, [r4, #140]	@ 0x8c
 8007ae8:	e7d0      	b.n	8007a8c <UART_CheckIdleState+0x46>
 8007aea:	2320      	movs	r3, #32
 8007aec:	2000      	movs	r0, #0
 8007aee:	f8c4 3088 	str.w	r3, [r4, #136]	@ 0x88
 8007af2:	f8c4 308c 	str.w	r3, [r4, #140]	@ 0x8c
 8007af6:	66e0      	str	r0, [r4, #108]	@ 0x6c
 8007af8:	6720      	str	r0, [r4, #112]	@ 0x70
 8007afa:	e7c8      	b.n	8007a8e <UART_CheckIdleState+0x48>

08007afc <HAL_UART_Init>:
 8007afc:	b510      	push	{r4, lr}
 8007afe:	4604      	mov	r4, r0
 8007b00:	b350      	cbz	r0, 8007b58 <HAL_UART_Init+0x5c>
 8007b02:	f8d0 3088 	ldr.w	r3, [r0, #136]	@ 0x88
 8007b06:	b91b      	cbnz	r3, 8007b10 <HAL_UART_Init+0x14>
 8007b08:	f880 3084 	strb.w	r3, [r0, #132]	@ 0x84
 8007b0c:	f7fa fe8c 	bl	8002828 <HAL_UART_MspInit>
 8007b10:	2324      	movs	r3, #36	@ 0x24
 8007b12:	6822      	ldr	r2, [r4, #0]
 8007b14:	f8c4 3088 	str.w	r3, [r4, #136]	@ 0x88
 8007b18:	6813      	ldr	r3, [r2, #0]
 8007b1a:	f023 0301 	bic.w	r3, r3, #1
 8007b1e:	6013      	str	r3, [r2, #0]
 8007b20:	6aa3      	ldr	r3, [r4, #40]	@ 0x28
 8007b22:	b113      	cbz	r3, 8007b2a <HAL_UART_Init+0x2e>
 8007b24:	4620      	mov	r0, r4
 8007b26:	f7ff fef1 	bl	800790c <UART_AdvFeatureConfig>
 8007b2a:	4620      	mov	r0, r4
 8007b2c:	f7ff fe1a 	bl	8007764 <UART_SetConfig>
 8007b30:	2801      	cmp	r0, #1
 8007b32:	d011      	beq.n	8007b58 <HAL_UART_Init+0x5c>
 8007b34:	6823      	ldr	r3, [r4, #0]
 8007b36:	4620      	mov	r0, r4
 8007b38:	e8bd 4010 	ldmia.w	sp!, {r4, lr}
 8007b3c:	685a      	ldr	r2, [r3, #4]
 8007b3e:	f422 4290 	bic.w	r2, r2, #18432	@ 0x4800
 8007b42:	605a      	str	r2, [r3, #4]
 8007b44:	689a      	ldr	r2, [r3, #8]
 8007b46:	f022 022a 	bic.w	r2, r2, #42	@ 0x2a
 8007b4a:	609a      	str	r2, [r3, #8]
 8007b4c:	681a      	ldr	r2, [r3, #0]
 8007b4e:	f042 0201 	orr.w	r2, r2, #1
 8007b52:	601a      	str	r2, [r3, #0]
 8007b54:	f7ff bf77 	b.w	8007a46 <UART_CheckIdleState>
 8007b58:	2001      	movs	r0, #1
 8007b5a:	bd10      	pop	{r4, pc}

08007b5c <UARTEx_SetNbDataToProcess>:
 8007b5c:	6e43      	ldr	r3, [r0, #100]	@ 0x64
 8007b5e:	b530      	push	{r4, r5, lr}
 8007b60:	b92b      	cbnz	r3, 8007b6e <UARTEx_SetNbDataToProcess+0x12>
 8007b62:	2301      	movs	r3, #1
 8007b64:	f8a0 306a 	strh.w	r3, [r0, #106]	@ 0x6a
 8007b68:	f8a0 3068 	strh.w	r3, [r0, #104]	@ 0x68
 8007b6c:	bd30      	pop	{r4, r5, pc}
 8007b6e:	6803      	ldr	r3, [r0, #0]
 8007b70:	4d09      	ldr	r5, [pc, #36]	@ (8007b98 <UARTEx_SetNbDataToProcess+0x3c>)
 8007b72:	689a      	ldr	r2, [r3, #8]
 8007b74:	6899      	ldr	r1, [r3, #8]
 8007b76:	4c09      	ldr	r4, [pc, #36]	@ (8007b9c <UARTEx_SetNbDataToProcess+0x40>)
 8007b78:	0f49      	lsrs	r1, r1, #29
 8007b7a:	5c6b      	ldrb	r3, [r5, r1]
 8007b7c:	5c61      	ldrb	r1, [r4, r1]
 8007b7e:	00db      	lsls	r3, r3, #3
 8007b80:	fbb3 f3f1 	udiv	r3, r3, r1
 8007b84:	f3c2 6242 	ubfx	r2, r2, #25, #3
 8007b88:	f8a0 306a 	strh.w	r3, [r0, #106]	@ 0x6a
 8007b8c:	5cab      	ldrb	r3, [r5, r2]
 8007b8e:	5ca2      	ldrb	r2, [r4, r2]
 8007b90:	00db      	lsls	r3, r3, #3
 8007b92:	fbb3 f3f2 	udiv	r3, r3, r2
 8007b96:	e7e7      	b.n	8007b68 <UARTEx_SetNbDataToProcess+0xc>
 8007b98:	080094b0 	.word	0x080094b0
 8007b9c:	080094a8 	.word	0x080094a8

08007ba0 <HAL_UARTEx_RxFifoFullCallback>:
 8007ba0:	4770      	bx	lr

08007ba2 <HAL_UARTEx_TxFifoEmptyCallback>:
 8007ba2:	4770      	bx	lr

08007ba4 <HAL_UARTEx_DisableFifoMode>:
 8007ba4:	f890 3084 	ldrb.w	r3, [r0, #132]	@ 0x84
 8007ba8:	2b01      	cmp	r3, #1
 8007baa:	d014      	beq.n	8007bd6 <HAL_UARTEx_DisableFifoMode+0x32>
 8007bac:	2324      	movs	r3, #36	@ 0x24
 8007bae:	6802      	ldr	r2, [r0, #0]
 8007bb0:	f8c0 3088 	str.w	r3, [r0, #136]	@ 0x88
 8007bb4:	6811      	ldr	r1, [r2, #0]
 8007bb6:	6813      	ldr	r3, [r2, #0]
 8007bb8:	f021 5100 	bic.w	r1, r1, #536870912	@ 0x20000000
 8007bbc:	f023 0301 	bic.w	r3, r3, #1
 8007bc0:	6013      	str	r3, [r2, #0]
 8007bc2:	2300      	movs	r3, #0
 8007bc4:	6643      	str	r3, [r0, #100]	@ 0x64
 8007bc6:	6011      	str	r1, [r2, #0]
 8007bc8:	2220      	movs	r2, #32
 8007bca:	f880 3084 	strb.w	r3, [r0, #132]	@ 0x84
 8007bce:	f8c0 2088 	str.w	r2, [r0, #136]	@ 0x88
 8007bd2:	4618      	mov	r0, r3
 8007bd4:	4770      	bx	lr
 8007bd6:	2002      	movs	r0, #2
 8007bd8:	4770      	bx	lr

08007bda <HAL_UARTEx_SetTxFifoThreshold>:
 8007bda:	b570      	push	{r4, r5, r6, lr}
 8007bdc:	f890 3084 	ldrb.w	r3, [r0, #132]	@ 0x84
 8007be0:	4604      	mov	r4, r0
 8007be2:	2b01      	cmp	r3, #1
 8007be4:	d017      	beq.n	8007c16 <HAL_UARTEx_SetTxFifoThreshold+0x3c>
 8007be6:	2324      	movs	r3, #36	@ 0x24
 8007be8:	6805      	ldr	r5, [r0, #0]
 8007bea:	f8c0 3088 	str.w	r3, [r0, #136]	@ 0x88
 8007bee:	682e      	ldr	r6, [r5, #0]
 8007bf0:	682b      	ldr	r3, [r5, #0]
 8007bf2:	f023 0301 	bic.w	r3, r3, #1
 8007bf6:	602b      	str	r3, [r5, #0]
 8007bf8:	68ab      	ldr	r3, [r5, #8]
 8007bfa:	f023 4360 	bic.w	r3, r3, #3758096384	@ 0xe0000000
 8007bfe:	4319      	orrs	r1, r3
 8007c00:	60a9      	str	r1, [r5, #8]
 8007c02:	f7ff ffab 	bl	8007b5c <UARTEx_SetNbDataToProcess>
 8007c06:	2320      	movs	r3, #32
 8007c08:	602e      	str	r6, [r5, #0]
 8007c0a:	f8c0 3088 	str.w	r3, [r0, #136]	@ 0x88
 8007c0e:	2000      	movs	r0, #0
 8007c10:	f884 0084 	strb.w	r0, [r4, #132]	@ 0x84
 8007c14:	bd70      	pop	{r4, r5, r6, pc}
 8007c16:	2002      	movs	r0, #2
 8007c18:	e7fc      	b.n	8007c14 <HAL_UARTEx_SetTxFifoThreshold+0x3a>

08007c1a <HAL_UARTEx_SetRxFifoThreshold>:
 8007c1a:	b570      	push	{r4, r5, r6, lr}
 8007c1c:	f890 3084 	ldrb.w	r3, [r0, #132]	@ 0x84
 8007c20:	4604      	mov	r4, r0
 8007c22:	2b01      	cmp	r3, #1
 8007c24:	d017      	beq.n	8007c56 <HAL_UARTEx_SetRxFifoThreshold+0x3c>
 8007c26:	2324      	movs	r3, #36	@ 0x24
 8007c28:	6805      	ldr	r5, [r0, #0]
 8007c2a:	f8c0 3088 	str.w	r3, [r0, #136]	@ 0x88
 8007c2e:	682e      	ldr	r6, [r5, #0]
 8007c30:	682b      	ldr	r3, [r5, #0]
 8007c32:	f023 0301 	bic.w	r3, r3, #1
 8007c36:	602b      	str	r3, [r5, #0]
 8007c38:	68ab      	ldr	r3, [r5, #8]
 8007c3a:	f023 6360 	bic.w	r3, r3, #234881024	@ 0xe000000
 8007c3e:	4319      	orrs	r1, r3
 8007c40:	60a9      	str	r1, [r5, #8]
 8007c42:	f7ff ff8b 	bl	8007b5c <UARTEx_SetNbDataToProcess>
 8007c46:	2320      	movs	r3, #32
 8007c48:	602e      	str	r6, [r5, #0]
 8007c4a:	f8c0 3088 	str.w	r3, [r0, #136]	@ 0x88
 8007c4e:	2000      	movs	r0, #0
 8007c50:	f884 0084 	strb.w	r0, [r4, #132]	@ 0x84
 8007c54:	bd70      	pop	{r4, r5, r6, pc}
 8007c56:	2002      	movs	r0, #2
 8007c58:	e7fc      	b.n	8007c54 <HAL_UARTEx_SetRxFifoThreshold+0x3a>
	...

08007c5c <malloc>:
 8007c5c:	4b02      	ldr	r3, [pc, #8]	@ (8007c68 <malloc+0xc>)
 8007c5e:	4601      	mov	r1, r0
 8007c60:	6818      	ldr	r0, [r3, #0]
 8007c62:	f000 b82d 	b.w	8007cc0 <_malloc_r>
 8007c66:	bf00      	nop
 8007c68:	20000018 	.word	0x20000018

08007c6c <free>:
 8007c6c:	4b02      	ldr	r3, [pc, #8]	@ (8007c78 <free+0xc>)
 8007c6e:	4601      	mov	r1, r0
 8007c70:	6818      	ldr	r0, [r3, #0]
 8007c72:	f000 b8f5 	b.w	8007e60 <_free_r>
 8007c76:	bf00      	nop
 8007c78:	20000018 	.word	0x20000018

08007c7c <sbrk_aligned>:
 8007c7c:	b570      	push	{r4, r5, r6, lr}
 8007c7e:	4e0f      	ldr	r6, [pc, #60]	@ (8007cbc <sbrk_aligned+0x40>)
 8007c80:	460c      	mov	r4, r1
 8007c82:	4605      	mov	r5, r0
 8007c84:	6831      	ldr	r1, [r6, #0]
 8007c86:	b911      	cbnz	r1, 8007c8e <sbrk_aligned+0x12>
 8007c88:	f000 f8ae 	bl	8007de8 <_sbrk_r>
 8007c8c:	6030      	str	r0, [r6, #0]
 8007c8e:	4621      	mov	r1, r4
 8007c90:	4628      	mov	r0, r5
 8007c92:	f000 f8a9 	bl	8007de8 <_sbrk_r>
 8007c96:	1c43      	adds	r3, r0, #1
 8007c98:	d103      	bne.n	8007ca2 <sbrk_aligned+0x26>
 8007c9a:	f04f 34ff 	mov.w	r4, #4294967295
 8007c9e:	4620      	mov	r0, r4
 8007ca0:	bd70      	pop	{r4, r5, r6, pc}
 8007ca2:	1cc4      	adds	r4, r0, #3
 8007ca4:	f024 0403 	bic.w	r4, r4, #3
 8007ca8:	42a0      	cmp	r0, r4
 8007caa:	d0f8      	beq.n	8007c9e <sbrk_aligned+0x22>
 8007cac:	1a21      	subs	r1, r4, r0
 8007cae:	4628      	mov	r0, r5
 8007cb0:	f000 f89a 	bl	8007de8 <_sbrk_r>
 8007cb4:	3001      	adds	r0, #1
 8007cb6:	d1f2      	bne.n	8007c9e <sbrk_aligned+0x22>
 8007cb8:	e7ef      	b.n	8007c9a <sbrk_aligned+0x1e>
 8007cba:	bf00      	nop
 8007cbc:	20000718 	.word	0x20000718

08007cc0 <_malloc_r>:
 8007cc0:	e92d 43f8 	stmdb	sp!, {r3, r4, r5, r6, r7, r8, r9, lr}
 8007cc4:	1ccd      	adds	r5, r1, #3
 8007cc6:	4606      	mov	r6, r0
 8007cc8:	f025 0503 	bic.w	r5, r5, #3
 8007ccc:	3508      	adds	r5, #8
 8007cce:	2d0c      	cmp	r5, #12
 8007cd0:	bf38      	it	cc
 8007cd2:	250c      	movcc	r5, #12
 8007cd4:	2d00      	cmp	r5, #0
 8007cd6:	db01      	blt.n	8007cdc <_malloc_r+0x1c>
 8007cd8:	42a9      	cmp	r1, r5
 8007cda:	d904      	bls.n	8007ce6 <_malloc_r+0x26>
 8007cdc:	230c      	movs	r3, #12
 8007cde:	6033      	str	r3, [r6, #0]
 8007ce0:	2000      	movs	r0, #0
 8007ce2:	e8bd 83f8 	ldmia.w	sp!, {r3, r4, r5, r6, r7, r8, r9, pc}
 8007ce6:	f8df 80d4 	ldr.w	r8, [pc, #212]	@ 8007dbc <_malloc_r+0xfc>
 8007cea:	f000 f869 	bl	8007dc0 <__malloc_lock>
 8007cee:	f8d8 3000 	ldr.w	r3, [r8]
 8007cf2:	461c      	mov	r4, r3
 8007cf4:	bb44      	cbnz	r4, 8007d48 <_malloc_r+0x88>
 8007cf6:	4629      	mov	r1, r5
 8007cf8:	4630      	mov	r0, r6
 8007cfa:	f7ff ffbf 	bl	8007c7c <sbrk_aligned>
 8007cfe:	1c43      	adds	r3, r0, #1
 8007d00:	4604      	mov	r4, r0
 8007d02:	d158      	bne.n	8007db6 <_malloc_r+0xf6>
 8007d04:	f8d8 4000 	ldr.w	r4, [r8]
 8007d08:	4627      	mov	r7, r4
 8007d0a:	2f00      	cmp	r7, #0
 8007d0c:	d143      	bne.n	8007d96 <_malloc_r+0xd6>
 8007d0e:	2c00      	cmp	r4, #0
 8007d10:	d04b      	beq.n	8007daa <_malloc_r+0xea>
 8007d12:	6823      	ldr	r3, [r4, #0]
 8007d14:	4639      	mov	r1, r7
 8007d16:	4630      	mov	r0, r6
 8007d18:	eb04 0903 	add.w	r9, r4, r3
 8007d1c:	f000 f864 	bl	8007de8 <_sbrk_r>
 8007d20:	4581      	cmp	r9, r0
 8007d22:	d142      	bne.n	8007daa <_malloc_r+0xea>
 8007d24:	6821      	ldr	r1, [r4, #0]
 8007d26:	4630      	mov	r0, r6
 8007d28:	1a6d      	subs	r5, r5, r1
 8007d2a:	4629      	mov	r1, r5
 8007d2c:	f7ff ffa6 	bl	8007c7c <sbrk_aligned>
 8007d30:	3001      	adds	r0, #1
 8007d32:	d03a      	beq.n	8007daa <_malloc_r+0xea>
 8007d34:	6823      	ldr	r3, [r4, #0]
 8007d36:	442b      	add	r3, r5
 8007d38:	6023      	str	r3, [r4, #0]
 8007d3a:	f8d8 3000 	ldr.w	r3, [r8]
 8007d3e:	685a      	ldr	r2, [r3, #4]
 8007d40:	bb62      	cbnz	r2, 8007d9c <_malloc_r+0xdc>
 8007d42:	f8c8 7000 	str.w	r7, [r8]
 8007d46:	e00f      	b.n	8007d68 <_malloc_r+0xa8>
 8007d48:	6822      	ldr	r2, [r4, #0]
 8007d4a:	1b52      	subs	r2, r2, r5
 8007d4c:	d420      	bmi.n	8007d90 <_malloc_r+0xd0>
 8007d4e:	2a0b      	cmp	r2, #11
 8007d50:	d917      	bls.n	8007d82 <_malloc_r+0xc2>
 8007d52:	1961      	adds	r1, r4, r5
 8007d54:	42a3      	cmp	r3, r4
 8007d56:	6025      	str	r5, [r4, #0]
 8007d58:	bf18      	it	ne
 8007d5a:	6059      	strne	r1, [r3, #4]
 8007d5c:	6863      	ldr	r3, [r4, #4]
 8007d5e:	bf08      	it	eq
 8007d60:	f8c8 1000 	streq.w	r1, [r8]
 8007d64:	5162      	str	r2, [r4, r5]
 8007d66:	604b      	str	r3, [r1, #4]
 8007d68:	4630      	mov	r0, r6
 8007d6a:	f000 f82f 	bl	8007dcc <__malloc_unlock>
 8007d6e:	f104 000b 	add.w	r0, r4, #11
 8007d72:	1d23      	adds	r3, r4, #4
 8007d74:	f020 0007 	bic.w	r0, r0, #7
 8007d78:	1ac2      	subs	r2, r0, r3
 8007d7a:	bf1c      	itt	ne
 8007d7c:	1a1b      	subne	r3, r3, r0
 8007d7e:	50a3      	strne	r3, [r4, r2]
 8007d80:	e7af      	b.n	8007ce2 <_malloc_r+0x22>
 8007d82:	6862      	ldr	r2, [r4, #4]
 8007d84:	42a3      	cmp	r3, r4
 8007d86:	bf0c      	ite	eq
 8007d88:	f8c8 2000 	streq.w	r2, [r8]
 8007d8c:	605a      	strne	r2, [r3, #4]
 8007d8e:	e7eb      	b.n	8007d68 <_malloc_r+0xa8>
 8007d90:	4623      	mov	r3, r4
 8007d92:	6864      	ldr	r4, [r4, #4]
 8007d94:	e7ae      	b.n	8007cf4 <_malloc_r+0x34>
 8007d96:	463c      	mov	r4, r7
 8007d98:	687f      	ldr	r7, [r7, #4]
 8007d9a:	e7b6      	b.n	8007d0a <_malloc_r+0x4a>
 8007d9c:	461a      	mov	r2, r3
 8007d9e:	685b      	ldr	r3, [r3, #4]
 8007da0:	42a3      	cmp	r3, r4
 8007da2:	d1fb      	bne.n	8007d9c <_malloc_r+0xdc>
 8007da4:	2300      	movs	r3, #0
 8007da6:	6053      	str	r3, [r2, #4]
 8007da8:	e7de      	b.n	8007d68 <_malloc_r+0xa8>
 8007daa:	230c      	movs	r3, #12
 8007dac:	4630      	mov	r0, r6
 8007dae:	6033      	str	r3, [r6, #0]
 8007db0:	f000 f80c 	bl	8007dcc <__malloc_unlock>
 8007db4:	e794      	b.n	8007ce0 <_malloc_r+0x20>
 8007db6:	6005      	str	r5, [r0, #0]
 8007db8:	e7d6      	b.n	8007d68 <_malloc_r+0xa8>
 8007dba:	bf00      	nop
 8007dbc:	2000071c 	.word	0x2000071c

08007dc0 <__malloc_lock>:
 8007dc0:	4801      	ldr	r0, [pc, #4]	@ (8007dc8 <__malloc_lock+0x8>)
 8007dc2:	f000 b84b 	b.w	8007e5c <__retarget_lock_acquire_recursive>
 8007dc6:	bf00      	nop
 8007dc8:	2000085c 	.word	0x2000085c

08007dcc <__malloc_unlock>:
 8007dcc:	4801      	ldr	r0, [pc, #4]	@ (8007dd4 <__malloc_unlock+0x8>)
 8007dce:	f000 b846 	b.w	8007e5e <__retarget_lock_release_recursive>
 8007dd2:	bf00      	nop
 8007dd4:	2000085c 	.word	0x2000085c

08007dd8 <memset>:
 8007dd8:	4402      	add	r2, r0
 8007dda:	4603      	mov	r3, r0
 8007ddc:	4293      	cmp	r3, r2
 8007dde:	d100      	bne.n	8007de2 <memset+0xa>
 8007de0:	4770      	bx	lr
 8007de2:	f803 1b01 	strb.w	r1, [r3], #1
 8007de6:	e7f9      	b.n	8007ddc <memset+0x4>

08007de8 <_sbrk_r>:
 8007de8:	b538      	push	{r3, r4, r5, lr}
 8007dea:	2300      	movs	r3, #0
 8007dec:	4d05      	ldr	r5, [pc, #20]	@ (8007e04 <_sbrk_r+0x1c>)
 8007dee:	4604      	mov	r4, r0
 8007df0:	4608      	mov	r0, r1
 8007df2:	602b      	str	r3, [r5, #0]
 8007df4:	f7fa fde0 	bl	80029b8 <_sbrk>
 8007df8:	1c43      	adds	r3, r0, #1
 8007dfa:	d102      	bne.n	8007e02 <_sbrk_r+0x1a>
 8007dfc:	682b      	ldr	r3, [r5, #0]
 8007dfe:	b103      	cbz	r3, 8007e02 <_sbrk_r+0x1a>
 8007e00:	6023      	str	r3, [r4, #0]
 8007e02:	bd38      	pop	{r3, r4, r5, pc}
 8007e04:	20000858 	.word	0x20000858

08007e08 <__errno>:
 8007e08:	4b01      	ldr	r3, [pc, #4]	@ (8007e10 <__errno+0x8>)
 8007e0a:	6818      	ldr	r0, [r3, #0]
 8007e0c:	4770      	bx	lr
 8007e0e:	bf00      	nop
 8007e10:	20000018 	.word	0x20000018

08007e14 <__libc_init_array>:
 8007e14:	b570      	push	{r4, r5, r6, lr}
 8007e16:	4d0d      	ldr	r5, [pc, #52]	@ (8007e4c <__libc_init_array+0x38>)
 8007e18:	2600      	movs	r6, #0
 8007e1a:	4c0d      	ldr	r4, [pc, #52]	@ (8007e50 <__libc_init_array+0x3c>)
 8007e1c:	1b64      	subs	r4, r4, r5
 8007e1e:	10a4      	asrs	r4, r4, #2
 8007e20:	42a6      	cmp	r6, r4
 8007e22:	d109      	bne.n	8007e38 <__libc_init_array+0x24>
 8007e24:	4d0b      	ldr	r5, [pc, #44]	@ (8007e54 <__libc_init_array+0x40>)
 8007e26:	2600      	movs	r6, #0
 8007e28:	4c0b      	ldr	r4, [pc, #44]	@ (8007e58 <__libc_init_array+0x44>)
 8007e2a:	f001 fab9 	bl	80093a0 <_init>
 8007e2e:	1b64      	subs	r4, r4, r5
 8007e30:	10a4      	asrs	r4, r4, #2
 8007e32:	42a6      	cmp	r6, r4
 8007e34:	d105      	bne.n	8007e42 <__libc_init_array+0x2e>
 8007e36:	bd70      	pop	{r4, r5, r6, pc}
 8007e38:	f855 3b04 	ldr.w	r3, [r5], #4
 8007e3c:	3601      	adds	r6, #1
 8007e3e:	4798      	blx	r3
 8007e40:	e7ee      	b.n	8007e20 <__libc_init_array+0xc>
 8007e42:	f855 3b04 	ldr.w	r3, [r5], #4
 8007e46:	3601      	adds	r6, #1
 8007e48:	4798      	blx	r3
 8007e4a:	e7f2      	b.n	8007e32 <__libc_init_array+0x1e>
 8007e4c:	080094f8 	.word	0x080094f8
 8007e50:	080094f8 	.word	0x080094f8
 8007e54:	080094f8 	.word	0x080094f8
 8007e58:	080094fc 	.word	0x080094fc

08007e5c <__retarget_lock_acquire_recursive>:
 8007e5c:	4770      	bx	lr

08007e5e <__retarget_lock_release_recursive>:
 8007e5e:	4770      	bx	lr

08007e60 <_free_r>:
 8007e60:	b538      	push	{r3, r4, r5, lr}
 8007e62:	4605      	mov	r5, r0
 8007e64:	2900      	cmp	r1, #0
 8007e66:	d041      	beq.n	8007eec <_free_r+0x8c>
 8007e68:	f851 3c04 	ldr.w	r3, [r1, #-4]
 8007e6c:	1f0c      	subs	r4, r1, #4
 8007e6e:	2b00      	cmp	r3, #0
 8007e70:	bfb8      	it	lt
 8007e72:	18e4      	addlt	r4, r4, r3
 8007e74:	f7ff ffa4 	bl	8007dc0 <__malloc_lock>
 8007e78:	4a1d      	ldr	r2, [pc, #116]	@ (8007ef0 <_free_r+0x90>)
 8007e7a:	6813      	ldr	r3, [r2, #0]
 8007e7c:	b933      	cbnz	r3, 8007e8c <_free_r+0x2c>
 8007e7e:	6063      	str	r3, [r4, #4]
 8007e80:	6014      	str	r4, [r2, #0]
 8007e82:	4628      	mov	r0, r5
 8007e84:	e8bd 4038 	ldmia.w	sp!, {r3, r4, r5, lr}
 8007e88:	f7ff bfa0 	b.w	8007dcc <__malloc_unlock>
 8007e8c:	42a3      	cmp	r3, r4
 8007e8e:	d908      	bls.n	8007ea2 <_free_r+0x42>
 8007e90:	6820      	ldr	r0, [r4, #0]
 8007e92:	1821      	adds	r1, r4, r0
 8007e94:	428b      	cmp	r3, r1
 8007e96:	bf01      	itttt	eq
 8007e98:	6819      	ldreq	r1, [r3, #0]
 8007e9a:	685b      	ldreq	r3, [r3, #4]
 8007e9c:	1809      	addeq	r1, r1, r0
 8007e9e:	6021      	streq	r1, [r4, #0]
 8007ea0:	e7ed      	b.n	8007e7e <_free_r+0x1e>
 8007ea2:	461a      	mov	r2, r3
 8007ea4:	685b      	ldr	r3, [r3, #4]
 8007ea6:	b10b      	cbz	r3, 8007eac <_free_r+0x4c>
 8007ea8:	42a3      	cmp	r3, r4
 8007eaa:	d9fa      	bls.n	8007ea2 <_free_r+0x42>
 8007eac:	6811      	ldr	r1, [r2, #0]
 8007eae:	1850      	adds	r0, r2, r1
 8007eb0:	42a0      	cmp	r0, r4
 8007eb2:	d10b      	bne.n	8007ecc <_free_r+0x6c>
 8007eb4:	6820      	ldr	r0, [r4, #0]
 8007eb6:	4401      	add	r1, r0
 8007eb8:	1850      	adds	r0, r2, r1
 8007eba:	6011      	str	r1, [r2, #0]
 8007ebc:	4283      	cmp	r3, r0
 8007ebe:	d1e0      	bne.n	8007e82 <_free_r+0x22>
 8007ec0:	6818      	ldr	r0, [r3, #0]
 8007ec2:	685b      	ldr	r3, [r3, #4]
 8007ec4:	4408      	add	r0, r1
 8007ec6:	6053      	str	r3, [r2, #4]
 8007ec8:	6010      	str	r0, [r2, #0]
 8007eca:	e7da      	b.n	8007e82 <_free_r+0x22>
 8007ecc:	d902      	bls.n	8007ed4 <_free_r+0x74>
 8007ece:	230c      	movs	r3, #12
 8007ed0:	602b      	str	r3, [r5, #0]
 8007ed2:	e7d6      	b.n	8007e82 <_free_r+0x22>
 8007ed4:	6820      	ldr	r0, [r4, #0]
 8007ed6:	1821      	adds	r1, r4, r0
 8007ed8:	428b      	cmp	r3, r1
 8007eda:	bf02      	ittt	eq
 8007edc:	6819      	ldreq	r1, [r3, #0]
 8007ede:	685b      	ldreq	r3, [r3, #4]
 8007ee0:	1809      	addeq	r1, r1, r0
 8007ee2:	6063      	str	r3, [r4, #4]
 8007ee4:	bf08      	it	eq
 8007ee6:	6021      	streq	r1, [r4, #0]
 8007ee8:	6054      	str	r4, [r2, #4]
 8007eea:	e7ca      	b.n	8007e82 <_free_r+0x22>
 8007eec:	bd38      	pop	{r3, r4, r5, pc}
 8007eee:	bf00      	nop
 8007ef0:	2000071c 	.word	0x2000071c
 8007ef4:	00000000 	.word	0x00000000

08007ef8 <log>:
 8007ef8:	b538      	push	{r3, r4, r5, lr}
 8007efa:	ec55 4b10 	vmov	r4, r5, d0
 8007efe:	ed2d 8b02 	vpush	{d8}
 8007f02:	f000 fa09 	bl	8008318 <__ieee754_log>
 8007f06:	4622      	mov	r2, r4
 8007f08:	462b      	mov	r3, r5
 8007f0a:	4620      	mov	r0, r4
 8007f0c:	4629      	mov	r1, r5
 8007f0e:	eeb0 8a40 	vmov.f32	s16, s0
 8007f12:	eef0 8a60 	vmov.f32	s17, s1
 8007f16:	f7f8 fe11 	bl	8000b3c <__aeabi_dcmpun>
 8007f1a:	b998      	cbnz	r0, 8007f44 <log+0x4c>
 8007f1c:	2200      	movs	r2, #0
 8007f1e:	2300      	movs	r3, #0
 8007f20:	4620      	mov	r0, r4
 8007f22:	4629      	mov	r1, r5
 8007f24:	f7f8 fe00 	bl	8000b28 <__aeabi_dcmpgt>
 8007f28:	b960      	cbnz	r0, 8007f44 <log+0x4c>
 8007f2a:	2200      	movs	r2, #0
 8007f2c:	2300      	movs	r3, #0
 8007f2e:	4620      	mov	r0, r4
 8007f30:	4629      	mov	r1, r5
 8007f32:	f7f8 fdd1 	bl	8000ad8 <__aeabi_dcmpeq>
 8007f36:	b160      	cbz	r0, 8007f52 <log+0x5a>
 8007f38:	f7ff ff66 	bl	8007e08 <__errno>
 8007f3c:	2322      	movs	r3, #34	@ 0x22
 8007f3e:	ed9f 8b0a 	vldr	d8, [pc, #40]	@ 8007f68 <log+0x70>
 8007f42:	6003      	str	r3, [r0, #0]
 8007f44:	eeb0 0a48 	vmov.f32	s0, s16
 8007f48:	eef0 0a68 	vmov.f32	s1, s17
 8007f4c:	ecbd 8b02 	vpop	{d8}
 8007f50:	bd38      	pop	{r3, r4, r5, pc}
 8007f52:	f7ff ff59 	bl	8007e08 <__errno>
 8007f56:	2321      	movs	r3, #33	@ 0x21
 8007f58:	ecbd 8b02 	vpop	{d8}
 8007f5c:	6003      	str	r3, [r0, #0]
 8007f5e:	4804      	ldr	r0, [pc, #16]	@ (8007f70 <log+0x78>)
 8007f60:	e8bd 4038 	ldmia.w	sp!, {r3, r4, r5, lr}
 8007f64:	f000 b8f0 	b.w	8008148 <nan>
 8007f68:	00000000 	.word	0x00000000
 8007f6c:	fff00000 	.word	0xfff00000
 8007f70:	080094b8 	.word	0x080094b8
 8007f74:	00000000 	.word	0x00000000

08007f78 <log10>:
 8007f78:	b538      	push	{r3, r4, r5, lr}
 8007f7a:	ec55 4b10 	vmov	r4, r5, d0
 8007f7e:	ed2d 8b02 	vpush	{d8}
 8007f82:	f000 fb7d 	bl	8008680 <__ieee754_log10>
 8007f86:	4622      	mov	r2, r4
 8007f88:	462b      	mov	r3, r5
 8007f8a:	4620      	mov	r0, r4
 8007f8c:	4629      	mov	r1, r5
 8007f8e:	eeb0 8a40 	vmov.f32	s16, s0
 8007f92:	eef0 8a60 	vmov.f32	s17, s1
 8007f96:	f7f8 fdd1 	bl	8000b3c <__aeabi_dcmpun>
 8007f9a:	b998      	cbnz	r0, 8007fc4 <log10+0x4c>
 8007f9c:	2200      	movs	r2, #0
 8007f9e:	2300      	movs	r3, #0
 8007fa0:	4620      	mov	r0, r4
 8007fa2:	4629      	mov	r1, r5
 8007fa4:	f7f8 fdac 	bl	8000b00 <__aeabi_dcmple>
 8007fa8:	b160      	cbz	r0, 8007fc4 <log10+0x4c>
 8007faa:	2200      	movs	r2, #0
 8007fac:	2300      	movs	r3, #0
 8007fae:	4620      	mov	r0, r4
 8007fb0:	4629      	mov	r1, r5
 8007fb2:	f7f8 fd91 	bl	8000ad8 <__aeabi_dcmpeq>
 8007fb6:	b160      	cbz	r0, 8007fd2 <log10+0x5a>
 8007fb8:	f7ff ff26 	bl	8007e08 <__errno>
 8007fbc:	2322      	movs	r3, #34	@ 0x22
 8007fbe:	ed9f 8b0a 	vldr	d8, [pc, #40]	@ 8007fe8 <log10+0x70>
 8007fc2:	6003      	str	r3, [r0, #0]
 8007fc4:	eeb0 0a48 	vmov.f32	s0, s16
 8007fc8:	eef0 0a68 	vmov.f32	s1, s17
 8007fcc:	ecbd 8b02 	vpop	{d8}
 8007fd0:	bd38      	pop	{r3, r4, r5, pc}
 8007fd2:	f7ff ff19 	bl	8007e08 <__errno>
 8007fd6:	2321      	movs	r3, #33	@ 0x21
 8007fd8:	ecbd 8b02 	vpop	{d8}
 8007fdc:	6003      	str	r3, [r0, #0]
 8007fde:	4804      	ldr	r0, [pc, #16]	@ (8007ff0 <log10+0x78>)
 8007fe0:	e8bd 4038 	ldmia.w	sp!, {r3, r4, r5, lr}
 8007fe4:	f000 b8b0 	b.w	8008148 <nan>
 8007fe8:	00000000 	.word	0x00000000
 8007fec:	fff00000 	.word	0xfff00000
 8007ff0:	080094b8 	.word	0x080094b8

08007ff4 <pow>:
 8007ff4:	b5f8      	push	{r3, r4, r5, r6, r7, lr}
 8007ff6:	ec55 4b11 	vmov	r4, r5, d1
 8007ffa:	ed2d 8b02 	vpush	{d8}
 8007ffe:	eeb0 8a40 	vmov.f32	s16, s0
 8008002:	eef0 8a60 	vmov.f32	s17, s1
 8008006:	f000 fbc7 	bl	8008798 <__ieee754_pow>
 800800a:	4622      	mov	r2, r4
 800800c:	462b      	mov	r3, r5
 800800e:	4620      	mov	r0, r4
 8008010:	4629      	mov	r1, r5
 8008012:	ec57 6b10 	vmov	r6, r7, d0
 8008016:	f7f8 fd91 	bl	8000b3c <__aeabi_dcmpun>
 800801a:	2800      	cmp	r0, #0
 800801c:	d13b      	bne.n	8008096 <pow+0xa2>
 800801e:	2200      	movs	r2, #0
 8008020:	2300      	movs	r3, #0
 8008022:	ec51 0b18 	vmov	r0, r1, d8
 8008026:	f7f8 fd57 	bl	8000ad8 <__aeabi_dcmpeq>
 800802a:	b1b8      	cbz	r0, 800805c <pow+0x68>
 800802c:	2200      	movs	r2, #0
 800802e:	2300      	movs	r3, #0
 8008030:	4620      	mov	r0, r4
 8008032:	4629      	mov	r1, r5
 8008034:	f7f8 fd50 	bl	8000ad8 <__aeabi_dcmpeq>
 8008038:	2800      	cmp	r0, #0
 800803a:	d146      	bne.n	80080ca <pow+0xd6>
 800803c:	ec45 4b10 	vmov	d0, r4, r5
 8008040:	f000 f874 	bl	800812c <finite>
 8008044:	b338      	cbz	r0, 8008096 <pow+0xa2>
 8008046:	2200      	movs	r2, #0
 8008048:	2300      	movs	r3, #0
 800804a:	4620      	mov	r0, r4
 800804c:	4629      	mov	r1, r5
 800804e:	f7f8 fd4d 	bl	8000aec <__aeabi_dcmplt>
 8008052:	b300      	cbz	r0, 8008096 <pow+0xa2>
 8008054:	f7ff fed8 	bl	8007e08 <__errno>
 8008058:	2322      	movs	r3, #34	@ 0x22
 800805a:	e01b      	b.n	8008094 <pow+0xa0>
 800805c:	ec47 6b10 	vmov	d0, r6, r7
 8008060:	f000 f864 	bl	800812c <finite>
 8008064:	b9e0      	cbnz	r0, 80080a0 <pow+0xac>
 8008066:	eeb0 0a48 	vmov.f32	s0, s16
 800806a:	eef0 0a68 	vmov.f32	s1, s17
 800806e:	f000 f85d 	bl	800812c <finite>
 8008072:	b1a8      	cbz	r0, 80080a0 <pow+0xac>
 8008074:	ec45 4b10 	vmov	d0, r4, r5
 8008078:	f000 f858 	bl	800812c <finite>
 800807c:	b180      	cbz	r0, 80080a0 <pow+0xac>
 800807e:	4632      	mov	r2, r6
 8008080:	463b      	mov	r3, r7
 8008082:	4630      	mov	r0, r6
 8008084:	4639      	mov	r1, r7
 8008086:	f7f8 fd59 	bl	8000b3c <__aeabi_dcmpun>
 800808a:	2800      	cmp	r0, #0
 800808c:	d0e2      	beq.n	8008054 <pow+0x60>
 800808e:	f7ff febb 	bl	8007e08 <__errno>
 8008092:	2321      	movs	r3, #33	@ 0x21
 8008094:	6003      	str	r3, [r0, #0]
 8008096:	ecbd 8b02 	vpop	{d8}
 800809a:	ec47 6b10 	vmov	d0, r6, r7
 800809e:	bdf8      	pop	{r3, r4, r5, r6, r7, pc}
 80080a0:	2200      	movs	r2, #0
 80080a2:	2300      	movs	r3, #0
 80080a4:	4630      	mov	r0, r6
 80080a6:	4639      	mov	r1, r7
 80080a8:	f7f8 fd16 	bl	8000ad8 <__aeabi_dcmpeq>
 80080ac:	2800      	cmp	r0, #0
 80080ae:	d0f2      	beq.n	8008096 <pow+0xa2>
 80080b0:	eeb0 0a48 	vmov.f32	s0, s16
 80080b4:	eef0 0a68 	vmov.f32	s1, s17
 80080b8:	f000 f838 	bl	800812c <finite>
 80080bc:	2800      	cmp	r0, #0
 80080be:	d0ea      	beq.n	8008096 <pow+0xa2>
 80080c0:	ec45 4b10 	vmov	d0, r4, r5
 80080c4:	f000 f832 	bl	800812c <finite>
 80080c8:	e7c3      	b.n	8008052 <pow+0x5e>
 80080ca:	2600      	movs	r6, #0
 80080cc:	4f00      	ldr	r7, [pc, #0]	@ (80080d0 <pow+0xdc>)
 80080ce:	e7e2      	b.n	8008096 <pow+0xa2>
 80080d0:	3ff00000 	.word	0x3ff00000

080080d4 <sqrt>:
 80080d4:	b538      	push	{r3, r4, r5, lr}
 80080d6:	ec55 4b10 	vmov	r4, r5, d0
 80080da:	ed2d 8b02 	vpush	{d8}
 80080de:	f000 f83b 	bl	8008158 <__ieee754_sqrt>
 80080e2:	4622      	mov	r2, r4
 80080e4:	462b      	mov	r3, r5
 80080e6:	4620      	mov	r0, r4
 80080e8:	4629      	mov	r1, r5
 80080ea:	eeb0 8a40 	vmov.f32	s16, s0
 80080ee:	eef0 8a60 	vmov.f32	s17, s1
 80080f2:	f7f8 fd23 	bl	8000b3c <__aeabi_dcmpun>
 80080f6:	b990      	cbnz	r0, 800811e <sqrt+0x4a>
 80080f8:	2200      	movs	r2, #0
 80080fa:	2300      	movs	r3, #0
 80080fc:	4620      	mov	r0, r4
 80080fe:	4629      	mov	r1, r5
 8008100:	f7f8 fcf4 	bl	8000aec <__aeabi_dcmplt>
 8008104:	b158      	cbz	r0, 800811e <sqrt+0x4a>
 8008106:	f7ff fe7f 	bl	8007e08 <__errno>
 800810a:	2321      	movs	r3, #33	@ 0x21
 800810c:	2200      	movs	r2, #0
 800810e:	6003      	str	r3, [r0, #0]
 8008110:	2300      	movs	r3, #0
 8008112:	4610      	mov	r0, r2
 8008114:	4619      	mov	r1, r3
 8008116:	f7f8 fba1 	bl	800085c <__aeabi_ddiv>
 800811a:	ec41 0b18 	vmov	d8, r0, r1
 800811e:	eeb0 0a48 	vmov.f32	s0, s16
 8008122:	eef0 0a68 	vmov.f32	s1, s17
 8008126:	ecbd 8b02 	vpop	{d8}
 800812a:	bd38      	pop	{r3, r4, r5, pc}

0800812c <finite>:
 800812c:	b082      	sub	sp, #8
 800812e:	ed8d 0b00 	vstr	d0, [sp]
 8008132:	9801      	ldr	r0, [sp, #4]
 8008134:	f040 4000 	orr.w	r0, r0, #2147483648	@ 0x80000000
 8008138:	f500 1080 	add.w	r0, r0, #1048576	@ 0x100000
 800813c:	0fc0      	lsrs	r0, r0, #31
 800813e:	b002      	add	sp, #8
 8008140:	4770      	bx	lr
 8008142:	0000      	movs	r0, r0
 8008144:	0000      	movs	r0, r0
	...

08008148 <nan>:
 8008148:	ed9f 0b01 	vldr	d0, [pc, #4]	@ 8008150 <nan+0x8>
 800814c:	4770      	bx	lr
 800814e:	bf00      	nop
 8008150:	00000000 	.word	0x00000000
 8008154:	7ff80000 	.word	0x7ff80000

08008158 <__ieee754_sqrt>:
 8008158:	4a6b      	ldr	r2, [pc, #428]	@ (8008308 <__ieee754_sqrt+0x1b0>)
 800815a:	e92d 4ff8 	stmdb	sp!, {r3, r4, r5, r6, r7, r8, r9, sl, fp, lr}
 800815e:	ec55 4b10 	vmov	r4, r5, d0
 8008162:	43aa      	bics	r2, r5
 8008164:	462b      	mov	r3, r5
 8008166:	4621      	mov	r1, r4
 8008168:	d110      	bne.n	800818c <__ieee754_sqrt+0x34>
 800816a:	4622      	mov	r2, r4
 800816c:	4620      	mov	r0, r4
 800816e:	4629      	mov	r1, r5
 8008170:	f7f8 fa4a 	bl	8000608 <__aeabi_dmul>
 8008174:	4602      	mov	r2, r0
 8008176:	460b      	mov	r3, r1
 8008178:	4620      	mov	r0, r4
 800817a:	4629      	mov	r1, r5
 800817c:	f7f8 f88e 	bl	800029c <__adddf3>
 8008180:	4604      	mov	r4, r0
 8008182:	460d      	mov	r5, r1
 8008184:	ec45 4b10 	vmov	d0, r4, r5
 8008188:	e8bd 8ff8 	ldmia.w	sp!, {r3, r4, r5, r6, r7, r8, r9, sl, fp, pc}
 800818c:	2d00      	cmp	r5, #0
 800818e:	dc0e      	bgt.n	80081ae <__ieee754_sqrt+0x56>
 8008190:	f025 4200 	bic.w	r2, r5, #2147483648	@ 0x80000000
 8008194:	4322      	orrs	r2, r4
 8008196:	d0f5      	beq.n	8008184 <__ieee754_sqrt+0x2c>
 8008198:	b19d      	cbz	r5, 80081c2 <__ieee754_sqrt+0x6a>
 800819a:	4622      	mov	r2, r4
 800819c:	4620      	mov	r0, r4
 800819e:	4629      	mov	r1, r5
 80081a0:	f7f8 f87a 	bl	8000298 <__aeabi_dsub>
 80081a4:	4602      	mov	r2, r0
 80081a6:	460b      	mov	r3, r1
 80081a8:	f7f8 fb58 	bl	800085c <__aeabi_ddiv>
 80081ac:	e7e8      	b.n	8008180 <__ieee754_sqrt+0x28>
 80081ae:	152a      	asrs	r2, r5, #20
 80081b0:	d115      	bne.n	80081de <__ieee754_sqrt+0x86>
 80081b2:	2000      	movs	r0, #0
 80081b4:	e009      	b.n	80081ca <__ieee754_sqrt+0x72>
 80081b6:	0acb      	lsrs	r3, r1, #11
 80081b8:	3a15      	subs	r2, #21
 80081ba:	0549      	lsls	r1, r1, #21
 80081bc:	2b00      	cmp	r3, #0
 80081be:	d0fa      	beq.n	80081b6 <__ieee754_sqrt+0x5e>
 80081c0:	e7f7      	b.n	80081b2 <__ieee754_sqrt+0x5a>
 80081c2:	462a      	mov	r2, r5
 80081c4:	e7fa      	b.n	80081bc <__ieee754_sqrt+0x64>
 80081c6:	005b      	lsls	r3, r3, #1
 80081c8:	3001      	adds	r0, #1
 80081ca:	02dc      	lsls	r4, r3, #11
 80081cc:	d5fb      	bpl.n	80081c6 <__ieee754_sqrt+0x6e>
 80081ce:	1e44      	subs	r4, r0, #1
 80081d0:	1b12      	subs	r2, r2, r4
 80081d2:	f1c0 0420 	rsb	r4, r0, #32
 80081d6:	fa21 f404 	lsr.w	r4, r1, r4
 80081da:	4081      	lsls	r1, r0
 80081dc:	4323      	orrs	r3, r4
 80081de:	f3c3 0313 	ubfx	r3, r3, #0, #20
 80081e2:	f2a2 35ff 	subw	r5, r2, #1023	@ 0x3ff
 80081e6:	07d2      	lsls	r2, r2, #31
 80081e8:	f04f 0600 	mov.w	r6, #0
 80081ec:	f443 1380 	orr.w	r3, r3, #1048576	@ 0x100000
 80081f0:	ea4f 0565 	mov.w	r5, r5, asr #1
 80081f4:	f04f 0016 	mov.w	r0, #22
 80081f8:	4632      	mov	r2, r6
 80081fa:	bf58      	it	pl
 80081fc:	005b      	lslpl	r3, r3, #1
 80081fe:	f44f 1400 	mov.w	r4, #2097152	@ 0x200000
 8008202:	bf5c      	itt	pl
 8008204:	eb03 73d1 	addpl.w	r3, r3, r1, lsr #31
 8008208:	0049      	lslpl	r1, r1, #1
 800820a:	005b      	lsls	r3, r3, #1
 800820c:	eb03 73d1 	add.w	r3, r3, r1, lsr #31
 8008210:	0049      	lsls	r1, r1, #1
 8008212:	1917      	adds	r7, r2, r4
 8008214:	429f      	cmp	r7, r3
 8008216:	bfde      	ittt	le
 8008218:	193a      	addle	r2, r7, r4
 800821a:	1bdb      	suble	r3, r3, r7
 800821c:	1936      	addle	r6, r6, r4
 800821e:	0fcf      	lsrs	r7, r1, #31
 8008220:	3801      	subs	r0, #1
 8008222:	ea4f 0141 	mov.w	r1, r1, lsl #1
 8008226:	eb07 0343 	add.w	r3, r7, r3, lsl #1
 800822a:	ea4f 0454 	mov.w	r4, r4, lsr #1
 800822e:	d1f0      	bne.n	8008212 <__ieee754_sqrt+0xba>
 8008230:	4604      	mov	r4, r0
 8008232:	2720      	movs	r7, #32
 8008234:	f04f 4c00 	mov.w	ip, #2147483648	@ 0x80000000
 8008238:	429a      	cmp	r2, r3
 800823a:	eb00 0e0c 	add.w	lr, r0, ip
 800823e:	db02      	blt.n	8008246 <__ieee754_sqrt+0xee>
 8008240:	d113      	bne.n	800826a <__ieee754_sqrt+0x112>
 8008242:	458e      	cmp	lr, r1
 8008244:	d811      	bhi.n	800826a <__ieee754_sqrt+0x112>
 8008246:	f1be 0f00 	cmp.w	lr, #0
 800824a:	eb0e 000c 	add.w	r0, lr, ip
 800824e:	da43      	bge.n	80082d8 <__ieee754_sqrt+0x180>
 8008250:	2800      	cmp	r0, #0
 8008252:	db41      	blt.n	80082d8 <__ieee754_sqrt+0x180>
 8008254:	f102 0801 	add.w	r8, r2, #1
 8008258:	1a9b      	subs	r3, r3, r2
 800825a:	458e      	cmp	lr, r1
 800825c:	4464      	add	r4, ip
 800825e:	eba1 010e 	sub.w	r1, r1, lr
 8008262:	bf88      	it	hi
 8008264:	f103 33ff 	addhi.w	r3, r3, #4294967295
 8008268:	4642      	mov	r2, r8
 800826a:	ea4f 7ed1 	mov.w	lr, r1, lsr #31
 800826e:	3f01      	subs	r7, #1
 8008270:	ea4f 0141 	mov.w	r1, r1, lsl #1
 8008274:	eb0e 0343 	add.w	r3, lr, r3, lsl #1
 8008278:	ea4f 0c5c 	mov.w	ip, ip, lsr #1
 800827c:	d1dc      	bne.n	8008238 <__ieee754_sqrt+0xe0>
 800827e:	4319      	orrs	r1, r3
 8008280:	d01b      	beq.n	80082ba <__ieee754_sqrt+0x162>
 8008282:	f8df a088 	ldr.w	sl, [pc, #136]	@ 800830c <__ieee754_sqrt+0x1b4>
 8008286:	f8df b088 	ldr.w	fp, [pc, #136]	@ 8008310 <__ieee754_sqrt+0x1b8>
 800828a:	e9da 0100 	ldrd	r0, r1, [sl]
 800828e:	e9db 2300 	ldrd	r2, r3, [fp]
 8008292:	e9da 8900 	ldrd	r8, r9, [sl]
 8008296:	f7f7 ffff 	bl	8000298 <__aeabi_dsub>
 800829a:	4602      	mov	r2, r0
 800829c:	460b      	mov	r3, r1
 800829e:	4640      	mov	r0, r8
 80082a0:	4649      	mov	r1, r9
 80082a2:	f7f8 fc2d 	bl	8000b00 <__aeabi_dcmple>
 80082a6:	b140      	cbz	r0, 80082ba <__ieee754_sqrt+0x162>
 80082a8:	f1b4 3fff 	cmp.w	r4, #4294967295
 80082ac:	e9da 0100 	ldrd	r0, r1, [sl]
 80082b0:	e9db 2300 	ldrd	r2, r3, [fp]
 80082b4:	d112      	bne.n	80082dc <__ieee754_sqrt+0x184>
 80082b6:	3601      	adds	r6, #1
 80082b8:	463c      	mov	r4, r7
 80082ba:	1072      	asrs	r2, r6, #1
 80082bc:	07f1      	lsls	r1, r6, #31
 80082be:	ea4f 0354 	mov.w	r3, r4, lsr #1
 80082c2:	f102 527f 	add.w	r2, r2, #1069547520	@ 0x3fc00000
 80082c6:	bf48      	it	mi
 80082c8:	f043 4300 	orrmi.w	r3, r3, #2147483648	@ 0x80000000
 80082cc:	f502 1200 	add.w	r2, r2, #2097152	@ 0x200000
 80082d0:	4618      	mov	r0, r3
 80082d2:	eb02 5105 	add.w	r1, r2, r5, lsl #20
 80082d6:	e753      	b.n	8008180 <__ieee754_sqrt+0x28>
 80082d8:	4690      	mov	r8, r2
 80082da:	e7bd      	b.n	8008258 <__ieee754_sqrt+0x100>
 80082dc:	e9da 8900 	ldrd	r8, r9, [sl]
 80082e0:	f7f7 ffdc 	bl	800029c <__adddf3>
 80082e4:	4602      	mov	r2, r0
 80082e6:	460b      	mov	r3, r1
 80082e8:	4640      	mov	r0, r8
 80082ea:	4649      	mov	r1, r9
 80082ec:	f7f8 fbfe 	bl	8000aec <__aeabi_dcmplt>
 80082f0:	b128      	cbz	r0, 80082fe <__ieee754_sqrt+0x1a6>
 80082f2:	1ca0      	adds	r0, r4, #2
 80082f4:	f104 0402 	add.w	r4, r4, #2
 80082f8:	bf08      	it	eq
 80082fa:	3601      	addeq	r6, #1
 80082fc:	e7dd      	b.n	80082ba <__ieee754_sqrt+0x162>
 80082fe:	1c63      	adds	r3, r4, #1
 8008300:	f023 0401 	bic.w	r4, r3, #1
 8008304:	e7d9      	b.n	80082ba <__ieee754_sqrt+0x162>
 8008306:	bf00      	nop
 8008308:	7ff00000 	.word	0x7ff00000
 800830c:	20000070 	.word	0x20000070
 8008310:	20000068 	.word	0x20000068
 8008314:	00000000 	.word	0x00000000

08008318 <__ieee754_log>:
 8008318:	ec51 0b10 	vmov	r0, r1, d0
 800831c:	f5b1 1f80 	cmp.w	r1, #1048576	@ 0x100000
 8008320:	e92d 4ff0 	stmdb	sp!, {r4, r5, r6, r7, r8, r9, sl, fp, lr}
 8008324:	460d      	mov	r5, r1
 8008326:	b087      	sub	sp, #28
 8008328:	da26      	bge.n	8008378 <__ieee754_log+0x60>
 800832a:	f021 4300 	bic.w	r3, r1, #2147483648	@ 0x80000000
 800832e:	4602      	mov	r2, r0
 8008330:	4303      	orrs	r3, r0
 8008332:	d10a      	bne.n	800834a <__ieee754_log+0x32>
 8008334:	2200      	movs	r2, #0
 8008336:	2300      	movs	r3, #0
 8008338:	2000      	movs	r0, #0
 800833a:	49cb      	ldr	r1, [pc, #812]	@ (8008668 <__ieee754_log+0x350>)
 800833c:	f7f8 fa8e 	bl	800085c <__aeabi_ddiv>
 8008340:	ec41 0b10 	vmov	d0, r0, r1
 8008344:	b007      	add	sp, #28
 8008346:	e8bd 8ff0 	ldmia.w	sp!, {r4, r5, r6, r7, r8, r9, sl, fp, pc}
 800834a:	2900      	cmp	r1, #0
 800834c:	da05      	bge.n	800835a <__ieee754_log+0x42>
 800834e:	460b      	mov	r3, r1
 8008350:	f7f7 ffa2 	bl	8000298 <__aeabi_dsub>
 8008354:	2200      	movs	r2, #0
 8008356:	2300      	movs	r3, #0
 8008358:	e7f0      	b.n	800833c <__ieee754_log+0x24>
 800835a:	4bc4      	ldr	r3, [pc, #784]	@ (800866c <__ieee754_log+0x354>)
 800835c:	2200      	movs	r2, #0
 800835e:	f7f8 f953 	bl	8000608 <__aeabi_dmul>
 8008362:	f06f 0335 	mvn.w	r3, #53	@ 0x35
 8008366:	460d      	mov	r5, r1
 8008368:	4ac1      	ldr	r2, [pc, #772]	@ (8008670 <__ieee754_log+0x358>)
 800836a:	4295      	cmp	r5, r2
 800836c:	dd06      	ble.n	800837c <__ieee754_log+0x64>
 800836e:	4602      	mov	r2, r0
 8008370:	460b      	mov	r3, r1
 8008372:	f7f7 ff93 	bl	800029c <__adddf3>
 8008376:	e7e3      	b.n	8008340 <__ieee754_log+0x28>
 8008378:	2300      	movs	r3, #0
 800837a:	e7f5      	b.n	8008368 <__ieee754_log+0x50>
 800837c:	152c      	asrs	r4, r5, #20
 800837e:	f3c5 0513 	ubfx	r5, r5, #0, #20
 8008382:	f2a4 34ff 	subw	r4, r4, #1023	@ 0x3ff
 8008386:	441c      	add	r4, r3
 8008388:	f505 2315 	add.w	r3, r5, #610304	@ 0x95000
 800838c:	f603 7364 	addw	r3, r3, #3940	@ 0xf64
 8008390:	f403 1380 	and.w	r3, r3, #1048576	@ 0x100000
 8008394:	f083 527f 	eor.w	r2, r3, #1069547520	@ 0x3fc00000
 8008398:	eb04 5413 	add.w	r4, r4, r3, lsr #20
 800839c:	4bb5      	ldr	r3, [pc, #724]	@ (8008674 <__ieee754_log+0x35c>)
 800839e:	f482 1240 	eor.w	r2, r2, #3145728	@ 0x300000
 80083a2:	ea42 0105 	orr.w	r1, r2, r5
 80083a6:	2200      	movs	r2, #0
 80083a8:	f7f7 ff76 	bl	8000298 <__aeabi_dsub>
 80083ac:	1cab      	adds	r3, r5, #2
 80083ae:	4682      	mov	sl, r0
 80083b0:	468b      	mov	fp, r1
 80083b2:	f3c3 0313 	ubfx	r3, r3, #0, #20
 80083b6:	2200      	movs	r2, #0
 80083b8:	2b02      	cmp	r3, #2
 80083ba:	dc53      	bgt.n	8008464 <__ieee754_log+0x14c>
 80083bc:	2300      	movs	r3, #0
 80083be:	f7f8 fb8b 	bl	8000ad8 <__aeabi_dcmpeq>
 80083c2:	b1d0      	cbz	r0, 80083fa <__ieee754_log+0xe2>
 80083c4:	2c00      	cmp	r4, #0
 80083c6:	f000 8120 	beq.w	800860a <__ieee754_log+0x2f2>
 80083ca:	4620      	mov	r0, r4
 80083cc:	f7f8 f8b2 	bl	8000534 <__aeabi_i2d>
 80083d0:	4606      	mov	r6, r0
 80083d2:	460f      	mov	r7, r1
 80083d4:	a38e      	add	r3, pc, #568	@ (adr r3, 8008610 <__ieee754_log+0x2f8>)
 80083d6:	e9d3 2300 	ldrd	r2, r3, [r3]
 80083da:	f7f8 f915 	bl	8000608 <__aeabi_dmul>
 80083de:	4604      	mov	r4, r0
 80083e0:	460d      	mov	r5, r1
 80083e2:	4630      	mov	r0, r6
 80083e4:	4639      	mov	r1, r7
 80083e6:	a38c      	add	r3, pc, #560	@ (adr r3, 8008618 <__ieee754_log+0x300>)
 80083e8:	e9d3 2300 	ldrd	r2, r3, [r3]
 80083ec:	f7f8 f90c 	bl	8000608 <__aeabi_dmul>
 80083f0:	4602      	mov	r2, r0
 80083f2:	460b      	mov	r3, r1
 80083f4:	4620      	mov	r0, r4
 80083f6:	4629      	mov	r1, r5
 80083f8:	e7bb      	b.n	8008372 <__ieee754_log+0x5a>
 80083fa:	a389      	add	r3, pc, #548	@ (adr r3, 8008620 <__ieee754_log+0x308>)
 80083fc:	e9d3 2300 	ldrd	r2, r3, [r3]
 8008400:	4650      	mov	r0, sl
 8008402:	4659      	mov	r1, fp
 8008404:	f7f8 f900 	bl	8000608 <__aeabi_dmul>
 8008408:	4602      	mov	r2, r0
 800840a:	460b      	mov	r3, r1
 800840c:	2000      	movs	r0, #0
 800840e:	499a      	ldr	r1, [pc, #616]	@ (8008678 <__ieee754_log+0x360>)
 8008410:	f7f7 ff42 	bl	8000298 <__aeabi_dsub>
 8008414:	4606      	mov	r6, r0
 8008416:	460f      	mov	r7, r1
 8008418:	4652      	mov	r2, sl
 800841a:	465b      	mov	r3, fp
 800841c:	4650      	mov	r0, sl
 800841e:	4659      	mov	r1, fp
 8008420:	f7f8 f8f2 	bl	8000608 <__aeabi_dmul>
 8008424:	4602      	mov	r2, r0
 8008426:	460b      	mov	r3, r1
 8008428:	4630      	mov	r0, r6
 800842a:	4639      	mov	r1, r7
 800842c:	f7f8 f8ec 	bl	8000608 <__aeabi_dmul>
 8008430:	4606      	mov	r6, r0
 8008432:	460f      	mov	r7, r1
 8008434:	b914      	cbnz	r4, 800843c <__ieee754_log+0x124>
 8008436:	4632      	mov	r2, r6
 8008438:	463b      	mov	r3, r7
 800843a:	e0a0      	b.n	800857e <__ieee754_log+0x266>
 800843c:	4620      	mov	r0, r4
 800843e:	f7f8 f879 	bl	8000534 <__aeabi_i2d>
 8008442:	4680      	mov	r8, r0
 8008444:	4689      	mov	r9, r1
 8008446:	a372      	add	r3, pc, #456	@ (adr r3, 8008610 <__ieee754_log+0x2f8>)
 8008448:	e9d3 2300 	ldrd	r2, r3, [r3]
 800844c:	f7f8 f8dc 	bl	8000608 <__aeabi_dmul>
 8008450:	4604      	mov	r4, r0
 8008452:	460d      	mov	r5, r1
 8008454:	4640      	mov	r0, r8
 8008456:	4649      	mov	r1, r9
 8008458:	a36f      	add	r3, pc, #444	@ (adr r3, 8008618 <__ieee754_log+0x300>)
 800845a:	e9d3 2300 	ldrd	r2, r3, [r3]
 800845e:	f7f8 f8d3 	bl	8000608 <__aeabi_dmul>
 8008462:	e0a5      	b.n	80085b0 <__ieee754_log+0x298>
 8008464:	f04f 4380 	mov.w	r3, #1073741824	@ 0x40000000
 8008468:	f5a5 26c2 	sub.w	r6, r5, #397312	@ 0x61000
 800846c:	f7f7 ff16 	bl	800029c <__adddf3>
 8008470:	4602      	mov	r2, r0
 8008472:	460b      	mov	r3, r1
 8008474:	4650      	mov	r0, sl
 8008476:	4659      	mov	r1, fp
 8008478:	f5c5 25d7 	rsb	r5, r5, #440320	@ 0x6b800
 800847c:	f7f8 f9ee 	bl	800085c <__aeabi_ddiv>
 8008480:	f2a6 467a 	subw	r6, r6, #1146	@ 0x47a
 8008484:	3551      	adds	r5, #81	@ 0x51
 8008486:	e9cd 0100 	strd	r0, r1, [sp]
 800848a:	4620      	mov	r0, r4
 800848c:	4335      	orrs	r5, r6
 800848e:	f7f8 f851 	bl	8000534 <__aeabi_i2d>
 8008492:	e9dd 2300 	ldrd	r2, r3, [sp]
 8008496:	e9cd 0102 	strd	r0, r1, [sp, #8]
 800849a:	4610      	mov	r0, r2
 800849c:	4619      	mov	r1, r3
 800849e:	f7f8 f8b3 	bl	8000608 <__aeabi_dmul>
 80084a2:	4602      	mov	r2, r0
 80084a4:	460b      	mov	r3, r1
 80084a6:	e9cd 2304 	strd	r2, r3, [sp, #16]
 80084aa:	f7f8 f8ad 	bl	8000608 <__aeabi_dmul>
 80084ae:	4680      	mov	r8, r0
 80084b0:	4689      	mov	r9, r1
 80084b2:	a35d      	add	r3, pc, #372	@ (adr r3, 8008628 <__ieee754_log+0x310>)
 80084b4:	e9d3 2300 	ldrd	r2, r3, [r3]
 80084b8:	f7f8 f8a6 	bl	8000608 <__aeabi_dmul>
 80084bc:	a35c      	add	r3, pc, #368	@ (adr r3, 8008630 <__ieee754_log+0x318>)
 80084be:	e9d3 2300 	ldrd	r2, r3, [r3]
 80084c2:	f7f7 feeb 	bl	800029c <__adddf3>
 80084c6:	4642      	mov	r2, r8
 80084c8:	464b      	mov	r3, r9
 80084ca:	f7f8 f89d 	bl	8000608 <__aeabi_dmul>
 80084ce:	a35a      	add	r3, pc, #360	@ (adr r3, 8008638 <__ieee754_log+0x320>)
 80084d0:	e9d3 2300 	ldrd	r2, r3, [r3]
 80084d4:	f7f7 fee2 	bl	800029c <__adddf3>
 80084d8:	4642      	mov	r2, r8
 80084da:	464b      	mov	r3, r9
 80084dc:	f7f8 f894 	bl	8000608 <__aeabi_dmul>
 80084e0:	a357      	add	r3, pc, #348	@ (adr r3, 8008640 <__ieee754_log+0x328>)
 80084e2:	e9d3 2300 	ldrd	r2, r3, [r3]
 80084e6:	f7f7 fed9 	bl	800029c <__adddf3>
 80084ea:	e9dd 2304 	ldrd	r2, r3, [sp, #16]
 80084ee:	f7f8 f88b 	bl	8000608 <__aeabi_dmul>
 80084f2:	a355      	add	r3, pc, #340	@ (adr r3, 8008648 <__ieee754_log+0x330>)
 80084f4:	e9d3 2300 	ldrd	r2, r3, [r3]
 80084f8:	e9cd 0104 	strd	r0, r1, [sp, #16]
 80084fc:	4640      	mov	r0, r8
 80084fe:	4649      	mov	r1, r9
 8008500:	f7f8 f882 	bl	8000608 <__aeabi_dmul>
 8008504:	a352      	add	r3, pc, #328	@ (adr r3, 8008650 <__ieee754_log+0x338>)
 8008506:	e9d3 2300 	ldrd	r2, r3, [r3]
 800850a:	f7f7 fec7 	bl	800029c <__adddf3>
 800850e:	4642      	mov	r2, r8
 8008510:	464b      	mov	r3, r9
 8008512:	f7f8 f879 	bl	8000608 <__aeabi_dmul>
 8008516:	a350      	add	r3, pc, #320	@ (adr r3, 8008658 <__ieee754_log+0x340>)
 8008518:	e9d3 2300 	ldrd	r2, r3, [r3]
 800851c:	f7f7 febe 	bl	800029c <__adddf3>
 8008520:	4642      	mov	r2, r8
 8008522:	464b      	mov	r3, r9
 8008524:	f7f8 f870 	bl	8000608 <__aeabi_dmul>
 8008528:	4602      	mov	r2, r0
 800852a:	460b      	mov	r3, r1
 800852c:	e9dd 0104 	ldrd	r0, r1, [sp, #16]
 8008530:	f7f7 feb4 	bl	800029c <__adddf3>
 8008534:	2d00      	cmp	r5, #0
 8008536:	4680      	mov	r8, r0
 8008538:	4689      	mov	r9, r1
 800853a:	dd48      	ble.n	80085ce <__ieee754_log+0x2b6>
 800853c:	2200      	movs	r2, #0
 800853e:	4b4e      	ldr	r3, [pc, #312]	@ (8008678 <__ieee754_log+0x360>)
 8008540:	4650      	mov	r0, sl
 8008542:	4659      	mov	r1, fp
 8008544:	f7f8 f860 	bl	8000608 <__aeabi_dmul>
 8008548:	4652      	mov	r2, sl
 800854a:	465b      	mov	r3, fp
 800854c:	f7f8 f85c 	bl	8000608 <__aeabi_dmul>
 8008550:	4602      	mov	r2, r0
 8008552:	460b      	mov	r3, r1
 8008554:	4606      	mov	r6, r0
 8008556:	460f      	mov	r7, r1
 8008558:	4640      	mov	r0, r8
 800855a:	4649      	mov	r1, r9
 800855c:	f7f7 fe9e 	bl	800029c <__adddf3>
 8008560:	e9dd 2300 	ldrd	r2, r3, [sp]
 8008564:	f7f8 f850 	bl	8000608 <__aeabi_dmul>
 8008568:	4680      	mov	r8, r0
 800856a:	4689      	mov	r9, r1
 800856c:	b964      	cbnz	r4, 8008588 <__ieee754_log+0x270>
 800856e:	4602      	mov	r2, r0
 8008570:	460b      	mov	r3, r1
 8008572:	4630      	mov	r0, r6
 8008574:	4639      	mov	r1, r7
 8008576:	f7f7 fe8f 	bl	8000298 <__aeabi_dsub>
 800857a:	4602      	mov	r2, r0
 800857c:	460b      	mov	r3, r1
 800857e:	4650      	mov	r0, sl
 8008580:	4659      	mov	r1, fp
 8008582:	f7f7 fe89 	bl	8000298 <__aeabi_dsub>
 8008586:	e6db      	b.n	8008340 <__ieee754_log+0x28>
 8008588:	a321      	add	r3, pc, #132	@ (adr r3, 8008610 <__ieee754_log+0x2f8>)
 800858a:	e9d3 2300 	ldrd	r2, r3, [r3]
 800858e:	e9dd 0102 	ldrd	r0, r1, [sp, #8]
 8008592:	f7f8 f839 	bl	8000608 <__aeabi_dmul>
 8008596:	4604      	mov	r4, r0
 8008598:	460d      	mov	r5, r1
 800859a:	a31f      	add	r3, pc, #124	@ (adr r3, 8008618 <__ieee754_log+0x300>)
 800859c:	e9d3 2300 	ldrd	r2, r3, [r3]
 80085a0:	e9dd 0102 	ldrd	r0, r1, [sp, #8]
 80085a4:	f7f8 f830 	bl	8000608 <__aeabi_dmul>
 80085a8:	4642      	mov	r2, r8
 80085aa:	464b      	mov	r3, r9
 80085ac:	f7f7 fe76 	bl	800029c <__adddf3>
 80085b0:	4602      	mov	r2, r0
 80085b2:	460b      	mov	r3, r1
 80085b4:	4630      	mov	r0, r6
 80085b6:	4639      	mov	r1, r7
 80085b8:	f7f7 fe6e 	bl	8000298 <__aeabi_dsub>
 80085bc:	4652      	mov	r2, sl
 80085be:	465b      	mov	r3, fp
 80085c0:	f7f7 fe6a 	bl	8000298 <__aeabi_dsub>
 80085c4:	4602      	mov	r2, r0
 80085c6:	460b      	mov	r3, r1
 80085c8:	4620      	mov	r0, r4
 80085ca:	4629      	mov	r1, r5
 80085cc:	e7d9      	b.n	8008582 <__ieee754_log+0x26a>
 80085ce:	4602      	mov	r2, r0
 80085d0:	460b      	mov	r3, r1
 80085d2:	4650      	mov	r0, sl
 80085d4:	4659      	mov	r1, fp
 80085d6:	f7f7 fe5f 	bl	8000298 <__aeabi_dsub>
 80085da:	e9dd 2300 	ldrd	r2, r3, [sp]
 80085de:	f7f8 f813 	bl	8000608 <__aeabi_dmul>
 80085e2:	4606      	mov	r6, r0
 80085e4:	460f      	mov	r7, r1
 80085e6:	2c00      	cmp	r4, #0
 80085e8:	f43f af25 	beq.w	8008436 <__ieee754_log+0x11e>
 80085ec:	a308      	add	r3, pc, #32	@ (adr r3, 8008610 <__ieee754_log+0x2f8>)
 80085ee:	e9d3 2300 	ldrd	r2, r3, [r3]
 80085f2:	e9dd 0102 	ldrd	r0, r1, [sp, #8]
 80085f6:	f7f8 f807 	bl	8000608 <__aeabi_dmul>
 80085fa:	4604      	mov	r4, r0
 80085fc:	460d      	mov	r5, r1
 80085fe:	a306      	add	r3, pc, #24	@ (adr r3, 8008618 <__ieee754_log+0x300>)
 8008600:	e9d3 2300 	ldrd	r2, r3, [r3]
 8008604:	e9dd 0102 	ldrd	r0, r1, [sp, #8]
 8008608:	e729      	b.n	800845e <__ieee754_log+0x146>
 800860a:	ed9f 0b15 	vldr	d0, [pc, #84]	@ 8008660 <__ieee754_log+0x348>
 800860e:	e699      	b.n	8008344 <__ieee754_log+0x2c>
 8008610:	fee00000 	.word	0xfee00000
 8008614:	3fe62e42 	.word	0x3fe62e42
 8008618:	35793c76 	.word	0x35793c76
 800861c:	3dea39ef 	.word	0x3dea39ef
 8008620:	55555555 	.word	0x55555555
 8008624:	3fd55555 	.word	0x3fd55555
 8008628:	df3e5244 	.word	0xdf3e5244
 800862c:	3fc2f112 	.word	0x3fc2f112
 8008630:	96cb03de 	.word	0x96cb03de
 8008634:	3fc74664 	.word	0x3fc74664
 8008638:	94229359 	.word	0x94229359
 800863c:	3fd24924 	.word	0x3fd24924
 8008640:	55555593 	.word	0x55555593
 8008644:	3fe55555 	.word	0x3fe55555
 8008648:	d078c69f 	.word	0xd078c69f
 800864c:	3fc39a09 	.word	0x3fc39a09
 8008650:	1d8e78af 	.word	0x1d8e78af
 8008654:	3fcc71c5 	.word	0x3fcc71c5
 8008658:	9997fa04 	.word	0x9997fa04
 800865c:	3fd99999 	.word	0x3fd99999
	...
 8008668:	c3500000 	.word	0xc3500000
 800866c:	43500000 	.word	0x43500000
 8008670:	7fefffff 	.word	0x7fefffff
 8008674:	3ff00000 	.word	0x3ff00000
 8008678:	3fe00000 	.word	0x3fe00000
 800867c:	00000000 	.word	0x00000000

08008680 <__ieee754_log10>:
 8008680:	e92d 43f8 	stmdb	sp!, {r3, r4, r5, r6, r7, r8, r9, lr}
 8008684:	ec55 4b10 	vmov	r4, r5, d0
 8008688:	f5b5 1f80 	cmp.w	r5, #1048576	@ 0x100000
 800868c:	462b      	mov	r3, r5
 800868e:	ed2d 8b02 	vpush	{d8}
 8008692:	da2e      	bge.n	80086f2 <__ieee754_log10+0x72>
 8008694:	f025 4200 	bic.w	r2, r5, #2147483648	@ 0x80000000
 8008698:	4322      	orrs	r2, r4
 800869a:	d10b      	bne.n	80086b4 <__ieee754_log10+0x34>
 800869c:	2200      	movs	r2, #0
 800869e:	2300      	movs	r3, #0
 80086a0:	2000      	movs	r0, #0
 80086a2:	4939      	ldr	r1, [pc, #228]	@ (8008788 <__ieee754_log10+0x108>)
 80086a4:	f7f8 f8da 	bl	800085c <__aeabi_ddiv>
 80086a8:	ecbd 8b02 	vpop	{d8}
 80086ac:	ec41 0b10 	vmov	d0, r0, r1
 80086b0:	e8bd 83f8 	ldmia.w	sp!, {r3, r4, r5, r6, r7, r8, r9, pc}
 80086b4:	2d00      	cmp	r5, #0
 80086b6:	da07      	bge.n	80086c8 <__ieee754_log10+0x48>
 80086b8:	4622      	mov	r2, r4
 80086ba:	4620      	mov	r0, r4
 80086bc:	4629      	mov	r1, r5
 80086be:	f7f7 fdeb 	bl	8000298 <__aeabi_dsub>
 80086c2:	2200      	movs	r2, #0
 80086c4:	2300      	movs	r3, #0
 80086c6:	e7ed      	b.n	80086a4 <__ieee754_log10+0x24>
 80086c8:	2200      	movs	r2, #0
 80086ca:	4b30      	ldr	r3, [pc, #192]	@ (800878c <__ieee754_log10+0x10c>)
 80086cc:	4620      	mov	r0, r4
 80086ce:	4629      	mov	r1, r5
 80086d0:	f7f7 ff9a 	bl	8000608 <__aeabi_dmul>
 80086d4:	f06f 0235 	mvn.w	r2, #53	@ 0x35
 80086d8:	4604      	mov	r4, r0
 80086da:	460d      	mov	r5, r1
 80086dc:	460b      	mov	r3, r1
 80086de:	492c      	ldr	r1, [pc, #176]	@ (8008790 <__ieee754_log10+0x110>)
 80086e0:	428b      	cmp	r3, r1
 80086e2:	dd08      	ble.n	80086f6 <__ieee754_log10+0x76>
 80086e4:	4622      	mov	r2, r4
 80086e6:	462b      	mov	r3, r5
 80086e8:	4620      	mov	r0, r4
 80086ea:	4629      	mov	r1, r5
 80086ec:	f7f7 fdd6 	bl	800029c <__adddf3>
 80086f0:	e7da      	b.n	80086a8 <__ieee754_log10+0x28>
 80086f2:	2200      	movs	r2, #0
 80086f4:	e7f3      	b.n	80086de <__ieee754_log10+0x5e>
 80086f6:	1518      	asrs	r0, r3, #20
 80086f8:	f3c3 0813 	ubfx	r8, r3, #0, #20
 80086fc:	f2a0 30ff 	subw	r0, r0, #1023	@ 0x3ff
 8008700:	4410      	add	r0, r2
 8008702:	ea4f 79d0 	mov.w	r9, r0, lsr #31
 8008706:	eb00 70d0 	add.w	r0, r0, r0, lsr #31
 800870a:	f7f7 ff13 	bl	8000534 <__aeabi_i2d>
 800870e:	f5c9 737f 	rsb	r3, r9, #1020	@ 0x3fc
 8008712:	4606      	mov	r6, r0
 8008714:	460f      	mov	r7, r1
 8008716:	3303      	adds	r3, #3
 8008718:	ea48 5503 	orr.w	r5, r8, r3, lsl #20
 800871c:	a314      	add	r3, pc, #80	@ (adr r3, 8008770 <__ieee754_log10+0xf0>)
 800871e:	e9d3 2300 	ldrd	r2, r3, [r3]
 8008722:	ec45 4b18 	vmov	d8, r4, r5
 8008726:	f7f7 ff6f 	bl	8000608 <__aeabi_dmul>
 800872a:	eeb0 0a48 	vmov.f32	s0, s16
 800872e:	eef0 0a68 	vmov.f32	s1, s17
 8008732:	4604      	mov	r4, r0
 8008734:	460d      	mov	r5, r1
 8008736:	f7ff fdef 	bl	8008318 <__ieee754_log>
 800873a:	a30f      	add	r3, pc, #60	@ (adr r3, 8008778 <__ieee754_log10+0xf8>)
 800873c:	e9d3 2300 	ldrd	r2, r3, [r3]
 8008740:	ec51 0b10 	vmov	r0, r1, d0
 8008744:	f7f7 ff60 	bl	8000608 <__aeabi_dmul>
 8008748:	4622      	mov	r2, r4
 800874a:	462b      	mov	r3, r5
 800874c:	f7f7 fda6 	bl	800029c <__adddf3>
 8008750:	4604      	mov	r4, r0
 8008752:	460d      	mov	r5, r1
 8008754:	4630      	mov	r0, r6
 8008756:	4639      	mov	r1, r7
 8008758:	a309      	add	r3, pc, #36	@ (adr r3, 8008780 <__ieee754_log10+0x100>)
 800875a:	e9d3 2300 	ldrd	r2, r3, [r3]
 800875e:	f7f7 ff53 	bl	8000608 <__aeabi_dmul>
 8008762:	4602      	mov	r2, r0
 8008764:	460b      	mov	r3, r1
 8008766:	4620      	mov	r0, r4
 8008768:	4629      	mov	r1, r5
 800876a:	e7bf      	b.n	80086ec <__ieee754_log10+0x6c>
 800876c:	f3af 8000 	nop.w
 8008770:	11f12b36 	.word	0x11f12b36
 8008774:	3d59fef3 	.word	0x3d59fef3
 8008778:	1526e50e 	.word	0x1526e50e
 800877c:	3fdbcb7b 	.word	0x3fdbcb7b
 8008780:	509f6000 	.word	0x509f6000
 8008784:	3fd34413 	.word	0x3fd34413
 8008788:	c3500000 	.word	0xc3500000
 800878c:	43500000 	.word	0x43500000
 8008790:	7fefffff 	.word	0x7fefffff
 8008794:	00000000 	.word	0x00000000

08008798 <__ieee754_pow>:
 8008798:	e92d 4ff0 	stmdb	sp!, {r4, r5, r6, r7, r8, r9, sl, fp, lr}
 800879c:	b091      	sub	sp, #68	@ 0x44
 800879e:	ed8d 1b00 	vstr	d1, [sp]
 80087a2:	e9dd 1900 	ldrd	r1, r9, [sp]
 80087a6:	ec57 6b10 	vmov	r6, r7, d0
 80087aa:	f029 4a00 	bic.w	sl, r9, #2147483648	@ 0x80000000
 80087ae:	ea5a 0001 	orrs.w	r0, sl, r1
 80087b2:	d113      	bne.n	80087dc <__ieee754_pow+0x44>
 80087b4:	19b3      	adds	r3, r6, r6
 80087b6:	f487 2200 	eor.w	r2, r7, #524288	@ 0x80000
 80087ba:	4152      	adcs	r2, r2
 80087bc:	4298      	cmp	r0, r3
 80087be:	4b96      	ldr	r3, [pc, #600]	@ (8008a18 <__ieee754_pow+0x280>)
 80087c0:	4193      	sbcs	r3, r2
 80087c2:	f080 84e7 	bcs.w	8009194 <__ieee754_pow+0x9fc>
 80087c6:	4630      	mov	r0, r6
 80087c8:	4639      	mov	r1, r7
 80087ca:	e9dd 2300 	ldrd	r2, r3, [sp]
 80087ce:	f7f7 fd65 	bl	800029c <__adddf3>
 80087d2:	ec41 0b10 	vmov	d0, r0, r1
 80087d6:	b011      	add	sp, #68	@ 0x44
 80087d8:	e8bd 8ff0 	ldmia.w	sp!, {r4, r5, r6, r7, r8, r9, sl, fp, pc}
 80087dc:	f027 4800 	bic.w	r8, r7, #2147483648	@ 0x80000000
 80087e0:	4a8e      	ldr	r2, [pc, #568]	@ (8008a1c <__ieee754_pow+0x284>)
 80087e2:	463d      	mov	r5, r7
 80087e4:	4633      	mov	r3, r6
 80087e6:	4590      	cmp	r8, r2
 80087e8:	d806      	bhi.n	80087f8 <__ieee754_pow+0x60>
 80087ea:	d101      	bne.n	80087f0 <__ieee754_pow+0x58>
 80087ec:	2e00      	cmp	r6, #0
 80087ee:	d1ea      	bne.n	80087c6 <__ieee754_pow+0x2e>
 80087f0:	4592      	cmp	sl, r2
 80087f2:	d801      	bhi.n	80087f8 <__ieee754_pow+0x60>
 80087f4:	d10e      	bne.n	8008814 <__ieee754_pow+0x7c>
 80087f6:	b169      	cbz	r1, 8008814 <__ieee754_pow+0x7c>
 80087f8:	f105 4540 	add.w	r5, r5, #3221225472	@ 0xc0000000
 80087fc:	f505 1580 	add.w	r5, r5, #1048576	@ 0x100000
 8008800:	431d      	orrs	r5, r3
 8008802:	d1e0      	bne.n	80087c6 <__ieee754_pow+0x2e>
 8008804:	e9dd 3200 	ldrd	r3, r2, [sp]
 8008808:	18db      	adds	r3, r3, r3
 800880a:	f482 2200 	eor.w	r2, r2, #524288	@ 0x80000
 800880e:	4152      	adcs	r2, r2
 8008810:	429d      	cmp	r5, r3
 8008812:	e7d4      	b.n	80087be <__ieee754_pow+0x26>
 8008814:	2d00      	cmp	r5, #0
 8008816:	46c3      	mov	fp, r8
 8008818:	da3a      	bge.n	8008890 <__ieee754_pow+0xf8>
 800881a:	4a81      	ldr	r2, [pc, #516]	@ (8008a20 <__ieee754_pow+0x288>)
 800881c:	4592      	cmp	sl, r2
 800881e:	d84d      	bhi.n	80088bc <__ieee754_pow+0x124>
 8008820:	f1a2 7254 	sub.w	r2, r2, #55574528	@ 0x3500000
 8008824:	4592      	cmp	sl, r2
 8008826:	f240 84c4 	bls.w	80091b2 <__ieee754_pow+0xa1a>
 800882a:	ea4f 522a 	mov.w	r2, sl, asr #20
 800882e:	f2a2 32ff 	subw	r2, r2, #1023	@ 0x3ff
 8008832:	2a14      	cmp	r2, #20
 8008834:	dd0f      	ble.n	8008856 <__ieee754_pow+0xbe>
 8008836:	f1c2 0234 	rsb	r2, r2, #52	@ 0x34
 800883a:	fa21 f402 	lsr.w	r4, r1, r2
 800883e:	fa04 f202 	lsl.w	r2, r4, r2
 8008842:	428a      	cmp	r2, r1
 8008844:	f040 84b5 	bne.w	80091b2 <__ieee754_pow+0xa1a>
 8008848:	f004 0401 	and.w	r4, r4, #1
 800884c:	f1c4 0402 	rsb	r4, r4, #2
 8008850:	2900      	cmp	r1, #0
 8008852:	d158      	bne.n	8008906 <__ieee754_pow+0x16e>
 8008854:	e00e      	b.n	8008874 <__ieee754_pow+0xdc>
 8008856:	2900      	cmp	r1, #0
 8008858:	d154      	bne.n	8008904 <__ieee754_pow+0x16c>
 800885a:	f1c2 0214 	rsb	r2, r2, #20
 800885e:	fa4a f402 	asr.w	r4, sl, r2
 8008862:	fa04 f202 	lsl.w	r2, r4, r2
 8008866:	4552      	cmp	r2, sl
 8008868:	f040 84a0 	bne.w	80091ac <__ieee754_pow+0xa14>
 800886c:	f004 0401 	and.w	r4, r4, #1
 8008870:	f1c4 0402 	rsb	r4, r4, #2
 8008874:	4a6b      	ldr	r2, [pc, #428]	@ (8008a24 <__ieee754_pow+0x28c>)
 8008876:	4592      	cmp	sl, r2
 8008878:	d12e      	bne.n	80088d8 <__ieee754_pow+0x140>
 800887a:	f1b9 0f00 	cmp.w	r9, #0
 800887e:	f280 8491 	bge.w	80091a4 <__ieee754_pow+0xa0c>
 8008882:	4632      	mov	r2, r6
 8008884:	463b      	mov	r3, r7
 8008886:	2000      	movs	r0, #0
 8008888:	4966      	ldr	r1, [pc, #408]	@ (8008a24 <__ieee754_pow+0x28c>)
 800888a:	f7f7 ffe7 	bl	800085c <__aeabi_ddiv>
 800888e:	e7a0      	b.n	80087d2 <__ieee754_pow+0x3a>
 8008890:	2400      	movs	r4, #0
 8008892:	bbc1      	cbnz	r1, 8008906 <__ieee754_pow+0x16e>
 8008894:	4a61      	ldr	r2, [pc, #388]	@ (8008a1c <__ieee754_pow+0x284>)
 8008896:	4592      	cmp	sl, r2
 8008898:	d1ec      	bne.n	8008874 <__ieee754_pow+0xdc>
 800889a:	f108 4240 	add.w	r2, r8, #3221225472	@ 0xc0000000
 800889e:	f502 1280 	add.w	r2, r2, #1048576	@ 0x100000
 80088a2:	431a      	orrs	r2, r3
 80088a4:	f000 8476 	beq.w	8009194 <__ieee754_pow+0x9fc>
 80088a8:	4b5f      	ldr	r3, [pc, #380]	@ (8008a28 <__ieee754_pow+0x290>)
 80088aa:	4598      	cmp	r8, r3
 80088ac:	d908      	bls.n	80088c0 <__ieee754_pow+0x128>
 80088ae:	f1b9 0f00 	cmp.w	r9, #0
 80088b2:	f2c0 8473 	blt.w	800919c <__ieee754_pow+0xa04>
 80088b6:	e9dd 0100 	ldrd	r0, r1, [sp]
 80088ba:	e78a      	b.n	80087d2 <__ieee754_pow+0x3a>
 80088bc:	2402      	movs	r4, #2
 80088be:	e7e8      	b.n	8008892 <__ieee754_pow+0xfa>
 80088c0:	f1b9 0f00 	cmp.w	r9, #0
 80088c4:	f04f 0000 	mov.w	r0, #0
 80088c8:	f04f 0100 	mov.w	r1, #0
 80088cc:	da81      	bge.n	80087d2 <__ieee754_pow+0x3a>
 80088ce:	e9dd 0300 	ldrd	r0, r3, [sp]
 80088d2:	f103 4100 	add.w	r1, r3, #2147483648	@ 0x80000000
 80088d6:	e77c      	b.n	80087d2 <__ieee754_pow+0x3a>
 80088d8:	f1b9 4f80 	cmp.w	r9, #1073741824	@ 0x40000000
 80088dc:	d106      	bne.n	80088ec <__ieee754_pow+0x154>
 80088de:	4632      	mov	r2, r6
 80088e0:	463b      	mov	r3, r7
 80088e2:	4630      	mov	r0, r6
 80088e4:	4639      	mov	r1, r7
 80088e6:	f7f7 fe8f 	bl	8000608 <__aeabi_dmul>
 80088ea:	e772      	b.n	80087d2 <__ieee754_pow+0x3a>
 80088ec:	4a4f      	ldr	r2, [pc, #316]	@ (8008a2c <__ieee754_pow+0x294>)
 80088ee:	4591      	cmp	r9, r2
 80088f0:	d109      	bne.n	8008906 <__ieee754_pow+0x16e>
 80088f2:	2d00      	cmp	r5, #0
 80088f4:	db07      	blt.n	8008906 <__ieee754_pow+0x16e>
 80088f6:	ec47 6b10 	vmov	d0, r6, r7
 80088fa:	b011      	add	sp, #68	@ 0x44
 80088fc:	e8bd 4ff0 	ldmia.w	sp!, {r4, r5, r6, r7, r8, r9, sl, fp, lr}
 8008900:	f7ff bc2a 	b.w	8008158 <__ieee754_sqrt>
 8008904:	2400      	movs	r4, #0
 8008906:	9302      	str	r3, [sp, #8]
 8008908:	ec47 6b10 	vmov	d0, r6, r7
 800890c:	f000 fc84 	bl	8009218 <fabs>
 8008910:	9b02      	ldr	r3, [sp, #8]
 8008912:	ec51 0b10 	vmov	r0, r1, d0
 8008916:	bb53      	cbnz	r3, 800896e <__ieee754_pow+0x1d6>
 8008918:	f025 4240 	bic.w	r2, r5, #3221225472	@ 0xc0000000
 800891c:	4b41      	ldr	r3, [pc, #260]	@ (8008a24 <__ieee754_pow+0x28c>)
 800891e:	429a      	cmp	r2, r3
 8008920:	d002      	beq.n	8008928 <__ieee754_pow+0x190>
 8008922:	f1b8 0f00 	cmp.w	r8, #0
 8008926:	d122      	bne.n	800896e <__ieee754_pow+0x1d6>
 8008928:	f1b9 0f00 	cmp.w	r9, #0
 800892c:	da05      	bge.n	800893a <__ieee754_pow+0x1a2>
 800892e:	4602      	mov	r2, r0
 8008930:	460b      	mov	r3, r1
 8008932:	2000      	movs	r0, #0
 8008934:	493b      	ldr	r1, [pc, #236]	@ (8008a24 <__ieee754_pow+0x28c>)
 8008936:	f7f7 ff91 	bl	800085c <__aeabi_ddiv>
 800893a:	2d00      	cmp	r5, #0
 800893c:	f6bf af49 	bge.w	80087d2 <__ieee754_pow+0x3a>
 8008940:	f108 4840 	add.w	r8, r8, #3221225472	@ 0xc0000000
 8008944:	f508 1880 	add.w	r8, r8, #1048576	@ 0x100000
 8008948:	ea58 0804 	orrs.w	r8, r8, r4
 800894c:	d108      	bne.n	8008960 <__ieee754_pow+0x1c8>
 800894e:	4602      	mov	r2, r0
 8008950:	460b      	mov	r3, r1
 8008952:	4610      	mov	r0, r2
 8008954:	4619      	mov	r1, r3
 8008956:	f7f7 fc9f 	bl	8000298 <__aeabi_dsub>
 800895a:	4602      	mov	r2, r0
 800895c:	460b      	mov	r3, r1
 800895e:	e794      	b.n	800888a <__ieee754_pow+0xf2>
 8008960:	2c01      	cmp	r4, #1
 8008962:	f47f af36 	bne.w	80087d2 <__ieee754_pow+0x3a>
 8008966:	f101 4300 	add.w	r3, r1, #2147483648	@ 0x80000000
 800896a:	4619      	mov	r1, r3
 800896c:	e731      	b.n	80087d2 <__ieee754_pow+0x3a>
 800896e:	0feb      	lsrs	r3, r5, #31
 8008970:	3b01      	subs	r3, #1
 8008972:	ea53 0204 	orrs.w	r2, r3, r4
 8008976:	d102      	bne.n	800897e <__ieee754_pow+0x1e6>
 8008978:	4632      	mov	r2, r6
 800897a:	463b      	mov	r3, r7
 800897c:	e7e9      	b.n	8008952 <__ieee754_pow+0x1ba>
 800897e:	3c01      	subs	r4, #1
 8008980:	431c      	orrs	r4, r3
 8008982:	d016      	beq.n	80089b2 <__ieee754_pow+0x21a>
 8008984:	ed9f 7b20 	vldr	d7, [pc, #128]	@ 8008a08 <__ieee754_pow+0x270>
 8008988:	f1ba 4f84 	cmp.w	sl, #1107296256	@ 0x42000000
 800898c:	ed8d 7b02 	vstr	d7, [sp, #8]
 8008990:	f240 810e 	bls.w	8008bb0 <__ieee754_pow+0x418>
 8008994:	4b26      	ldr	r3, [pc, #152]	@ (8008a30 <__ieee754_pow+0x298>)
 8008996:	459a      	cmp	sl, r3
 8008998:	4b23      	ldr	r3, [pc, #140]	@ (8008a28 <__ieee754_pow+0x290>)
 800899a:	d916      	bls.n	80089ca <__ieee754_pow+0x232>
 800899c:	4598      	cmp	r8, r3
 800899e:	d80b      	bhi.n	80089b8 <__ieee754_pow+0x220>
 80089a0:	f1b9 0f00 	cmp.w	r9, #0
 80089a4:	da0b      	bge.n	80089be <__ieee754_pow+0x226>
 80089a6:	2000      	movs	r0, #0
 80089a8:	b011      	add	sp, #68	@ 0x44
 80089aa:	e8bd 4ff0 	ldmia.w	sp!, {r4, r5, r6, r7, r8, r9, sl, fp, lr}
 80089ae:	f000 bcef 	b.w	8009390 <__math_oflow>
 80089b2:	ed9f 7b17 	vldr	d7, [pc, #92]	@ 8008a10 <__ieee754_pow+0x278>
 80089b6:	e7e7      	b.n	8008988 <__ieee754_pow+0x1f0>
 80089b8:	f1b9 0f00 	cmp.w	r9, #0
 80089bc:	dcf3      	bgt.n	80089a6 <__ieee754_pow+0x20e>
 80089be:	2000      	movs	r0, #0
 80089c0:	b011      	add	sp, #68	@ 0x44
 80089c2:	e8bd 4ff0 	ldmia.w	sp!, {r4, r5, r6, r7, r8, r9, sl, fp, lr}
 80089c6:	f000 bcdb 	b.w	8009380 <__math_uflow>
 80089ca:	4598      	cmp	r8, r3
 80089cc:	d20c      	bcs.n	80089e8 <__ieee754_pow+0x250>
 80089ce:	2200      	movs	r2, #0
 80089d0:	2300      	movs	r3, #0
 80089d2:	e9dd 0102 	ldrd	r0, r1, [sp, #8]
 80089d6:	f7f8 f889 	bl	8000aec <__aeabi_dcmplt>
 80089da:	3800      	subs	r0, #0
 80089dc:	bf18      	it	ne
 80089de:	2001      	movne	r0, #1
 80089e0:	f1b9 0f00 	cmp.w	r9, #0
 80089e4:	daec      	bge.n	80089c0 <__ieee754_pow+0x228>
 80089e6:	e7df      	b.n	80089a8 <__ieee754_pow+0x210>
 80089e8:	4b0e      	ldr	r3, [pc, #56]	@ (8008a24 <__ieee754_pow+0x28c>)
 80089ea:	2200      	movs	r2, #0
 80089ec:	4598      	cmp	r8, r3
 80089ee:	d921      	bls.n	8008a34 <__ieee754_pow+0x29c>
 80089f0:	2300      	movs	r3, #0
 80089f2:	e9dd 0102 	ldrd	r0, r1, [sp, #8]
 80089f6:	f7f8 f879 	bl	8000aec <__aeabi_dcmplt>
 80089fa:	3800      	subs	r0, #0
 80089fc:	bf18      	it	ne
 80089fe:	2001      	movne	r0, #1
 8008a00:	f1b9 0f00 	cmp.w	r9, #0
 8008a04:	dcd0      	bgt.n	80089a8 <__ieee754_pow+0x210>
 8008a06:	e7db      	b.n	80089c0 <__ieee754_pow+0x228>
 8008a08:	00000000 	.word	0x00000000
 8008a0c:	3ff00000 	.word	0x3ff00000
 8008a10:	00000000 	.word	0x00000000
 8008a14:	bff00000 	.word	0xbff00000
 8008a18:	fff00000 	.word	0xfff00000
 8008a1c:	7ff00000 	.word	0x7ff00000
 8008a20:	433fffff 	.word	0x433fffff
 8008a24:	3ff00000 	.word	0x3ff00000
 8008a28:	3fefffff 	.word	0x3fefffff
 8008a2c:	3fe00000 	.word	0x3fe00000
 8008a30:	43f00000 	.word	0x43f00000
 8008a34:	4b5a      	ldr	r3, [pc, #360]	@ (8008ba0 <__ieee754_pow+0x408>)
 8008a36:	f7f7 fc2f 	bl	8000298 <__aeabi_dsub>
 8008a3a:	4604      	mov	r4, r0
 8008a3c:	460d      	mov	r5, r1
 8008a3e:	a350      	add	r3, pc, #320	@ (adr r3, 8008b80 <__ieee754_pow+0x3e8>)
 8008a40:	e9d3 2300 	ldrd	r2, r3, [r3]
 8008a44:	f7f7 fde0 	bl	8000608 <__aeabi_dmul>
 8008a48:	4606      	mov	r6, r0
 8008a4a:	460f      	mov	r7, r1
 8008a4c:	4620      	mov	r0, r4
 8008a4e:	4629      	mov	r1, r5
 8008a50:	a34d      	add	r3, pc, #308	@ (adr r3, 8008b88 <__ieee754_pow+0x3f0>)
 8008a52:	e9d3 2300 	ldrd	r2, r3, [r3]
 8008a56:	f7f7 fdd7 	bl	8000608 <__aeabi_dmul>
 8008a5a:	2200      	movs	r2, #0
 8008a5c:	4682      	mov	sl, r0
 8008a5e:	468b      	mov	fp, r1
 8008a60:	4b50      	ldr	r3, [pc, #320]	@ (8008ba4 <__ieee754_pow+0x40c>)
 8008a62:	4620      	mov	r0, r4
 8008a64:	4629      	mov	r1, r5
 8008a66:	f7f7 fdcf 	bl	8000608 <__aeabi_dmul>
 8008a6a:	4602      	mov	r2, r0
 8008a6c:	460b      	mov	r3, r1
 8008a6e:	a148      	add	r1, pc, #288	@ (adr r1, 8008b90 <__ieee754_pow+0x3f8>)
 8008a70:	e9d1 0100 	ldrd	r0, r1, [r1]
 8008a74:	f7f7 fc10 	bl	8000298 <__aeabi_dsub>
 8008a78:	4622      	mov	r2, r4
 8008a7a:	462b      	mov	r3, r5
 8008a7c:	f7f7 fdc4 	bl	8000608 <__aeabi_dmul>
 8008a80:	4602      	mov	r2, r0
 8008a82:	460b      	mov	r3, r1
 8008a84:	2000      	movs	r0, #0
 8008a86:	4948      	ldr	r1, [pc, #288]	@ (8008ba8 <__ieee754_pow+0x410>)
 8008a88:	f7f7 fc06 	bl	8000298 <__aeabi_dsub>
 8008a8c:	4680      	mov	r8, r0
 8008a8e:	4689      	mov	r9, r1
 8008a90:	4622      	mov	r2, r4
 8008a92:	462b      	mov	r3, r5
 8008a94:	4620      	mov	r0, r4
 8008a96:	4629      	mov	r1, r5
 8008a98:	2400      	movs	r4, #0
 8008a9a:	f7f7 fdb5 	bl	8000608 <__aeabi_dmul>
 8008a9e:	4602      	mov	r2, r0
 8008aa0:	460b      	mov	r3, r1
 8008aa2:	4640      	mov	r0, r8
 8008aa4:	4649      	mov	r1, r9
 8008aa6:	f7f7 fdaf 	bl	8000608 <__aeabi_dmul>
 8008aaa:	a33b      	add	r3, pc, #236	@ (adr r3, 8008b98 <__ieee754_pow+0x400>)
 8008aac:	e9d3 2300 	ldrd	r2, r3, [r3]
 8008ab0:	f7f7 fdaa 	bl	8000608 <__aeabi_dmul>
 8008ab4:	4602      	mov	r2, r0
 8008ab6:	460b      	mov	r3, r1
 8008ab8:	4650      	mov	r0, sl
 8008aba:	4659      	mov	r1, fp
 8008abc:	f7f7 fbec 	bl	8000298 <__aeabi_dsub>
 8008ac0:	4602      	mov	r2, r0
 8008ac2:	460b      	mov	r3, r1
 8008ac4:	4680      	mov	r8, r0
 8008ac6:	4689      	mov	r9, r1
 8008ac8:	4630      	mov	r0, r6
 8008aca:	4639      	mov	r1, r7
 8008acc:	f7f7 fbe6 	bl	800029c <__adddf3>
 8008ad0:	4632      	mov	r2, r6
 8008ad2:	463b      	mov	r3, r7
 8008ad4:	4620      	mov	r0, r4
 8008ad6:	460d      	mov	r5, r1
 8008ad8:	f7f7 fbde 	bl	8000298 <__aeabi_dsub>
 8008adc:	4602      	mov	r2, r0
 8008ade:	460b      	mov	r3, r1
 8008ae0:	4640      	mov	r0, r8
 8008ae2:	4649      	mov	r1, r9
 8008ae4:	f7f7 fbd8 	bl	8000298 <__aeabi_dsub>
 8008ae8:	4606      	mov	r6, r0
 8008aea:	460f      	mov	r7, r1
 8008aec:	e9dd 2300 	ldrd	r2, r3, [sp]
 8008af0:	e9dd 0100 	ldrd	r0, r1, [sp]
 8008af4:	e9cd 2304 	strd	r2, r3, [sp, #16]
 8008af8:	2300      	movs	r3, #0
 8008afa:	9304      	str	r3, [sp, #16]
 8008afc:	e9dd ab04 	ldrd	sl, fp, [sp, #16]
 8008b00:	4652      	mov	r2, sl
 8008b02:	465b      	mov	r3, fp
 8008b04:	f7f7 fbc8 	bl	8000298 <__aeabi_dsub>
 8008b08:	4622      	mov	r2, r4
 8008b0a:	462b      	mov	r3, r5
 8008b0c:	f7f7 fd7c 	bl	8000608 <__aeabi_dmul>
 8008b10:	4680      	mov	r8, r0
 8008b12:	4689      	mov	r9, r1
 8008b14:	4630      	mov	r0, r6
 8008b16:	4639      	mov	r1, r7
 8008b18:	e9dd 2300 	ldrd	r2, r3, [sp]
 8008b1c:	f7f7 fd74 	bl	8000608 <__aeabi_dmul>
 8008b20:	4602      	mov	r2, r0
 8008b22:	460b      	mov	r3, r1
 8008b24:	4640      	mov	r0, r8
 8008b26:	4649      	mov	r1, r9
 8008b28:	f7f7 fbb8 	bl	800029c <__adddf3>
 8008b2c:	4606      	mov	r6, r0
 8008b2e:	460f      	mov	r7, r1
 8008b30:	4652      	mov	r2, sl
 8008b32:	465b      	mov	r3, fp
 8008b34:	4620      	mov	r0, r4
 8008b36:	4629      	mov	r1, r5
 8008b38:	f7f7 fd66 	bl	8000608 <__aeabi_dmul>
 8008b3c:	460b      	mov	r3, r1
 8008b3e:	4602      	mov	r2, r0
 8008b40:	4680      	mov	r8, r0
 8008b42:	4689      	mov	r9, r1
 8008b44:	4630      	mov	r0, r6
 8008b46:	4639      	mov	r1, r7
 8008b48:	f7f7 fba8 	bl	800029c <__adddf3>
 8008b4c:	4b17      	ldr	r3, [pc, #92]	@ (8008bac <__ieee754_pow+0x414>)
 8008b4e:	4604      	mov	r4, r0
 8008b50:	460d      	mov	r5, r1
 8008b52:	4299      	cmp	r1, r3
 8008b54:	468a      	mov	sl, r1
 8008b56:	468b      	mov	fp, r1
 8008b58:	f340 82f0 	ble.w	800913c <__ieee754_pow+0x9a4>
 8008b5c:	f101 433f 	add.w	r3, r1, #3204448256	@ 0xbf000000
 8008b60:	f503 03e0 	add.w	r3, r3, #7340032	@ 0x700000
 8008b64:	4303      	orrs	r3, r0
 8008b66:	f000 81e8 	beq.w	8008f3a <__ieee754_pow+0x7a2>
 8008b6a:	2200      	movs	r2, #0
 8008b6c:	2300      	movs	r3, #0
 8008b6e:	e9dd 0102 	ldrd	r0, r1, [sp, #8]
 8008b72:	f7f7 ffbb 	bl	8000aec <__aeabi_dcmplt>
 8008b76:	3800      	subs	r0, #0
 8008b78:	bf18      	it	ne
 8008b7a:	2001      	movne	r0, #1
 8008b7c:	e714      	b.n	80089a8 <__ieee754_pow+0x210>
 8008b7e:	bf00      	nop
 8008b80:	60000000 	.word	0x60000000
 8008b84:	3ff71547 	.word	0x3ff71547
 8008b88:	f85ddf44 	.word	0xf85ddf44
 8008b8c:	3e54ae0b 	.word	0x3e54ae0b
 8008b90:	55555555 	.word	0x55555555
 8008b94:	3fd55555 	.word	0x3fd55555
 8008b98:	652b82fe 	.word	0x652b82fe
 8008b9c:	3ff71547 	.word	0x3ff71547
 8008ba0:	3ff00000 	.word	0x3ff00000
 8008ba4:	3fd00000 	.word	0x3fd00000
 8008ba8:	3fe00000 	.word	0x3fe00000
 8008bac:	408fffff 	.word	0x408fffff
 8008bb0:	4bd5      	ldr	r3, [pc, #852]	@ (8008f08 <__ieee754_pow+0x770>)
 8008bb2:	2200      	movs	r2, #0
 8008bb4:	402b      	ands	r3, r5
 8008bb6:	b92b      	cbnz	r3, 8008bc4 <__ieee754_pow+0x42c>
 8008bb8:	4bd4      	ldr	r3, [pc, #848]	@ (8008f0c <__ieee754_pow+0x774>)
 8008bba:	f7f7 fd25 	bl	8000608 <__aeabi_dmul>
 8008bbe:	f06f 0234 	mvn.w	r2, #52	@ 0x34
 8008bc2:	468b      	mov	fp, r1
 8008bc4:	ea4f 532b 	mov.w	r3, fp, asr #20
 8008bc8:	f3cb 0b13 	ubfx	fp, fp, #0, #20
 8008bcc:	f2a3 33ff 	subw	r3, r3, #1023	@ 0x3ff
 8008bd0:	f04b 557f 	orr.w	r5, fp, #1069547520	@ 0x3fc00000
 8008bd4:	4413      	add	r3, r2
 8008bd6:	f445 1540 	orr.w	r5, r5, #3145728	@ 0x300000
 8008bda:	930a      	str	r3, [sp, #40]	@ 0x28
 8008bdc:	4bcc      	ldr	r3, [pc, #816]	@ (8008f10 <__ieee754_pow+0x778>)
 8008bde:	459b      	cmp	fp, r3
 8008be0:	dd08      	ble.n	8008bf4 <__ieee754_pow+0x45c>
 8008be2:	4bcc      	ldr	r3, [pc, #816]	@ (8008f14 <__ieee754_pow+0x77c>)
 8008be4:	459b      	cmp	fp, r3
 8008be6:	f340 81a5 	ble.w	8008f34 <__ieee754_pow+0x79c>
 8008bea:	9b0a      	ldr	r3, [sp, #40]	@ 0x28
 8008bec:	f5a5 1580 	sub.w	r5, r5, #1048576	@ 0x100000
 8008bf0:	3301      	adds	r3, #1
 8008bf2:	930a      	str	r3, [sp, #40]	@ 0x28
 8008bf4:	f04f 0a00 	mov.w	sl, #0
 8008bf8:	ea4f 03ca 	mov.w	r3, sl, lsl #3
 8008bfc:	4629      	mov	r1, r5
 8008bfe:	106d      	asrs	r5, r5, #1
 8008c00:	930b      	str	r3, [sp, #44]	@ 0x2c
 8008c02:	4bc5      	ldr	r3, [pc, #788]	@ (8008f18 <__ieee754_pow+0x780>)
 8008c04:	f045 5500 	orr.w	r5, r5, #536870912	@ 0x20000000
 8008c08:	eb03 03ca 	add.w	r3, r3, sl, lsl #3
 8008c0c:	f505 2500 	add.w	r5, r5, #524288	@ 0x80000
 8008c10:	ed93 7b00 	vldr	d7, [r3]
 8008c14:	e9cd 0108 	strd	r0, r1, [sp, #32]
 8008c18:	ec53 2b17 	vmov	r2, r3, d7
 8008c1c:	ed8d 7b06 	vstr	d7, [sp, #24]
 8008c20:	f7f7 fb3a 	bl	8000298 <__aeabi_dsub>
 8008c24:	4606      	mov	r6, r0
 8008c26:	460f      	mov	r7, r1
 8008c28:	e9dd 2308 	ldrd	r2, r3, [sp, #32]
 8008c2c:	e9dd 0106 	ldrd	r0, r1, [sp, #24]
 8008c30:	f7f7 fb34 	bl	800029c <__adddf3>
 8008c34:	4602      	mov	r2, r0
 8008c36:	460b      	mov	r3, r1
 8008c38:	2000      	movs	r0, #0
 8008c3a:	49b8      	ldr	r1, [pc, #736]	@ (8008f1c <__ieee754_pow+0x784>)
 8008c3c:	f7f7 fe0e 	bl	800085c <__aeabi_ddiv>
 8008c40:	4602      	mov	r2, r0
 8008c42:	460b      	mov	r3, r1
 8008c44:	e9cd 010c 	strd	r0, r1, [sp, #48]	@ 0x30
 8008c48:	4630      	mov	r0, r6
 8008c4a:	4639      	mov	r1, r7
 8008c4c:	f7f7 fcdc 	bl	8000608 <__aeabi_dmul>
 8008c50:	2200      	movs	r2, #0
 8008c52:	eb05 438a 	add.w	r3, r5, sl, lsl #18
 8008c56:	4614      	mov	r4, r2
 8008c58:	461d      	mov	r5, r3
 8008c5a:	e9cd 0104 	strd	r0, r1, [sp, #16]
 8008c5e:	e9dd bc04 	ldrd	fp, ip, [sp, #16]
 8008c62:	f04f 0b00 	mov.w	fp, #0
 8008c66:	4661      	mov	r1, ip
 8008c68:	46e1      	mov	r9, ip
 8008c6a:	4658      	mov	r0, fp
 8008c6c:	46d8      	mov	r8, fp
 8008c6e:	e9cd bc0e 	strd	fp, ip, [sp, #56]	@ 0x38
 8008c72:	f7f7 fcc9 	bl	8000608 <__aeabi_dmul>
 8008c76:	4602      	mov	r2, r0
 8008c78:	460b      	mov	r3, r1
 8008c7a:	4630      	mov	r0, r6
 8008c7c:	4639      	mov	r1, r7
 8008c7e:	f7f7 fb0b 	bl	8000298 <__aeabi_dsub>
 8008c82:	4606      	mov	r6, r0
 8008c84:	460f      	mov	r7, r1
 8008c86:	4620      	mov	r0, r4
 8008c88:	4629      	mov	r1, r5
 8008c8a:	e9dd 2306 	ldrd	r2, r3, [sp, #24]
 8008c8e:	f7f7 fb03 	bl	8000298 <__aeabi_dsub>
 8008c92:	4602      	mov	r2, r0
 8008c94:	460b      	mov	r3, r1
 8008c96:	e9dd 0108 	ldrd	r0, r1, [sp, #32]
 8008c9a:	f7f7 fafd 	bl	8000298 <__aeabi_dsub>
 8008c9e:	465a      	mov	r2, fp
 8008ca0:	464b      	mov	r3, r9
 8008ca2:	f7f7 fcb1 	bl	8000608 <__aeabi_dmul>
 8008ca6:	4602      	mov	r2, r0
 8008ca8:	460b      	mov	r3, r1
 8008caa:	4630      	mov	r0, r6
 8008cac:	4639      	mov	r1, r7
 8008cae:	f7f7 faf3 	bl	8000298 <__aeabi_dsub>
 8008cb2:	e9dd 230c 	ldrd	r2, r3, [sp, #48]	@ 0x30
 8008cb6:	f7f7 fca7 	bl	8000608 <__aeabi_dmul>
 8008cba:	e9dd 2304 	ldrd	r2, r3, [sp, #16]
 8008cbe:	e9cd 0106 	strd	r0, r1, [sp, #24]
 8008cc2:	4610      	mov	r0, r2
 8008cc4:	4619      	mov	r1, r3
 8008cc6:	f7f7 fc9f 	bl	8000608 <__aeabi_dmul>
 8008cca:	4604      	mov	r4, r0
 8008ccc:	460d      	mov	r5, r1
 8008cce:	a37c      	add	r3, pc, #496	@ (adr r3, 8008ec0 <__ieee754_pow+0x728>)
 8008cd0:	e9d3 2300 	ldrd	r2, r3, [r3]
 8008cd4:	f7f7 fc98 	bl	8000608 <__aeabi_dmul>
 8008cd8:	a37b      	add	r3, pc, #492	@ (adr r3, 8008ec8 <__ieee754_pow+0x730>)
 8008cda:	e9d3 2300 	ldrd	r2, r3, [r3]
 8008cde:	f7f7 fadd 	bl	800029c <__adddf3>
 8008ce2:	4622      	mov	r2, r4
 8008ce4:	462b      	mov	r3, r5
 8008ce6:	f7f7 fc8f 	bl	8000608 <__aeabi_dmul>
 8008cea:	a379      	add	r3, pc, #484	@ (adr r3, 8008ed0 <__ieee754_pow+0x738>)
 8008cec:	e9d3 2300 	ldrd	r2, r3, [r3]
 8008cf0:	f7f7 fad4 	bl	800029c <__adddf3>
 8008cf4:	4622      	mov	r2, r4
 8008cf6:	462b      	mov	r3, r5
 8008cf8:	f7f7 fc86 	bl	8000608 <__aeabi_dmul>
 8008cfc:	a376      	add	r3, pc, #472	@ (adr r3, 8008ed8 <__ieee754_pow+0x740>)
 8008cfe:	e9d3 2300 	ldrd	r2, r3, [r3]
 8008d02:	f7f7 facb 	bl	800029c <__adddf3>
 8008d06:	4622      	mov	r2, r4
 8008d08:	462b      	mov	r3, r5
 8008d0a:	f7f7 fc7d 	bl	8000608 <__aeabi_dmul>
 8008d0e:	a374      	add	r3, pc, #464	@ (adr r3, 8008ee0 <__ieee754_pow+0x748>)
 8008d10:	e9d3 2300 	ldrd	r2, r3, [r3]
 8008d14:	f7f7 fac2 	bl	800029c <__adddf3>
 8008d18:	4622      	mov	r2, r4
 8008d1a:	462b      	mov	r3, r5
 8008d1c:	f7f7 fc74 	bl	8000608 <__aeabi_dmul>
 8008d20:	a371      	add	r3, pc, #452	@ (adr r3, 8008ee8 <__ieee754_pow+0x750>)
 8008d22:	e9d3 2300 	ldrd	r2, r3, [r3]
 8008d26:	f7f7 fab9 	bl	800029c <__adddf3>
 8008d2a:	4606      	mov	r6, r0
 8008d2c:	460f      	mov	r7, r1
 8008d2e:	4622      	mov	r2, r4
 8008d30:	462b      	mov	r3, r5
 8008d32:	4620      	mov	r0, r4
 8008d34:	4629      	mov	r1, r5
 8008d36:	f7f7 fc67 	bl	8000608 <__aeabi_dmul>
 8008d3a:	4602      	mov	r2, r0
 8008d3c:	460b      	mov	r3, r1
 8008d3e:	4630      	mov	r0, r6
 8008d40:	4639      	mov	r1, r7
 8008d42:	f7f7 fc61 	bl	8000608 <__aeabi_dmul>
 8008d46:	465a      	mov	r2, fp
 8008d48:	4604      	mov	r4, r0
 8008d4a:	460d      	mov	r5, r1
 8008d4c:	464b      	mov	r3, r9
 8008d4e:	e9dd 0104 	ldrd	r0, r1, [sp, #16]
 8008d52:	f7f7 faa3 	bl	800029c <__adddf3>
 8008d56:	e9dd 2306 	ldrd	r2, r3, [sp, #24]
 8008d5a:	f7f7 fc55 	bl	8000608 <__aeabi_dmul>
 8008d5e:	4622      	mov	r2, r4
 8008d60:	462b      	mov	r3, r5
 8008d62:	f7f7 fa9b 	bl	800029c <__adddf3>
 8008d66:	465a      	mov	r2, fp
 8008d68:	464b      	mov	r3, r9
 8008d6a:	e9cd 0108 	strd	r0, r1, [sp, #32]
 8008d6e:	4658      	mov	r0, fp
 8008d70:	4649      	mov	r1, r9
 8008d72:	f7f7 fc49 	bl	8000608 <__aeabi_dmul>
 8008d76:	2200      	movs	r2, #0
 8008d78:	4b69      	ldr	r3, [pc, #420]	@ (8008f20 <__ieee754_pow+0x788>)
 8008d7a:	4606      	mov	r6, r0
 8008d7c:	460f      	mov	r7, r1
 8008d7e:	f7f7 fa8d 	bl	800029c <__adddf3>
 8008d82:	e9dd 2308 	ldrd	r2, r3, [sp, #32]
 8008d86:	f7f7 fa89 	bl	800029c <__adddf3>
 8008d8a:	460d      	mov	r5, r1
 8008d8c:	460b      	mov	r3, r1
 8008d8e:	4640      	mov	r0, r8
 8008d90:	4649      	mov	r1, r9
 8008d92:	e9dd bc0e 	ldrd	fp, ip, [sp, #56]	@ 0x38
 8008d96:	465c      	mov	r4, fp
 8008d98:	465a      	mov	r2, fp
 8008d9a:	e9cd bc0c 	strd	fp, ip, [sp, #48]	@ 0x30
 8008d9e:	f7f7 fc33 	bl	8000608 <__aeabi_dmul>
 8008da2:	2200      	movs	r2, #0
 8008da4:	4680      	mov	r8, r0
 8008da6:	4689      	mov	r9, r1
 8008da8:	4b5d      	ldr	r3, [pc, #372]	@ (8008f20 <__ieee754_pow+0x788>)
 8008daa:	4620      	mov	r0, r4
 8008dac:	4629      	mov	r1, r5
 8008dae:	f7f7 fa73 	bl	8000298 <__aeabi_dsub>
 8008db2:	4632      	mov	r2, r6
 8008db4:	463b      	mov	r3, r7
 8008db6:	f7f7 fa6f 	bl	8000298 <__aeabi_dsub>
 8008dba:	4602      	mov	r2, r0
 8008dbc:	460b      	mov	r3, r1
 8008dbe:	e9dd 0108 	ldrd	r0, r1, [sp, #32]
 8008dc2:	f7f7 fa69 	bl	8000298 <__aeabi_dsub>
 8008dc6:	e9dd 2304 	ldrd	r2, r3, [sp, #16]
 8008dca:	f7f7 fc1d 	bl	8000608 <__aeabi_dmul>
 8008dce:	4606      	mov	r6, r0
 8008dd0:	460f      	mov	r7, r1
 8008dd2:	4622      	mov	r2, r4
 8008dd4:	462b      	mov	r3, r5
 8008dd6:	e9dd 0106 	ldrd	r0, r1, [sp, #24]
 8008dda:	f7f7 fc15 	bl	8000608 <__aeabi_dmul>
 8008dde:	4602      	mov	r2, r0
 8008de0:	460b      	mov	r3, r1
 8008de2:	4630      	mov	r0, r6
 8008de4:	4639      	mov	r1, r7
 8008de6:	f7f7 fa59 	bl	800029c <__adddf3>
 8008dea:	4606      	mov	r6, r0
 8008dec:	460f      	mov	r7, r1
 8008dee:	4602      	mov	r2, r0
 8008df0:	460b      	mov	r3, r1
 8008df2:	4640      	mov	r0, r8
 8008df4:	4649      	mov	r1, r9
 8008df6:	f7f7 fa51 	bl	800029c <__adddf3>
 8008dfa:	460d      	mov	r5, r1
 8008dfc:	e9dd bc0c 	ldrd	fp, ip, [sp, #48]	@ 0x30
 8008e00:	a33b      	add	r3, pc, #236	@ (adr r3, 8008ef0 <__ieee754_pow+0x758>)
 8008e02:	e9d3 2300 	ldrd	r2, r3, [r3]
 8008e06:	465c      	mov	r4, fp
 8008e08:	4658      	mov	r0, fp
 8008e0a:	e9cd bc08 	strd	fp, ip, [sp, #32]
 8008e0e:	f7f7 fbfb 	bl	8000608 <__aeabi_dmul>
 8008e12:	4642      	mov	r2, r8
 8008e14:	464b      	mov	r3, r9
 8008e16:	e9cd 0104 	strd	r0, r1, [sp, #16]
 8008e1a:	4620      	mov	r0, r4
 8008e1c:	4629      	mov	r1, r5
 8008e1e:	f7f7 fa3b 	bl	8000298 <__aeabi_dsub>
 8008e22:	4602      	mov	r2, r0
 8008e24:	460b      	mov	r3, r1
 8008e26:	4630      	mov	r0, r6
 8008e28:	4639      	mov	r1, r7
 8008e2a:	f7f7 fa35 	bl	8000298 <__aeabi_dsub>
 8008e2e:	a332      	add	r3, pc, #200	@ (adr r3, 8008ef8 <__ieee754_pow+0x760>)
 8008e30:	e9d3 2300 	ldrd	r2, r3, [r3]
 8008e34:	f7f7 fbe8 	bl	8000608 <__aeabi_dmul>
 8008e38:	4606      	mov	r6, r0
 8008e3a:	460f      	mov	r7, r1
 8008e3c:	4620      	mov	r0, r4
 8008e3e:	4629      	mov	r1, r5
 8008e40:	a32f      	add	r3, pc, #188	@ (adr r3, 8008f00 <__ieee754_pow+0x768>)
 8008e42:	e9d3 2300 	ldrd	r2, r3, [r3]
 8008e46:	f7f7 fbdf 	bl	8000608 <__aeabi_dmul>
 8008e4a:	4602      	mov	r2, r0
 8008e4c:	460b      	mov	r3, r1
 8008e4e:	4630      	mov	r0, r6
 8008e50:	4639      	mov	r1, r7
 8008e52:	f7f7 fa23 	bl	800029c <__adddf3>
 8008e56:	9a0b      	ldr	r2, [sp, #44]	@ 0x2c
 8008e58:	4b32      	ldr	r3, [pc, #200]	@ (8008f24 <__ieee754_pow+0x78c>)
 8008e5a:	4413      	add	r3, r2
 8008e5c:	e9d3 2300 	ldrd	r2, r3, [r3]
 8008e60:	f7f7 fa1c 	bl	800029c <__adddf3>
 8008e64:	e9cd 0106 	strd	r0, r1, [sp, #24]
 8008e68:	980a      	ldr	r0, [sp, #40]	@ 0x28
 8008e6a:	f7f7 fb63 	bl	8000534 <__aeabi_i2d>
 8008e6e:	9a0b      	ldr	r2, [sp, #44]	@ 0x2c
 8008e70:	4b2d      	ldr	r3, [pc, #180]	@ (8008f28 <__ieee754_pow+0x790>)
 8008e72:	4606      	mov	r6, r0
 8008e74:	460f      	mov	r7, r1
 8008e76:	4413      	add	r3, r2
 8008e78:	e9d3 8900 	ldrd	r8, r9, [r3]
 8008e7c:	e9dd 0104 	ldrd	r0, r1, [sp, #16]
 8008e80:	e9dd 2306 	ldrd	r2, r3, [sp, #24]
 8008e84:	f7f7 fa0a 	bl	800029c <__adddf3>
 8008e88:	4642      	mov	r2, r8
 8008e8a:	464b      	mov	r3, r9
 8008e8c:	f7f7 fa06 	bl	800029c <__adddf3>
 8008e90:	4632      	mov	r2, r6
 8008e92:	463b      	mov	r3, r7
 8008e94:	f7f7 fa02 	bl	800029c <__adddf3>
 8008e98:	4632      	mov	r2, r6
 8008e9a:	463b      	mov	r3, r7
 8008e9c:	460d      	mov	r5, r1
 8008e9e:	e9dd bc08 	ldrd	fp, ip, [sp, #32]
 8008ea2:	4658      	mov	r0, fp
 8008ea4:	465c      	mov	r4, fp
 8008ea6:	f7f7 f9f7 	bl	8000298 <__aeabi_dsub>
 8008eaa:	4642      	mov	r2, r8
 8008eac:	464b      	mov	r3, r9
 8008eae:	f7f7 f9f3 	bl	8000298 <__aeabi_dsub>
 8008eb2:	e9dd 2304 	ldrd	r2, r3, [sp, #16]
 8008eb6:	f7f7 f9ef 	bl	8000298 <__aeabi_dsub>
 8008eba:	4602      	mov	r2, r0
 8008ebc:	e036      	b.n	8008f2c <__ieee754_pow+0x794>
 8008ebe:	bf00      	nop
 8008ec0:	4a454eef 	.word	0x4a454eef
 8008ec4:	3fca7e28 	.word	0x3fca7e28
 8008ec8:	93c9db65 	.word	0x93c9db65
 8008ecc:	3fcd864a 	.word	0x3fcd864a
 8008ed0:	a91d4101 	.word	0xa91d4101
 8008ed4:	3fd17460 	.word	0x3fd17460
 8008ed8:	518f264d 	.word	0x518f264d
 8008edc:	3fd55555 	.word	0x3fd55555
 8008ee0:	db6fabff 	.word	0xdb6fabff
 8008ee4:	3fdb6db6 	.word	0x3fdb6db6
 8008ee8:	33333303 	.word	0x33333303
 8008eec:	3fe33333 	.word	0x3fe33333
 8008ef0:	e0000000 	.word	0xe0000000
 8008ef4:	3feec709 	.word	0x3feec709
 8008ef8:	dc3a03fd 	.word	0xdc3a03fd
 8008efc:	3feec709 	.word	0x3feec709
 8008f00:	145b01f5 	.word	0x145b01f5
 8008f04:	be3e2fe0 	.word	0xbe3e2fe0
 8008f08:	7ff00000 	.word	0x7ff00000
 8008f0c:	43400000 	.word	0x43400000
 8008f10:	0003988e 	.word	0x0003988e
 8008f14:	000bb679 	.word	0x000bb679
 8008f18:	080094e0 	.word	0x080094e0
 8008f1c:	3ff00000 	.word	0x3ff00000
 8008f20:	40080000 	.word	0x40080000
 8008f24:	080094c0 	.word	0x080094c0
 8008f28:	080094d0 	.word	0x080094d0
 8008f2c:	460b      	mov	r3, r1
 8008f2e:	e9dd 0106 	ldrd	r0, r1, [sp, #24]
 8008f32:	e5d7      	b.n	8008ae4 <__ieee754_pow+0x34c>
 8008f34:	f04f 0a01 	mov.w	sl, #1
 8008f38:	e65e      	b.n	8008bf8 <__ieee754_pow+0x460>
 8008f3a:	a3b4      	add	r3, pc, #720	@ (adr r3, 800920c <__ieee754_pow+0xa74>)
 8008f3c:	e9d3 2300 	ldrd	r2, r3, [r3]
 8008f40:	4630      	mov	r0, r6
 8008f42:	4639      	mov	r1, r7
 8008f44:	f7f7 f9aa 	bl	800029c <__adddf3>
 8008f48:	4642      	mov	r2, r8
 8008f4a:	464b      	mov	r3, r9
 8008f4c:	e9cd 0100 	strd	r0, r1, [sp]
 8008f50:	4620      	mov	r0, r4
 8008f52:	4629      	mov	r1, r5
 8008f54:	f7f7 f9a0 	bl	8000298 <__aeabi_dsub>
 8008f58:	4602      	mov	r2, r0
 8008f5a:	460b      	mov	r3, r1
 8008f5c:	e9dd 0100 	ldrd	r0, r1, [sp]
 8008f60:	f7f7 fde2 	bl	8000b28 <__aeabi_dcmpgt>
 8008f64:	2800      	cmp	r0, #0
 8008f66:	f47f ae00 	bne.w	8008b6a <__ieee754_pow+0x3d2>
 8008f6a:	ea4f 5a2a 	mov.w	sl, sl, asr #20
 8008f6e:	f44f 1380 	mov.w	r3, #1048576	@ 0x100000
 8008f72:	48a1      	ldr	r0, [pc, #644]	@ (80091f8 <__ieee754_pow+0xa60>)
 8008f74:	f1bb 0f00 	cmp.w	fp, #0
 8008f78:	f2aa 3afe 	subw	sl, sl, #1022	@ 0x3fe
 8008f7c:	f04f 0200 	mov.w	r2, #0
 8008f80:	fa43 fa0a 	asr.w	sl, r3, sl
 8008f84:	44da      	add	sl, fp
 8008f86:	f3ca 510a 	ubfx	r1, sl, #20, #11
 8008f8a:	f2a1 31ff 	subw	r1, r1, #1023	@ 0x3ff
 8008f8e:	fa40 f001 	asr.w	r0, r0, r1
 8008f92:	f1c1 0114 	rsb	r1, r1, #20
 8008f96:	ea00 030a 	and.w	r3, r0, sl
 8008f9a:	f3ca 0a13 	ubfx	sl, sl, #0, #20
 8008f9e:	4640      	mov	r0, r8
 8008fa0:	f44a 1a80 	orr.w	sl, sl, #1048576	@ 0x100000
 8008fa4:	fa4a fa01 	asr.w	sl, sl, r1
 8008fa8:	4649      	mov	r1, r9
 8008faa:	bfb8      	it	lt
 8008fac:	f1ca 0a00 	rsblt	sl, sl, #0
 8008fb0:	f7f7 f972 	bl	8000298 <__aeabi_dsub>
 8008fb4:	4680      	mov	r8, r0
 8008fb6:	4689      	mov	r9, r1
 8008fb8:	2400      	movs	r4, #0
 8008fba:	4632      	mov	r2, r6
 8008fbc:	463b      	mov	r3, r7
 8008fbe:	4640      	mov	r0, r8
 8008fc0:	4649      	mov	r1, r9
 8008fc2:	f7f7 f96b 	bl	800029c <__adddf3>
 8008fc6:	460d      	mov	r5, r1
 8008fc8:	4620      	mov	r0, r4
 8008fca:	a37b      	add	r3, pc, #492	@ (adr r3, 80091b8 <__ieee754_pow+0xa20>)
 8008fcc:	e9d3 2300 	ldrd	r2, r3, [r3]
 8008fd0:	f7f7 fb1a 	bl	8000608 <__aeabi_dmul>
 8008fd4:	4642      	mov	r2, r8
 8008fd6:	464b      	mov	r3, r9
 8008fd8:	e9cd 0100 	strd	r0, r1, [sp]
 8008fdc:	4620      	mov	r0, r4
 8008fde:	4629      	mov	r1, r5
 8008fe0:	f7f7 f95a 	bl	8000298 <__aeabi_dsub>
 8008fe4:	4602      	mov	r2, r0
 8008fe6:	460b      	mov	r3, r1
 8008fe8:	4630      	mov	r0, r6
 8008fea:	4639      	mov	r1, r7
 8008fec:	f7f7 f954 	bl	8000298 <__aeabi_dsub>
 8008ff0:	a373      	add	r3, pc, #460	@ (adr r3, 80091c0 <__ieee754_pow+0xa28>)
 8008ff2:	e9d3 2300 	ldrd	r2, r3, [r3]
 8008ff6:	f7f7 fb07 	bl	8000608 <__aeabi_dmul>
 8008ffa:	4680      	mov	r8, r0
 8008ffc:	4689      	mov	r9, r1
 8008ffe:	4620      	mov	r0, r4
 8009000:	4629      	mov	r1, r5
 8009002:	a371      	add	r3, pc, #452	@ (adr r3, 80091c8 <__ieee754_pow+0xa30>)
 8009004:	e9d3 2300 	ldrd	r2, r3, [r3]
 8009008:	f7f7 fafe 	bl	8000608 <__aeabi_dmul>
 800900c:	4602      	mov	r2, r0
 800900e:	460b      	mov	r3, r1
 8009010:	4640      	mov	r0, r8
 8009012:	4649      	mov	r1, r9
 8009014:	f7f7 f942 	bl	800029c <__adddf3>
 8009018:	4604      	mov	r4, r0
 800901a:	460d      	mov	r5, r1
 800901c:	4602      	mov	r2, r0
 800901e:	460b      	mov	r3, r1
 8009020:	e9dd 0100 	ldrd	r0, r1, [sp]
 8009024:	f7f7 f93a 	bl	800029c <__adddf3>
 8009028:	4680      	mov	r8, r0
 800902a:	4689      	mov	r9, r1
 800902c:	e9dd 2300 	ldrd	r2, r3, [sp]
 8009030:	f7f7 f932 	bl	8000298 <__aeabi_dsub>
 8009034:	4602      	mov	r2, r0
 8009036:	460b      	mov	r3, r1
 8009038:	4620      	mov	r0, r4
 800903a:	4629      	mov	r1, r5
 800903c:	f7f7 f92c 	bl	8000298 <__aeabi_dsub>
 8009040:	4642      	mov	r2, r8
 8009042:	4606      	mov	r6, r0
 8009044:	460f      	mov	r7, r1
 8009046:	464b      	mov	r3, r9
 8009048:	4640      	mov	r0, r8
 800904a:	4649      	mov	r1, r9
 800904c:	f7f7 fadc 	bl	8000608 <__aeabi_dmul>
 8009050:	4604      	mov	r4, r0
 8009052:	460d      	mov	r5, r1
 8009054:	a35e      	add	r3, pc, #376	@ (adr r3, 80091d0 <__ieee754_pow+0xa38>)
 8009056:	e9d3 2300 	ldrd	r2, r3, [r3]
 800905a:	f7f7 fad5 	bl	8000608 <__aeabi_dmul>
 800905e:	a35e      	add	r3, pc, #376	@ (adr r3, 80091d8 <__ieee754_pow+0xa40>)
 8009060:	e9d3 2300 	ldrd	r2, r3, [r3]
 8009064:	f7f7 f918 	bl	8000298 <__aeabi_dsub>
 8009068:	4622      	mov	r2, r4
 800906a:	462b      	mov	r3, r5
 800906c:	f7f7 facc 	bl	8000608 <__aeabi_dmul>
 8009070:	a35b      	add	r3, pc, #364	@ (adr r3, 80091e0 <__ieee754_pow+0xa48>)
 8009072:	e9d3 2300 	ldrd	r2, r3, [r3]
 8009076:	f7f7 f911 	bl	800029c <__adddf3>
 800907a:	4622      	mov	r2, r4
 800907c:	462b      	mov	r3, r5
 800907e:	f7f7 fac3 	bl	8000608 <__aeabi_dmul>
 8009082:	a359      	add	r3, pc, #356	@ (adr r3, 80091e8 <__ieee754_pow+0xa50>)
 8009084:	e9d3 2300 	ldrd	r2, r3, [r3]
 8009088:	f7f7 f906 	bl	8000298 <__aeabi_dsub>
 800908c:	4622      	mov	r2, r4
 800908e:	462b      	mov	r3, r5
 8009090:	f7f7 faba 	bl	8000608 <__aeabi_dmul>
 8009094:	a356      	add	r3, pc, #344	@ (adr r3, 80091f0 <__ieee754_pow+0xa58>)
 8009096:	e9d3 2300 	ldrd	r2, r3, [r3]
 800909a:	f7f7 f8ff 	bl	800029c <__adddf3>
 800909e:	4622      	mov	r2, r4
 80090a0:	462b      	mov	r3, r5
 80090a2:	f7f7 fab1 	bl	8000608 <__aeabi_dmul>
 80090a6:	4602      	mov	r2, r0
 80090a8:	460b      	mov	r3, r1
 80090aa:	4640      	mov	r0, r8
 80090ac:	4649      	mov	r1, r9
 80090ae:	f7f7 f8f3 	bl	8000298 <__aeabi_dsub>
 80090b2:	4604      	mov	r4, r0
 80090b4:	460d      	mov	r5, r1
 80090b6:	4602      	mov	r2, r0
 80090b8:	460b      	mov	r3, r1
 80090ba:	4640      	mov	r0, r8
 80090bc:	4649      	mov	r1, r9
 80090be:	f7f7 faa3 	bl	8000608 <__aeabi_dmul>
 80090c2:	2200      	movs	r2, #0
 80090c4:	f04f 4380 	mov.w	r3, #1073741824	@ 0x40000000
 80090c8:	e9cd 0100 	strd	r0, r1, [sp]
 80090cc:	4620      	mov	r0, r4
 80090ce:	4629      	mov	r1, r5
 80090d0:	f7f7 f8e2 	bl	8000298 <__aeabi_dsub>
 80090d4:	4602      	mov	r2, r0
 80090d6:	460b      	mov	r3, r1
 80090d8:	e9dd 0100 	ldrd	r0, r1, [sp]
 80090dc:	f7f7 fbbe 	bl	800085c <__aeabi_ddiv>
 80090e0:	4632      	mov	r2, r6
 80090e2:	4604      	mov	r4, r0
 80090e4:	460d      	mov	r5, r1
 80090e6:	463b      	mov	r3, r7
 80090e8:	4640      	mov	r0, r8
 80090ea:	4649      	mov	r1, r9
 80090ec:	f7f7 fa8c 	bl	8000608 <__aeabi_dmul>
 80090f0:	4632      	mov	r2, r6
 80090f2:	463b      	mov	r3, r7
 80090f4:	f7f7 f8d2 	bl	800029c <__adddf3>
 80090f8:	4602      	mov	r2, r0
 80090fa:	460b      	mov	r3, r1
 80090fc:	4620      	mov	r0, r4
 80090fe:	4629      	mov	r1, r5
 8009100:	f7f7 f8ca 	bl	8000298 <__aeabi_dsub>
 8009104:	4642      	mov	r2, r8
 8009106:	464b      	mov	r3, r9
 8009108:	f7f7 f8c6 	bl	8000298 <__aeabi_dsub>
 800910c:	460b      	mov	r3, r1
 800910e:	4602      	mov	r2, r0
 8009110:	493a      	ldr	r1, [pc, #232]	@ (80091fc <__ieee754_pow+0xa64>)
 8009112:	2000      	movs	r0, #0
 8009114:	f7f7 f8c0 	bl	8000298 <__aeabi_dsub>
 8009118:	ec41 0b10 	vmov	d0, r0, r1
 800911c:	ee10 3a90 	vmov	r3, s1
 8009120:	eb03 530a 	add.w	r3, r3, sl, lsl #20
 8009124:	f5b3 1f80 	cmp.w	r3, #1048576	@ 0x100000
 8009128:	da30      	bge.n	800918c <__ieee754_pow+0x9f4>
 800912a:	4650      	mov	r0, sl
 800912c:	f000 f87c 	bl	8009228 <scalbn>
 8009130:	ec51 0b10 	vmov	r0, r1, d0
 8009134:	e9dd 2302 	ldrd	r2, r3, [sp, #8]
 8009138:	f7ff bbd5 	b.w	80088e6 <__ieee754_pow+0x14e>
 800913c:	f021 4300 	bic.w	r3, r1, #2147483648	@ 0x80000000
 8009140:	4c2f      	ldr	r4, [pc, #188]	@ (8009200 <__ieee754_pow+0xa68>)
 8009142:	42a3      	cmp	r3, r4
 8009144:	d91a      	bls.n	800917c <__ieee754_pow+0x9e4>
 8009146:	4b2f      	ldr	r3, [pc, #188]	@ (8009204 <__ieee754_pow+0xa6c>)
 8009148:	440b      	add	r3, r1
 800914a:	4303      	orrs	r3, r0
 800914c:	d009      	beq.n	8009162 <__ieee754_pow+0x9ca>
 800914e:	2200      	movs	r2, #0
 8009150:	2300      	movs	r3, #0
 8009152:	e9dd 0102 	ldrd	r0, r1, [sp, #8]
 8009156:	f7f7 fcc9 	bl	8000aec <__aeabi_dcmplt>
 800915a:	3800      	subs	r0, #0
 800915c:	bf18      	it	ne
 800915e:	2001      	movne	r0, #1
 8009160:	e42e      	b.n	80089c0 <__ieee754_pow+0x228>
 8009162:	4642      	mov	r2, r8
 8009164:	464b      	mov	r3, r9
 8009166:	f7f7 f897 	bl	8000298 <__aeabi_dsub>
 800916a:	4632      	mov	r2, r6
 800916c:	463b      	mov	r3, r7
 800916e:	f7f7 fcd1 	bl	8000b14 <__aeabi_dcmpge>
 8009172:	2800      	cmp	r0, #0
 8009174:	d1eb      	bne.n	800914e <__ieee754_pow+0x9b6>
 8009176:	f8df a09c 	ldr.w	sl, [pc, #156]	@ 8009214 <__ieee754_pow+0xa7c>
 800917a:	e6f6      	b.n	8008f6a <__ieee754_pow+0x7d2>
 800917c:	469a      	mov	sl, r3
 800917e:	4b22      	ldr	r3, [pc, #136]	@ (8009208 <__ieee754_pow+0xa70>)
 8009180:	459a      	cmp	sl, r3
 8009182:	f63f aef2 	bhi.w	8008f6a <__ieee754_pow+0x7d2>
 8009186:	f8dd a010 	ldr.w	sl, [sp, #16]
 800918a:	e715      	b.n	8008fb8 <__ieee754_pow+0x820>
 800918c:	ec51 0b10 	vmov	r0, r1, d0
 8009190:	4619      	mov	r1, r3
 8009192:	e7cf      	b.n	8009134 <__ieee754_pow+0x99c>
 8009194:	2000      	movs	r0, #0
 8009196:	4919      	ldr	r1, [pc, #100]	@ (80091fc <__ieee754_pow+0xa64>)
 8009198:	f7ff bb1b 	b.w	80087d2 <__ieee754_pow+0x3a>
 800919c:	2000      	movs	r0, #0
 800919e:	2100      	movs	r1, #0
 80091a0:	f7ff bb17 	b.w	80087d2 <__ieee754_pow+0x3a>
 80091a4:	4630      	mov	r0, r6
 80091a6:	4639      	mov	r1, r7
 80091a8:	f7ff bb13 	b.w	80087d2 <__ieee754_pow+0x3a>
 80091ac:	460c      	mov	r4, r1
 80091ae:	f7ff bb61 	b.w	8008874 <__ieee754_pow+0xdc>
 80091b2:	2400      	movs	r4, #0
 80091b4:	f7ff bb4c 	b.w	8008850 <__ieee754_pow+0xb8>
 80091b8:	00000000 	.word	0x00000000
 80091bc:	3fe62e43 	.word	0x3fe62e43
 80091c0:	fefa39ef 	.word	0xfefa39ef
 80091c4:	3fe62e42 	.word	0x3fe62e42
 80091c8:	0ca86c39 	.word	0x0ca86c39
 80091cc:	be205c61 	.word	0xbe205c61
 80091d0:	72bea4d0 	.word	0x72bea4d0
 80091d4:	3e663769 	.word	0x3e663769
 80091d8:	c5d26bf1 	.word	0xc5d26bf1
 80091dc:	3ebbbd41 	.word	0x3ebbbd41
 80091e0:	af25de2c 	.word	0xaf25de2c
 80091e4:	3f11566a 	.word	0x3f11566a
 80091e8:	16bebd93 	.word	0x16bebd93
 80091ec:	3f66c16c 	.word	0x3f66c16c
 80091f0:	5555553e 	.word	0x5555553e
 80091f4:	3fc55555 	.word	0x3fc55555
 80091f8:	fff00000 	.word	0xfff00000
 80091fc:	3ff00000 	.word	0x3ff00000
 8009200:	4090cbff 	.word	0x4090cbff
 8009204:	3f6f3400 	.word	0x3f6f3400
 8009208:	3fe00000 	.word	0x3fe00000
 800920c:	652b82fe 	.word	0x652b82fe
 8009210:	3c971547 	.word	0x3c971547
 8009214:	4090cc00 	.word	0x4090cc00

08009218 <fabs>:
 8009218:	ec51 0b10 	vmov	r0, r1, d0
 800921c:	4602      	mov	r2, r0
 800921e:	f021 4300 	bic.w	r3, r1, #2147483648	@ 0x80000000
 8009222:	ec43 2b10 	vmov	d0, r2, r3
 8009226:	4770      	bx	lr

08009228 <scalbn>:
 8009228:	b570      	push	{r4, r5, r6, lr}
 800922a:	ec55 4b10 	vmov	r4, r5, d0
 800922e:	f3c5 510a 	ubfx	r1, r5, #20, #11
 8009232:	4606      	mov	r6, r0
 8009234:	462b      	mov	r3, r5
 8009236:	b991      	cbnz	r1, 800925e <scalbn+0x36>
 8009238:	f025 4300 	bic.w	r3, r5, #2147483648	@ 0x80000000
 800923c:	4323      	orrs	r3, r4
 800923e:	d03d      	beq.n	80092bc <scalbn+0x94>
 8009240:	4b35      	ldr	r3, [pc, #212]	@ (8009318 <scalbn+0xf0>)
 8009242:	4620      	mov	r0, r4
 8009244:	4629      	mov	r1, r5
 8009246:	2200      	movs	r2, #0
 8009248:	f7f7 f9de 	bl	8000608 <__aeabi_dmul>
 800924c:	4b33      	ldr	r3, [pc, #204]	@ (800931c <scalbn+0xf4>)
 800924e:	4604      	mov	r4, r0
 8009250:	460d      	mov	r5, r1
 8009252:	429e      	cmp	r6, r3
 8009254:	da0f      	bge.n	8009276 <scalbn+0x4e>
 8009256:	a328      	add	r3, pc, #160	@ (adr r3, 80092f8 <scalbn+0xd0>)
 8009258:	e9d3 2300 	ldrd	r2, r3, [r3]
 800925c:	e01e      	b.n	800929c <scalbn+0x74>
 800925e:	f240 72ff 	movw	r2, #2047	@ 0x7ff
 8009262:	4291      	cmp	r1, r2
 8009264:	d10b      	bne.n	800927e <scalbn+0x56>
 8009266:	4622      	mov	r2, r4
 8009268:	4620      	mov	r0, r4
 800926a:	4629      	mov	r1, r5
 800926c:	f7f7 f816 	bl	800029c <__adddf3>
 8009270:	4604      	mov	r4, r0
 8009272:	460d      	mov	r5, r1
 8009274:	e022      	b.n	80092bc <scalbn+0x94>
 8009276:	460b      	mov	r3, r1
 8009278:	f3c1 510a 	ubfx	r1, r1, #20, #11
 800927c:	3936      	subs	r1, #54	@ 0x36
 800927e:	f24c 3250 	movw	r2, #50000	@ 0xc350
 8009282:	4296      	cmp	r6, r2
 8009284:	dd0d      	ble.n	80092a2 <scalbn+0x7a>
 8009286:	2d00      	cmp	r5, #0
 8009288:	a11d      	add	r1, pc, #116	@ (adr r1, 8009300 <scalbn+0xd8>)
 800928a:	e9d1 0100 	ldrd	r0, r1, [r1]
 800928e:	da02      	bge.n	8009296 <scalbn+0x6e>
 8009290:	a11d      	add	r1, pc, #116	@ (adr r1, 8009308 <scalbn+0xe0>)
 8009292:	e9d1 0100 	ldrd	r0, r1, [r1]
 8009296:	a31a      	add	r3, pc, #104	@ (adr r3, 8009300 <scalbn+0xd8>)
 8009298:	e9d3 2300 	ldrd	r2, r3, [r3]
 800929c:	f7f7 f9b4 	bl	8000608 <__aeabi_dmul>
 80092a0:	e7e6      	b.n	8009270 <scalbn+0x48>
 80092a2:	1872      	adds	r2, r6, r1
 80092a4:	f240 71fe 	movw	r1, #2046	@ 0x7fe
 80092a8:	428a      	cmp	r2, r1
 80092aa:	dcec      	bgt.n	8009286 <scalbn+0x5e>
 80092ac:	2a00      	cmp	r2, #0
 80092ae:	dd08      	ble.n	80092c2 <scalbn+0x9a>
 80092b0:	f023 43ff 	bic.w	r3, r3, #2139095040	@ 0x7f800000
 80092b4:	f423 03e0 	bic.w	r3, r3, #7340032	@ 0x700000
 80092b8:	ea43 5502 	orr.w	r5, r3, r2, lsl #20
 80092bc:	ec45 4b10 	vmov	d0, r4, r5
 80092c0:	bd70      	pop	{r4, r5, r6, pc}
 80092c2:	f112 0f35 	cmn.w	r2, #53	@ 0x35
 80092c6:	da08      	bge.n	80092da <scalbn+0xb2>
 80092c8:	2d00      	cmp	r5, #0
 80092ca:	a10b      	add	r1, pc, #44	@ (adr r1, 80092f8 <scalbn+0xd0>)
 80092cc:	e9d1 0100 	ldrd	r0, r1, [r1]
 80092d0:	dac1      	bge.n	8009256 <scalbn+0x2e>
 80092d2:	a10f      	add	r1, pc, #60	@ (adr r1, 8009310 <scalbn+0xe8>)
 80092d4:	e9d1 0100 	ldrd	r0, r1, [r1]
 80092d8:	e7bd      	b.n	8009256 <scalbn+0x2e>
 80092da:	f023 43ff 	bic.w	r3, r3, #2139095040	@ 0x7f800000
 80092de:	3236      	adds	r2, #54	@ 0x36
 80092e0:	4620      	mov	r0, r4
 80092e2:	f423 03e0 	bic.w	r3, r3, #7340032	@ 0x700000
 80092e6:	ea43 5502 	orr.w	r5, r3, r2, lsl #20
 80092ea:	2200      	movs	r2, #0
 80092ec:	4b0c      	ldr	r3, [pc, #48]	@ (8009320 <scalbn+0xf8>)
 80092ee:	4629      	mov	r1, r5
 80092f0:	e7d4      	b.n	800929c <scalbn+0x74>
 80092f2:	bf00      	nop
 80092f4:	f3af 8000 	nop.w
 80092f8:	c2f8f359 	.word	0xc2f8f359
 80092fc:	01a56e1f 	.word	0x01a56e1f
 8009300:	8800759c 	.word	0x8800759c
 8009304:	7e37e43c 	.word	0x7e37e43c
 8009308:	8800759c 	.word	0x8800759c
 800930c:	fe37e43c 	.word	0xfe37e43c
 8009310:	c2f8f359 	.word	0xc2f8f359
 8009314:	81a56e1f 	.word	0x81a56e1f
 8009318:	43500000 	.word	0x43500000
 800931c:	ffff3cb0 	.word	0xffff3cb0
 8009320:	3c900000 	.word	0x3c900000

08009324 <with_errno>:
 8009324:	b510      	push	{r4, lr}
 8009326:	ed2d 8b02 	vpush	{d8}
 800932a:	eeb0 8a40 	vmov.f32	s16, s0
 800932e:	eef0 8a60 	vmov.f32	s17, s1
 8009332:	4604      	mov	r4, r0
 8009334:	f7fe fd68 	bl	8007e08 <__errno>
 8009338:	6004      	str	r4, [r0, #0]
 800933a:	eeb0 0a48 	vmov.f32	s0, s16
 800933e:	eef0 0a68 	vmov.f32	s1, s17
 8009342:	ecbd 8b02 	vpop	{d8}
 8009346:	bd10      	pop	{r4, pc}

08009348 <xflow>:
 8009348:	4603      	mov	r3, r0
 800934a:	b507      	push	{r0, r1, r2, lr}
 800934c:	ec51 0b10 	vmov	r0, r1, d0
 8009350:	b183      	cbz	r3, 8009374 <xflow+0x2c>
 8009352:	4602      	mov	r2, r0
 8009354:	f101 4300 	add.w	r3, r1, #2147483648	@ 0x80000000
 8009358:	e9cd 2300 	strd	r2, r3, [sp]
 800935c:	e9dd 2300 	ldrd	r2, r3, [sp]
 8009360:	f7f7 f952 	bl	8000608 <__aeabi_dmul>
 8009364:	ec41 0b10 	vmov	d0, r0, r1
 8009368:	2022      	movs	r0, #34	@ 0x22
 800936a:	b003      	add	sp, #12
 800936c:	f85d eb04 	ldr.w	lr, [sp], #4
 8009370:	f7ff bfd8 	b.w	8009324 <with_errno>
 8009374:	4602      	mov	r2, r0
 8009376:	460b      	mov	r3, r1
 8009378:	e7ee      	b.n	8009358 <xflow+0x10>
 800937a:	0000      	movs	r0, r0
 800937c:	0000      	movs	r0, r0
	...

08009380 <__math_uflow>:
 8009380:	ed9f 0b01 	vldr	d0, [pc, #4]	@ 8009388 <__math_uflow+0x8>
 8009384:	f7ff bfe0 	b.w	8009348 <xflow>
 8009388:	00000000 	.word	0x00000000
 800938c:	10000000 	.word	0x10000000

08009390 <__math_oflow>:
 8009390:	ed9f 0b01 	vldr	d0, [pc, #4]	@ 8009398 <__math_oflow+0x8>
 8009394:	f7ff bfd8 	b.w	8009348 <xflow>
 8009398:	00000000 	.word	0x00000000
 800939c:	70000000 	.word	0x70000000

080093a0 <_init>:
 80093a0:	b5f8      	push	{r3, r4, r5, r6, r7, lr}
 80093a2:	bf00      	nop
 80093a4:	bcf8      	pop	{r3, r4, r5, r6, r7}
 80093a6:	bc08      	pop	{r3}
 80093a8:	469e      	mov	lr, r3
 80093aa:	4770      	bx	lr

080093ac <_fini>:
 80093ac:	b5f8      	push	{r3, r4, r5, r6, r7, lr}
 80093ae:	bf00      	nop
 80093b0:	bcf8      	pop	{r3, r4, r5, r6, r7}
 80093b2:	bc08      	pop	{r3}
 80093b4:	469e      	mov	lr, r3
 80093b6:	4770      	bx	lr
